 vorbis

 Timestamp is 5739cafa (Mon May 16 09:28:26 2016)

 Preferred load address is 0000000180000000

 Start         Length     Name                   Class
 0001:00000000 000001e0H .text                   CODE
 0001:000001e0 00037b30H .text$mn                CODE
 0001:00037d10 00000020H .text$mn$00             CODE
 0001:00037d30 00000270H .text$x                 CODE
 0002:00000000 000002d8H .idata$5                DATA
 0002:000002d8 00000010H .00cfg                  DATA
 0002:000002e8 00000008H .CRT$XCA                DATA
 0002:000002f0 00000008H .CRT$XCU                DATA
 0002:000002f8 00000008H .CRT$XCZ                DATA
 0002:00000300 00000008H .CRT$XIA                DATA
 0002:00000308 00000018H .CRT$XIC                DATA
 0002:00000320 00000008H .CRT$XIZ                DATA
 0002:00000328 00000008H .CRT$XPA                DATA
 0002:00000330 00000010H .CRT$XPX                DATA
 0002:00000340 00000008H .CRT$XPXA               DATA
 0002:00000348 00000008H .CRT$XPZ                DATA
 0002:00000350 00000008H .CRT$XTA                DATA
 0002:00000358 00000008H .CRT$XTZ                DATA
 0002:00000360 00185e78H .rdata                  DATA
 0002:001861d8 000001f8H .rdata$r                DATA
 0002:001863d0 00000010H .rdata$zETW0            DATA
 0002:001863e0 00000077H .rdata$zETW1            DATA
 0002:00186457 0000002cH .rdata$zETW2            DATA
 0002:00186483 00000001H .rdata$zETW9            DATA
 0002:00186484 0000046cH .rdata$zzzdbg           DATA
 0002:001868f0 00000008H .rtc$IAA                DATA
 0002:001868f8 00000008H .rtc$IZZ                DATA
 0002:00186900 00000008H .rtc$TAA                DATA
 0002:00186908 00000008H .rtc$TZZ                DATA
 0002:00186910 00002908H .xdata                  DATA
 0002:00189218 000000ecH .xdata$x                DATA
 0002:00189304 00000020H .didat$2                DATA
 0002:00189324 00000024H .didat$3                DATA
 0002:00189348 00000298H .didat$4                DATA
 0002:001895e0 00001698H .didat$6                DATA
 0002:0018ac78 00000298H .didat$7                DATA
 0002:0018af10 000047f8H .edata                  DATA
 0002:0018f708 0000003cH .idata$2                DATA
 0002:0018f744 00000014H .idata$3                DATA
 0002:0018f758 000002d8H .idata$4                DATA
 0002:0018fa30 00000696H .idata$6                DATA
 0003:00000000 000009f0H .data                   DATA
 0003:000009f0 000000a0H .data$r                 DATA
 0003:00000a90 000002a0H .didat$5                DATA
 0003:00000d30 00001200H .bss                    DATA
 0004:00000000 00002568H .pdata                  DATA
 0005:00000000 00000084H .gfids$x                DATA
 0005:00000084 00000038H .gfids$y                DATA
 0006:00000000 00001750H _RDATA                  DATA
 0007:00000000 00000060H .rsrc$01                DATA
 0007:00000060 00000180H .rsrc$02                DATA

  Address         Publics by Value              Rva+Base               Lib:Object

 0000:00000000       __dynamic_value_reloc_table 0000000000000000     <absolute>
 0000:00000000       __guard_iat_count          0000000000000000     <absolute>
 0000:00000000       __guard_iat_table          0000000000000000     <absolute>
 0000:00000000       __guard_fids_count         0000000000000000     <absolute>
 0000:00000000       __guard_longjmp_table      0000000000000000     <absolute>
 0000:00000000       __guard_longjmp_count      0000000000000000     <absolute>
 0000:00000000       ___safe_se_handler_table   0000000000000000     <absolute>
 0000:00000000       ___safe_se_handler_count   0000000000000000     <absolute>
 0000:00000000       __guard_fids_table         0000000000000000     <absolute>
 0000:00000100       __guard_flags              0000000000000100     <absolute>
 0000:00000000       __ImageBase                0000000180000000     <linker-defined>
 0001:00000000       ?TraceLoggingRegister@__vcrt_trace_logging_provider@@YAJPEBU_TlgProvider_t@1@PEBU_GUID@@P6AX1KE_K2PEAU_EVENT_FILTER_DESCRIPTOR@@PEAX@Z4@Z 0000000180001000 f i libvcruntime:telemetry.obj
 0001:0000007c       ?_TlgEnableCallback@__vcrt_trace_logging_provider@@YAXPEBU_GUID@@KE_K1PEAU_EVENT_FILTER_DESCRIPTOR@@PEAX@Z 000000018000107c f i libvcruntime:telemetry.obj
 0001:00000140       ?_TlgWrite@__vcrt_trace_logging_provider@@YAJPEBU_TlgProvider_t@1@PEFBXPEBU_GUID@@2IPEAU_EVENT_DATA_DESCRIPTOR@@@Z 0000000180001140 f i libvcruntime:telemetry.obj
 0001:000001e0       ?object_type@HeapObjectStatistics@v8@@QEAAPEBDXZ 00000001800011e0 f i binding.obj
 0001:000001e0       ?space_name@HeapSpaceStatistics@v8@@QEAAPEBDXZ 00000001800011e0 f i binding.obj
 0001:000001e0       ??DUtf8Value@String@v8@@QEBAPEBDXZ 00000001800011e0 f i binding.obj
 0001:000001e0       ?total_heap_size@HeapStatistics@v8@@QEAA_KXZ 00000001800011e0 f i binding.obj
 0001:000001e0       ?GetIsolate@HandleScope@v8@@QEBAPEAVIsolate@2@XZ 00000001800011e0 f i binding.obj
 0001:000001e0       ??DUtf8Value@String@v8@@QEAAPEADXZ 00000001800011e0 f i binding.obj
 0001:000001e0       ??DValue@String@v8@@QEBAPEBGXZ 00000001800011e0 f i binding.obj
 0001:000001e0       ??DValue@String@v8@@QEAAPEAGXZ 00000001800011e0 f i binding.obj
 0001:000001e0       ?Data@Contents@ArrayBuffer@v8@@QEBAPEAXXZ 00000001800011e0 f i binding.obj
 0001:000001e0       ?impl@StreamedSource@ScriptCompiler@v8@@QEBAPEAU1internal@3@XZ 00000001800011e0 f i binding.obj
 0001:000001e0       ?Data@Contents@SharedArrayBuffer@v8@@QEBAPEAXXZ 00000001800011e0 f i binding.obj
 0001:000001f0       ??4UnboundScript@v8@@QEAAAEAV01@AEBV01@@Z 00000001800011f0 f i binding.obj
 0001:000001f0       ?Cast@Int8Array@v8@@SAPEAV12@PEAVValue@2@@Z 00000001800011f0 f i binding.obj
 0001:000001f0       ?Cast@Int16Array@v8@@SAPEAV12@PEAVValue@2@@Z 00000001800011f0 f i binding.obj
 0001:000001f0       ?Cast@Uint8Array@v8@@SAPEAV12@PEAVValue@2@@Z 00000001800011f0 f i binding.obj
 0001:000001f0       ??4SymbolObject@v8@@QEAAAEAV01@$$QEAV01@@Z 00000001800011f0 f i binding.obj
 0001:000001f0       ??4Symbol@v8@@QEAAAEAV01@$$QEAV01@@Z 00000001800011f0 f i binding.obj
 0001:000001f0       ?Cast@ArrayBuffer@v8@@SAPEAV12@PEAVValue@2@@Z 00000001800011f0 f i binding.obj
 0001:000001f0       ??4Int32Array@v8@@QEAAAEAV01@AEBV01@@Z 00000001800011f0 f i binding.obj
 0001:000001f0       ??4Uint32Array@v8@@QEAAAEAV01@AEBV01@@Z 00000001800011f0 f i binding.obj
 0001:000001f0       ?Cast@Float32Array@v8@@SAPEAV12@PEAVValue@2@@Z 00000001800011f0 f i binding.obj
 0001:000001f0       ??4TypeSwitch@v8@@QEAAAEAV01@AEBV01@@Z 00000001800011f0 f i binding.obj
 0001:000001f0       ??4JSON@v8@@QEAAAEAV01@$$QEAV01@@Z 00000001800011f0 f i binding.obj
 0001:000001f0       ??4Int32@v8@@QEAAAEAV01@AEBV01@@Z 00000001800011f0 f i binding.obj
 0001:000001f0       ??4Map@v8@@QEAAAEAV01@AEBV01@@Z 00000001800011f0 f i binding.obj
 0001:000001f0       ??4Array@v8@@QEAAAEAV01@AEBV01@@Z 00000001800011f0 f i binding.obj
 0001:000001f0       ??4Message@v8@@QEAAAEAV01@$$QEAV01@@Z 00000001800011f0 f i binding.obj
 0001:000001f0       ??4Array@v8@@QEAAAEAV01@$$QEAV01@@Z 00000001800011f0 f i binding.obj
 0001:000001f0       ?Cast@External@v8@@SAPEAV12@PEAVValue@2@@Z 00000001800011f0 f i binding.obj
 0001:000001f0       ?Cast@Date@v8@@SAPEAV12@PEAVValue@2@@Z 00000001800011f0 f i binding.obj
 0001:000001f0       ?Cast@Uint32@v8@@SAPEAV12@PEAVValue@2@@Z 00000001800011f0 f i binding.obj
 0001:000001f0       ??4Map@v8@@QEAAAEAV01@$$QEAV01@@Z 00000001800011f0 f i binding.obj
 0001:000001f0       ??4Template@v8@@QEAAAEAV01@AEBV01@@Z 00000001800011f0 f i binding.obj
 0001:000001f0       ??4Set@v8@@QEAAAEAV01@AEBV01@@Z 00000001800011f0 f i binding.obj
 0001:000001f0       ??4StringObject@v8@@QEAAAEAV01@AEBV01@@Z 00000001800011f0 f i binding.obj
 0001:000001f0       ?Cast@SymbolObject@v8@@SAPEAV12@PEAVValue@2@@Z 00000001800011f0 f i binding.obj
 0001:000001f0       ??4Exception@v8@@QEAAAEAV01@$$QEAV01@@Z 00000001800011f0 f i binding.obj
 0001:000001f0       ?Cast@Name@v8@@SAPEAV12@PEAVValue@2@@Z 00000001800011f0 f i binding.obj
 0001:000001f0       ??4Function@v8@@QEAAAEAV01@AEBV01@@Z 00000001800011f0 f i binding.obj
 0001:000001f0       ??0HandleScope@v8@@IEAA@XZ 00000001800011f0 f i binding.obj
 0001:000001f0       ??4Data@v8@@QEAAAEAV01@$$QEAV01@@Z 00000001800011f0 f i binding.obj
 0001:000001f0       ??4String@v8@@QEAAAEAV01@AEBV01@@Z 00000001800011f0 f i binding.obj
 0001:000001f0       ??4StackTrace@v8@@QEAAAEAV01@$$QEAV01@@Z 00000001800011f0 f i binding.obj
 0001:000001f0       ??4ExternalResourceVisitor@v8@@QEAAAEAV01@AEBV01@@Z 00000001800011f0 f i binding.obj
 0001:000001f0       ?Cast@Uint32Array@v8@@SAPEAV12@PEAVValue@2@@Z 00000001800011f0 f i binding.obj
 0001:000001f0       ?Cast@String@v8@@SAPEAV12@PEAVValue@2@@Z 00000001800011f0 f i binding.obj
 0001:000001f0       ??4Float64Array@v8@@QEAAAEAV01@$$QEAV01@@Z 00000001800011f0 f i binding.obj
 0001:000001f0       ?Cast@TypedArray@v8@@SAPEAV12@PEAVValue@2@@Z 00000001800011f0 f i binding.obj
 0001:000001f0       ??4ExternalSourceStream@ScriptCompiler@v8@@QEAAAEAV012@AEBV012@@Z 00000001800011f0 f i binding.obj
 0001:000001f0       ??4Uint8Array@v8@@QEAAAEAV01@AEBV01@@Z 00000001800011f0 f i binding.obj
 0001:000001f0       ??4PersistentHandleVisitor@v8@@QEAAAEAV01@AEBV01@@Z 00000001800011f0 f i binding.obj
 0001:000001f0       ??4External@v8@@QEAAAEAV01@AEBV01@@Z 00000001800011f0 f i binding.obj
 0001:000001f0       ??4Int8Array@v8@@QEAAAEAV01@$$QEAV01@@Z 00000001800011f0 f i binding.obj
 0001:000001f0       ??4Uint16Array@v8@@QEAAAEAV01@$$QEAV01@@Z 00000001800011f0 f i binding.obj
 0001:000001f0       ??4Primitive@v8@@QEAAAEAV01@AEBV01@@Z 00000001800011f0 f i binding.obj
 0001:000001f0       ??4SharedArrayBuffer@v8@@QEAAAEAV01@AEBV01@@Z 00000001800011f0 f i binding.obj
 0001:000001f0       ??4SharedArrayBuffer@v8@@QEAAAEAV01@$$QEAV01@@Z 00000001800011f0 f i binding.obj
 0001:000001f0       ??4Uint8Array@v8@@QEAAAEAV01@$$QEAV01@@Z 00000001800011f0 f i binding.obj
 0001:000001f0       ??4V8@v8@@QEAAAEAV01@AEBV01@@Z 00000001800011f0 f i binding.obj
 0001:000001f0       ??4Date@v8@@QEAAAEAV01@AEBV01@@Z 00000001800011f0 f i binding.obj
 0001:000001f0       ??4Resolver@Promise@v8@@QEAAAEAV012@AEBV012@@Z 00000001800011f0 f i binding.obj
 0001:000001f0       ??4Value@v8@@QEAAAEAV01@$$QEAV01@@Z 00000001800011f0 f i binding.obj
 0001:000001f0       ?Cast@Map@v8@@SAPEAV12@PEAVValue@2@@Z 00000001800011f0 f i binding.obj
 0001:000001f0       ??4NumberObject@v8@@QEAAAEAV01@AEBV01@@Z 00000001800011f0 f i binding.obj
 0001:000001f0       ??4Value@v8@@QEAAAEAV01@AEBV01@@Z 00000001800011f0 f i binding.obj
 0001:000001f0       ??4Signature@v8@@QEAAAEAV01@$$QEAV01@@Z 00000001800011f0 f i binding.obj
 0001:000001f0       ??4Allocator@ArrayBuffer@v8@@QEAAAEAV012@AEBV012@@Z 00000001800011f0 f i binding.obj
 0001:000001f0       ??4DataView@v8@@QEAAAEAV01@$$QEAV01@@Z 00000001800011f0 f i binding.obj
 0001:000001f0       ?Cast@Set@v8@@SAPEAV12@PEAVValue@2@@Z 00000001800011f0 f i binding.obj
 0001:000001f0       ?Cast@Object@v8@@SAPEAV12@PEAVValue@2@@Z 00000001800011f0 f i binding.obj
 0001:000001f0       ?Cast@Array@v8@@SAPEAV12@PEAVValue@2@@Z 00000001800011f0 f i binding.obj
 0001:000001f0       ?Cast@Function@v8@@SAPEAV12@PEAVValue@2@@Z 00000001800011f0 f i binding.obj
 0001:000001f0       ??4Uint8ClampedArray@v8@@QEAAAEAV01@$$QEAV01@@Z 00000001800011f0 f i binding.obj
 0001:000001f0       ?Cast@NumberObject@v8@@SAPEAV12@PEAVValue@2@@Z 00000001800011f0 f i binding.obj
 0001:000001f0       ??4ArrayBufferView@v8@@QEAAAEAV01@AEBV01@@Z 00000001800011f0 f i binding.obj
 0001:000001f0       ??4Uint32Array@v8@@QEAAAEAV01@$$QEAV01@@Z 00000001800011f0 f i binding.obj
 0001:000001f0       ?Cast@Int32@v8@@SAPEAV12@PEAVValue@2@@Z 00000001800011f0 f i binding.obj
 0001:000001f0       ?Cast@Number@v8@@SAPEAV12@PEAVValue@2@@Z 00000001800011f0 f i binding.obj
 0001:000001f0       ??4Exception@v8@@QEAAAEAV01@AEBV01@@Z 00000001800011f0 f i binding.obj
 0001:000001f0       ??4ArrayBufferView@v8@@QEAAAEAV01@$$QEAV01@@Z 00000001800011f0 f i binding.obj
 0001:000001f0       ??4V8@v8@@QEAAAEAV01@$$QEAV01@@Z 00000001800011f0 f i binding.obj
 0001:000001f0       ??4TypedArray@v8@@QEAAAEAV01@$$QEAV01@@Z 00000001800011f0 f i binding.obj
 0001:000001f0       ?Cast@Float64Array@v8@@SAPEAV12@PEAVValue@2@@Z 00000001800011f0 f i binding.obj
 0001:000001f0       ??4Boolean@v8@@QEAAAEAV01@AEBV01@@Z 00000001800011f0 f i binding.obj
 0001:000001f0       ??4RegExp@v8@@QEAAAEAV01@AEBV01@@Z 00000001800011f0 f i binding.obj
 0001:000001f0       ??4Object@v8@@QEAAAEAV01@AEBV01@@Z 00000001800011f0 f i binding.obj
 0001:000001f0       ??4FunctionTemplate@v8@@QEAAAEAV01@AEBV01@@Z 00000001800011f0 f i binding.obj
 0001:000001f0       ??4Promise@v8@@QEAAAEAV01@AEBV01@@Z 00000001800011f0 f i binding.obj
 0001:000001f0       ?Cast@BooleanObject@v8@@SAPEAV12@PEAVValue@2@@Z 00000001800011f0 f i binding.obj
 0001:000001f0       ??4RegExp@v8@@QEAAAEAV01@$$QEAV01@@Z 00000001800011f0 f i binding.obj
 0001:000001f0       ??4Date@v8@@QEAAAEAV01@$$QEAV01@@Z 00000001800011f0 f i binding.obj
 0001:000001f0       ??4Resolver@Promise@v8@@QEAAAEAV012@$$QEAV012@@Z 00000001800011f0 f i binding.obj
 0001:000001f0       ?Cast@Integer@v8@@SAPEAV12@PEAVValue@2@@Z 00000001800011f0 f i binding.obj
 0001:000001f0       ??4Signature@v8@@QEAAAEAV01@AEBV01@@Z 00000001800011f0 f i binding.obj
 0001:000001f0       ??4Object@v8@@QEAAAEAV01@$$QEAV01@@Z 00000001800011f0 f i binding.obj
 0001:000001f0       ??4NativeWeakMap@v8@@QEAAAEAV01@$$QEAV01@@Z 00000001800011f0 f i binding.obj
 0001:000001f0       ??4DataView@v8@@QEAAAEAV01@AEBV01@@Z 00000001800011f0 f i binding.obj
 0001:000001f0       ??4Float64Array@v8@@QEAAAEAV01@AEBV01@@Z 00000001800011f0 f i binding.obj
 0001:000001f0       ?Cast@Uint16Array@v8@@SAPEAV12@PEAVValue@2@@Z 00000001800011f0 f i binding.obj
 0001:000001f0       ??4Boolean@v8@@QEAAAEAV01@$$QEAV01@@Z 00000001800011f0 f i binding.obj
 0001:000001f0       ??4Context@v8@@QEAAAEAV01@AEBV01@@Z 00000001800011f0 f i binding.obj
 0001:000001f0       ??4AccessorSignature@v8@@QEAAAEAV01@$$QEAV01@@Z 00000001800011f0 f i binding.obj
 0001:000001f0       ??4Primitive@v8@@QEAAAEAV01@$$QEAV01@@Z 00000001800011f0 f i binding.obj
 0001:000001f0       ??4ArrayBuffer@v8@@QEAAAEAV01@AEBV01@@Z 00000001800011f0 f i binding.obj
 0001:000001f0       ??4Int16Array@v8@@QEAAAEAV01@$$QEAV01@@Z 00000001800011f0 f i binding.obj
 0001:000001f0       ??4BooleanObject@v8@@QEAAAEAV01@AEBV01@@Z 00000001800011f0 f i binding.obj
 0001:000001f0       ??4Script@v8@@QEAAAEAV01@AEBV01@@Z 00000001800011f0 f i binding.obj
 0001:000001f0       ??4Template@v8@@QEAAAEAV01@$$QEAV01@@Z 00000001800011f0 f i binding.obj
 0001:000001f0       ??4Name@v8@@QEAAAEAV01@AEBV01@@Z 00000001800011f0 f i binding.obj
 0001:000001f0       ??4ObjectTemplate@v8@@QEAAAEAV01@$$QEAV01@@Z 00000001800011f0 f i binding.obj
 0001:000001f0       ??4UnboundScript@v8@@QEAAAEAV01@$$QEAV01@@Z 00000001800011f0 f i binding.obj
 0001:000001f0       ??4Uint32@v8@@QEAAAEAV01@AEBV01@@Z 00000001800011f0 f i binding.obj
 0001:000001f0       ??4Uint8ClampedArray@v8@@QEAAAEAV01@AEBV01@@Z 00000001800011f0 f i binding.obj
 0001:000001f0       ??4Uint16Array@v8@@QEAAAEAV01@AEBV01@@Z 00000001800011f0 f i binding.obj
 0001:000001f0       ??4JSON@v8@@QEAAAEAV01@AEBV01@@Z 00000001800011f0 f i binding.obj
 0001:000001f0       ?Cast@Uint8ClampedArray@v8@@SAPEAV12@PEAVValue@2@@Z 00000001800011f0 f i binding.obj
 0001:000001f0       ?Cast@Symbol@v8@@SAPEAV12@PEAVValue@2@@Z 00000001800011f0 f i binding.obj
 0001:000001f0       ??4TypedArray@v8@@QEAAAEAV01@AEBV01@@Z 00000001800011f0 f i binding.obj
 0001:000001f0       ??4Int32@v8@@QEAAAEAV01@$$QEAV01@@Z 00000001800011f0 f i binding.obj
 0001:000001f0       ??4StringObject@v8@@QEAAAEAV01@$$QEAV01@@Z 00000001800011f0 f i binding.obj
 0001:000001f0       ??4Int8Array@v8@@QEAAAEAV01@AEBV01@@Z 00000001800011f0 f i binding.obj
 0001:000001f0       ?Cast@Promise@v8@@SAPEAV12@PEAVValue@2@@Z 00000001800011f0 f i binding.obj
 0001:000001f0       ??4Function@v8@@QEAAAEAV01@$$QEAV01@@Z 00000001800011f0 f i binding.obj
 0001:000001f0       ??4NativeWeakMap@v8@@QEAAAEAV01@AEBV01@@Z 00000001800011f0 f i binding.obj
 0001:000001f0       ?Cast@DataView@v8@@SAPEAV12@PEAVValue@2@@Z 00000001800011f0 f i binding.obj
 0001:000001f0       ??4Float32Array@v8@@QEAAAEAV01@AEBV01@@Z 00000001800011f0 f i binding.obj
 0001:000001f0       ??4Set@v8@@QEAAAEAV01@$$QEAV01@@Z 00000001800011f0 f i binding.obj
 0001:000001f0       ??4ScriptCompiler@v8@@QEAAAEAV01@$$QEAV01@@Z 00000001800011f0 f i binding.obj
 0001:000001f0       ??4StackFrame@v8@@QEAAAEAV01@AEBV01@@Z 00000001800011f0 f i binding.obj
 0001:000001f0       ??4Uint32@v8@@QEAAAEAV01@$$QEAV01@@Z 00000001800011f0 f i binding.obj
 0001:000001f0       ??4Integer@v8@@QEAAAEAV01@AEBV01@@Z 00000001800011f0 f i binding.obj
 0001:000001f0       ??4NumberObject@v8@@QEAAAEAV01@$$QEAV01@@Z 00000001800011f0 f i binding.obj
 0001:000001f0       ??4External@v8@@QEAAAEAV01@$$QEAV01@@Z 00000001800011f0 f i binding.obj
 0001:000001f0       ??4Script@v8@@QEAAAEAV01@$$QEAV01@@Z 00000001800011f0 f i binding.obj
 0001:000001f0       ??4AccessorSignature@v8@@QEAAAEAV01@AEBV01@@Z 00000001800011f0 f i binding.obj
 0001:000001f0       ??4Integer@v8@@QEAAAEAV01@$$QEAV01@@Z 00000001800011f0 f i binding.obj
 0001:000001f0       ??4Int32Array@v8@@QEAAAEAV01@$$QEAV01@@Z 00000001800011f0 f i binding.obj
 0001:000001f0       ??4Message@v8@@QEAAAEAV01@AEBV01@@Z 00000001800011f0 f i binding.obj
 0001:000001f0       ??4Data@v8@@QEAAAEAV01@AEBV01@@Z 00000001800011f0 f i binding.obj
 0001:000001f0       ??4StackTrace@v8@@QEAAAEAV01@AEBV01@@Z 00000001800011f0 f i binding.obj
 0001:000001f0       ??4Int16Array@v8@@QEAAAEAV01@AEBV01@@Z 00000001800011f0 f i binding.obj
 0001:000001f0       ??4ArrayBuffer@v8@@QEAAAEAV01@$$QEAV01@@Z 00000001800011f0 f i binding.obj
 0001:000001f0       ?Cast@Int32Array@v8@@SAPEAV12@PEAVValue@2@@Z 00000001800011f0 f i binding.obj
 0001:000001f0       ?Cast@ArrayBufferView@v8@@SAPEAV12@PEAVValue@2@@Z 00000001800011f0 f i binding.obj
 0001:000001f0       ??4TypeSwitch@v8@@QEAAAEAV01@$$QEAV01@@Z 00000001800011f0 f i binding.obj
 0001:000001f0       ??4ObjectTemplate@v8@@QEAAAEAV01@AEBV01@@Z 00000001800011f0 f i binding.obj
 0001:000001f0       ??4Float32Array@v8@@QEAAAEAV01@$$QEAV01@@Z 00000001800011f0 f i binding.obj
 0001:000001f0       ??4Symbol@v8@@QEAAAEAV01@AEBV01@@Z 00000001800011f0 f i binding.obj
 0001:000001f0       ?Cast@RegExp@v8@@SAPEAV12@PEAVValue@2@@Z 00000001800011f0 f i binding.obj
 0001:000001f0       ??4BooleanObject@v8@@QEAAAEAV01@$$QEAV01@@Z 00000001800011f0 f i binding.obj
 0001:000001f0       ?Cast@Boolean@v8@@SAPEAV12@PEAVValue@2@@Z 00000001800011f0 f i binding.obj
 0001:000001f0       ?Cast@SharedArrayBuffer@v8@@SAPEAV12@PEAVValue@2@@Z 00000001800011f0 f i binding.obj
 0001:000001f0       ??4Number@v8@@QEAAAEAV01@$$QEAV01@@Z 00000001800011f0 f i binding.obj
 0001:000001f0       ??4FunctionTemplate@v8@@QEAAAEAV01@$$QEAV01@@Z 00000001800011f0 f i binding.obj
 0001:000001f0       ??4Name@v8@@QEAAAEAV01@$$QEAV01@@Z 00000001800011f0 f i binding.obj
 0001:000001f0       ?Cast@Resolver@Promise@v8@@SAPEAV123@PEAVValue@3@@Z 00000001800011f0 f i binding.obj
 0001:000001f0       ??4Promise@v8@@QEAAAEAV01@$$QEAV01@@Z 00000001800011f0 f i binding.obj
 0001:000001f0       ??4String@v8@@QEAAAEAV01@$$QEAV01@@Z 00000001800011f0 f i binding.obj
 0001:000001f0       ??4Context@v8@@QEAAAEAV01@$$QEAV01@@Z 00000001800011f0 f i binding.obj
 0001:000001f0       ?Cast@StringObject@v8@@SAPEAV12@PEAVValue@2@@Z 00000001800011f0 f i binding.obj
 0001:000001f0       ??4Number@v8@@QEAAAEAV01@AEBV01@@Z 00000001800011f0 f i binding.obj
 0001:000001f0       ??4StackFrame@v8@@QEAAAEAV01@$$QEAV01@@Z 00000001800011f0 f i binding.obj
 0001:000001f0       ??4SymbolObject@v8@@QEAAAEAV01@AEBV01@@Z 00000001800011f0 f i binding.obj
 0001:000001f0       ??4ScriptCompiler@v8@@QEAAAEAV01@AEBV01@@Z 00000001800011f0 f i binding.obj
 0001:00000200       ??1EscapableHandleScope@v8@@QEAA@XZ 0000000180001200 f i binding.obj
 0001:00000210       ?GetId@Script@v8@@QEAAHXZ  0000000180001210 f i binding.obj
 0001:00000230       ??0CachedData@ScriptCompiler@v8@@QEAA@XZ 0000000180001230 f i binding.obj
 0001:00000250       ??1ExternalSourceStream@ScriptCompiler@v8@@UEAA@XZ 0000000180001250 f i binding.obj
 0001:00000260       ??0ExternalSourceStream@ScriptCompiler@v8@@QEAA@AEBV012@@Z 0000000180001260 f i binding.obj
 0001:00000260       ??0ExternalSourceStream@ScriptCompiler@v8@@QEAA@XZ 0000000180001260 f i binding.obj
 0001:00000270       ??_EExternalSourceStream@ScriptCompiler@v8@@UEAAPEAXI@Z 0000000180001270 f i binding.obj
 0001:00000300       ??1ExternalOneByteStringResourceImpl@v8@@UEAA@XZ 0000000180001300 f i binding.obj
 0001:00000300       ??1ExternalOneByteStringResource@String@v8@@UEAA@XZ 0000000180001300 f i binding.obj
 0001:00000300       ??1ExternalStringResourceBase@String@v8@@UEAA@XZ 0000000180001300 f i binding.obj
 0001:00000300       ??1ExternalStringResource@String@v8@@UEAA@XZ 0000000180001300 f i binding.obj
 0001:00000310       ??0ExternalStringResourceBase@String@v8@@IEAA@XZ 0000000180001310 f i binding.obj
 0001:00000320       ?Dispose@ExternalStringResourceBase@String@v8@@MEAAXXZ 0000000180001320 f i binding.obj
 0001:00000320       ?Destroy@AsyncWorker@Nan@@UEAAXXZ 0000000180001320 f i binding.obj
 0001:00000340       ??0ExternalStringResource@String@v8@@IEAA@XZ 0000000180001340 f i binding.obj
 0001:00000340       ??0ExternalOneByteStringResource@String@v8@@IEAA@XZ 0000000180001340 f i binding.obj
 0001:00000350       ?length@Utf8Value@String@v8@@QEBAHXZ 0000000180001350 f i binding.obj
 0001:00000350       ?length@Value@String@v8@@QEBAHXZ 0000000180001350 f i binding.obj
 0001:00000350       ?max_executable_size@ResourceConstraints@v8@@QEBAHXZ 0000000180001350 f i binding.obj
 0001:00000360       ?InternalFieldCount@Object@v8@@SAHAEBV?$PersistentBase@VObject@v8@@@2@@Z 0000000180001360 f i binding.obj
 0001:00000370       ?GetAlignedPointerFromInternalField@Object@v8@@SAPEAXAEBV?$PersistentBase@VObject@v8@@@2@H@Z 0000000180001370 f i binding.obj
 0001:000003a0       ?NewInstance@Function@v8@@QEBA?AV?$MaybeLocal@VObject@v8@@@2@V?$Local@VContext@v8@@@2@@Z 00000001800013a0 f i binding.obj
 0001:000003d0       ??1Allocator@ArrayBuffer@v8@@UEAA@XZ 00000001800013d0 f i binding.obj
 0001:000003e0       ??0Contents@SharedArrayBuffer@v8@@QEAA@XZ 00000001800013e0 f i binding.obj
 0001:000003e0       ??0Contents@ArrayBuffer@v8@@QEAA@XZ 00000001800013e0 f i binding.obj
 0001:000003f0       ?total_heap_size_executable@HeapStatistics@v8@@QEAA_KXZ 00000001800013f0 f i binding.obj
 0001:000003f0       ?ByteLength@Contents@ArrayBuffer@v8@@QEBA_KXZ 00000001800013f0 f i binding.obj
 0001:000003f0       ?space_size@HeapSpaceStatistics@v8@@QEAA_KXZ 00000001800013f0 f i binding.obj
 0001:000003f0       ?data@ExternalOneByteStringResourceImpl@v8@@UEBAPEBDXZ 00000001800013f0 f i binding.obj
 0001:000003f0       ?begin@ExtensionConfiguration@v8@@QEBAPEAPEBDXZ 00000001800013f0 f i binding.obj
 0001:000003f0       ?name@Extension@v8@@QEBAPEBDXZ 00000001800013f0 f i binding.obj
 0001:000003f0       ?object_sub_type@HeapObjectStatistics@v8@@QEAAPEBDXZ 00000001800013f0 f i binding.obj
 0001:000003f0       ?ByteLength@Contents@SharedArrayBuffer@v8@@QEBA_KXZ 00000001800013f0 f i binding.obj
 0001:00000400       ?SetIndexedPropertyHandler@ObjectTemplate@v8@@QEAAXP6AXIAEBV?$PropertyCallbackInfo@VValue@v8@@@2@@ZP6AXIV?$Local@VValue@v8@@@2@0@ZP6AXIAEBV?$PropertyCallbackInfo@VInteger@v8@@@2@@ZP6AXIAEBV?$PropertyCallbackInfo@VBoolean@v8@@@2@@ZP6AXAEBV?$PropertyCallbackInfo@VArray@v8@@@2@@Z2@Z 0000000180001400 f i binding.obj
 0001:00000450       ??0ExternalOneByteStringResourceImpl@v8@@QEAA@XZ 0000000180001450 f i binding.obj
 0001:00000470       ??0ExternalOneByteStringResourceImpl@v8@@QEAA@PEBD_K@Z 0000000180001470 f i binding.obj
 0001:00000490       ?stack_limit@ResourceConstraints@v8@@QEBAPEAIXZ 0000000180001490 f i binding.obj
 0001:00000490       ?length@ExternalOneByteStringResourceImpl@v8@@UEBA_KXZ 0000000180001490 f i binding.obj
 0001:00000490       ?object_count@HeapObjectStatistics@v8@@QEAA_KXZ 0000000180001490 f i binding.obj
 0001:00000490       ?total_physical_size@HeapStatistics@v8@@QEAA_KXZ 0000000180001490 f i binding.obj
 0001:00000490       ?source_length@Extension@v8@@QEBA_KXZ 0000000180001490 f i binding.obj
 0001:00000490       ?space_used_size@HeapSpaceStatistics@v8@@QEAA_KXZ 0000000180001490 f i binding.obj
 0001:000004a0       ??1Extension@v8@@UEAA@XZ   00000001800014a0 f i binding.obj
 0001:000004c0       ?GetNativeFunctionTemplate@Extension@v8@@UEAA?AV?$Local@VFunctionTemplate@v8@@@2@PEAVIsolate@2@V?$Local@VString@v8@@@2@@Z 00000001800014c0 f i binding.obj
 0001:000004d0       ?source@Extension@v8@@QEBAPEBVExternalOneByteStringResource@String@2@XZ 00000001800014d0 f i binding.obj
 0001:000004e0       ?dependency_count@Extension@v8@@QEAAHXZ 00000001800014e0 f i binding.obj
 0001:000004f0       ?dependencies@Extension@v8@@QEAAPEAPEBDXZ 00000001800014f0 f i binding.obj
 0001:00000500       ?set_auto_enable@Extension@v8@@QEAAX_N@Z 0000000180001500 f i binding.obj
 0001:00000510       ?auto_enable@Extension@v8@@QEAA_NXZ 0000000180001510 f i binding.obj
 0001:00000520       ?max_semi_space_size@ResourceConstraints@v8@@QEBAHXZ 0000000180001520 f i binding.obj
 0001:00000530       ?set_max_semi_space_size@ResourceConstraints@v8@@QEAAXH@Z 0000000180001530 f i binding.obj
 0001:00000540       ?max_old_space_size@ResourceConstraints@v8@@QEBAHXZ 0000000180001540 f i binding.obj
 0001:00000550       ?set_max_old_space_size@ResourceConstraints@v8@@QEAAXH@Z 0000000180001550 f i binding.obj
 0001:00000560       ?set_max_executable_size@ResourceConstraints@v8@@QEAAXH@Z 0000000180001560 f i binding.obj
 0001:00000570       ?set_stack_limit@ResourceConstraints@v8@@QEAAXPEAI@Z 0000000180001570 f i binding.obj
 0001:00000580       ?max_available_threads@ResourceConstraints@v8@@QEBAHXZ 0000000180001580 f i binding.obj
 0001:00000590       ?set_max_available_threads@ResourceConstraints@v8@@QEAAXH@Z 0000000180001590 f i binding.obj
 0001:000005a0       ?used_heap_size@HeapStatistics@v8@@QEAA_KXZ 00000001800015a0 f i binding.obj
 0001:000005a0       ?physical_space_size@HeapSpaceStatistics@v8@@QEAA_KXZ 00000001800015a0 f i binding.obj
 0001:000005a0       ?code_range_size@ResourceConstraints@v8@@QEBA_KXZ 00000001800015a0 f i binding.obj
 0001:000005b0       ?set_code_range_size@ResourceConstraints@v8@@QEAAX_K@Z 00000001800015b0 f i binding.obj
 0001:000005c0       ?space_available_size@HeapSpaceStatistics@v8@@QEAA_KXZ 00000001800015c0 f i binding.obj
 0001:000005c0       ?total_available_size@HeapStatistics@v8@@QEAA_KXZ 00000001800015c0 f i binding.obj
 0001:000005c0       ?object_size@HeapObjectStatistics@v8@@QEAA_KXZ 00000001800015c0 f i binding.obj
 0001:000005d0       ?heap_size_limit@HeapStatistics@v8@@QEAA_KXZ 00000001800015d0 f i binding.obj
 0001:000005e0       ??1PersistentHandleVisitor@v8@@UEAA@XZ 00000001800015e0 f i binding.obj
 0001:000005e0       ??1ExternalResourceVisitor@v8@@UEAA@XZ 00000001800015e0 f i binding.obj
 0001:000005f0       _guard_check_icall_nop     00000001800015f0 f i LIBCMT:guard_support.obj
 0001:000005f0       ?VisitExternalString@ExternalResourceVisitor@v8@@UEAAXV?$Local@VString@v8@@@2@@Z 00000001800015f0 f i binding.obj
 0001:000005f0       __except_validate_context_record 00000001800015f0 f i libvcruntime:jbcxrval.obj
 0001:000005f0       ?VisitPersistentHandle@PersistentHandleVisitor@v8@@UEAAXPEAV?$Persistent@VValue@v8@@V?$NonCopyablePersistentTraits@VValue@v8@@@2@@2@G@Z 00000001800015f0 f i binding.obj
 0001:00000600       ??0Scope@Isolate@v8@@QEAA@PEAV12@@Z 0000000180001600 f i binding.obj
 0001:00000620       ??1Scope@Isolate@v8@@QEAA@XZ 0000000180001620 f i binding.obj
 0001:00000630       ?JSStackComparableAddress@TryCatch@v8@@SAPEAXPEAV12@@Z 0000000180001630 f i binding.obj
 0001:00000640       ??0ExtensionConfiguration@v8@@QEAA@XZ 0000000180001640 f i binding.obj
 0001:00000650       ??0ExtensionConfiguration@v8@@QEAA@HQEAPEBD@Z 0000000180001650 f i binding.obj
 0001:00000660       ?end@ExtensionConfiguration@v8@@QEBAPEAPEBDXZ 0000000180001660 f i binding.obj
 0001:00000670       ??0Unlocker@v8@@QEAA@PEAVIsolate@1@@Z 0000000180001670 f i binding.obj
 0001:00000690       ??0Locker@v8@@QEAA@PEAVIsolate@1@@Z 0000000180001690 f i binding.obj
 0001:000006b0       ?New@Boolean@v8@@SA?AV?$Local@VBoolean@v8@@@2@PEAVIsolate@2@_N@Z 00000001800016b0 f i binding.obj
 0001:000006d0       ?Set@Template@v8@@QEAAXPEAVIsolate@2@PEBDV?$Local@VData@v8@@@2@@Z 00000001800016d0 f i binding.obj
 0001:00000730       ?GetInternalField@Object@v8@@QEAA?AV?$Local@VValue@v8@@@2@H@Z 0000000180001730 f i binding.obj
 0001:00000780       ?GetAlignedPointerFromInternalField@Object@v8@@QEAAPEAXH@Z 0000000180001780 f i binding.obj
 0001:000007b0       ?Empty@String@v8@@SA?AV?$Local@VString@v8@@@2@PEAVIsolate@2@@Z 00000001800017b0 f i binding.obj
 0001:000007c0       ?GetExternalStringResource@String@v8@@QEBAPEAVExternalStringResource@12@XZ 00000001800017c0 f i binding.obj
 0001:000007e0       ?GetExternalStringResourceBase@String@v8@@QEBAPEAVExternalStringResourceBase@12@PEAW4Encoding@12@@Z 00000001800017e0 f i binding.obj
 0001:00000810       ?IsUndefined@Value@v8@@QEBA_NXZ 0000000180001810 f i binding.obj
 0001:00000840       ?QuickIsUndefined@Value@v8@@AEBA_NXZ 0000000180001840 f i binding.obj
 0001:00000870       ?IsNull@Value@v8@@QEBA_NXZ 0000000180001870 f i binding.obj
 0001:000008a0       ?QuickIsNull@Value@v8@@AEBA_NXZ 00000001800018a0 f i binding.obj
 0001:000008d0       ?IsString@Value@v8@@QEBA_NXZ 00000001800018d0 f i binding.obj
 0001:00000900       ?QuickIsString@Value@v8@@AEBA_NXZ 0000000180001900 f i binding.obj
 0001:00000930       ?ToBoolean@Value@v8@@QEBA?AV?$Local@VBoolean@v8@@@2@XZ 0000000180001930 f i binding.obj
 0001:00000980       ?ToNumber@Value@v8@@QEBA?AV?$Local@VNumber@v8@@@2@XZ 0000000180001980 f i binding.obj
 0001:000009d0       ?ToString@Value@v8@@QEBA?AV?$Local@VString@v8@@@2@XZ 00000001800019d0 f i binding.obj
 0001:00000a20       ?ToDetailString@Value@v8@@QEBA?AV?$Local@VString@v8@@@2@XZ 0000000180001a20 f i binding.obj
 0001:00000a70       ?ToObject@Value@v8@@QEBA?AV?$Local@VObject@v8@@@2@XZ 0000000180001a70 f i binding.obj
 0001:00000ac0       ?ToInteger@Value@v8@@QEBA?AV?$Local@VInteger@v8@@@2@XZ 0000000180001ac0 f i binding.obj
 0001:00000b10       ?ToUint32@Value@v8@@QEBA?AV?$Local@VUint32@v8@@@2@XZ 0000000180001b10 f i binding.obj
 0001:00000b60       ?ToInt32@Value@v8@@QEBA?AV?$Local@VInt32@v8@@@2@XZ 0000000180001b60 f i binding.obj
 0001:00000bb0       ?SetData@Isolate@v8@@QEAAXIPEAX@Z 0000000180001bb0 f i binding.obj
 0001:00000bc0       ?GetData@Isolate@v8@@QEAAPEAXI@Z 0000000180001bc0 f i binding.obj
 0001:00000bd0       ?GetNumberOfDataSlots@Isolate@v8@@SAIXZ 0000000180001bd0 f i binding.obj
 0001:00000be0       ?AdjustAmountOfExternalAllocatedMemory@Isolate@v8@@QEAA_J_J@Z 0000000180001be0 f i binding.obj
 0001:00000c40       ?GetEmbedderData@Context@v8@@QEAA?AV?$Local@VValue@v8@@@2@H@Z 0000000180001c40 f i binding.obj
 0001:00000c80       ?GetAlignedPointerFromEmbedderData@Context@v8@@QEAAPEAXH@Z 0000000180001c80 f i binding.obj
 0001:00000ca0       ?SetAllowCodeGenerationFromStringsCallback@V8@v8@@SAXP6A_NV?$Local@VContext@v8@@@2@@Z@Z 0000000180001ca0 f i binding.obj
 0001:00000cd0       ?IsDead@V8@v8@@SA_NXZ      0000000180001cd0 f i binding.obj
 0001:00000cf0       ?AddMessageListener@V8@v8@@SA_NP6AXV?$Local@VMessage@v8@@@2@V?$Local@VValue@v8@@@2@@Z1@Z 0000000180001cf0 f i binding.obj
 0001:00000d20       ?RemoveMessageListeners@V8@v8@@SAXP6AXV?$Local@VMessage@v8@@@2@V?$Local@VValue@v8@@@2@@Z@Z 0000000180001d20 f i binding.obj
 0001:00000d50       ?SetFailedAccessCheckCallbackFunction@V8@v8@@SAXP6AXV?$Local@VObject@v8@@@2@W4AccessType@2@V?$Local@VValue@v8@@@2@@Z@Z 0000000180001d50 f i binding.obj
 0001:00000d80       ?SetCaptureStackTraceForUncaughtExceptions@V8@v8@@SAX_NHW4StackTraceOptions@StackTrace@2@@Z 0000000180001d80 f i binding.obj
 0001:00000dc0       ?SetFatalErrorHandler@V8@v8@@SAXP6AXPEBD0@Z@Z 0000000180001dc0 f i binding.obj
 0001:00000df0       ?RemoveGCPrologueCallback@V8@v8@@SAXP6AXW4GCType@2@W4GCCallbackFlags@2@@Z@Z 0000000180001df0 f i binding.obj
 0001:00000e20       ?RemoveGCEpilogueCallback@V8@v8@@SAXP6AXW4GCType@2@W4GCCallbackFlags@2@@Z@Z 0000000180001e20 f i binding.obj
 0001:00000e50       ?AddMemoryAllocationCallback@V8@v8@@SAXP6AXW4ObjectSpace@2@W4AllocationAction@2@H@Z01@Z 0000000180001e50 f i binding.obj
 0001:00000e90       ?RemoveMemoryAllocationCallback@V8@v8@@SAXP6AXW4ObjectSpace@2@W4AllocationAction@2@H@Z@Z 0000000180001e90 f i binding.obj
 0001:00000ec0       ?TerminateExecution@V8@v8@@SAXPEAVIsolate@2@@Z 0000000180001ec0 f i binding.obj
 0001:00000ed0       ?IsExecutionTerminating@V8@v8@@SA_NPEAVIsolate@2@@Z 0000000180001ed0 f i binding.obj
 0001:00000ef0       ?CancelTerminateExecution@V8@v8@@SAXPEAVIsolate@2@@Z 0000000180001ef0 f i binding.obj
 0001:00000f00       ?VisitExternalResources@V8@v8@@SAXPEAVExternalResourceVisitor@2@@Z 0000000180001f00 f i binding.obj
 0001:00000f30       ?VisitHandlesWithClassIds@V8@v8@@SAXPEAVPersistentHandleVisitor@2@@Z 0000000180001f30 f i binding.obj
 0001:00000f60       ?VisitHandlesWithClassIds@V8@v8@@SAXPEAVIsolate@2@PEAVPersistentHandleVisitor@2@@Z 0000000180001f60 f i binding.obj
 0001:00000f70       ?VisitHandlesForPartialDependence@V8@v8@@SAXPEAVIsolate@2@PEAVPersistentHandleVisitor@2@@Z 0000000180001f70 f i binding.obj
 0001:00000f80       ??_EExternalStringResourceBase@String@v8@@UEAAPEAXI@Z 0000000180001f80 f i binding.obj
 0001:00000f80       ??_EExternalStringResource@String@v8@@UEAAPEAXI@Z 0000000180001f80 f i binding.obj
 0001:00000f80       ??_EExternalOneByteStringResource@String@v8@@UEAAPEAXI@Z 0000000180001f80 f i binding.obj
 0001:00001010       ??0Allocator@ArrayBuffer@v8@@QEAA@AEBV012@@Z 0000000180002010 f i binding.obj
 0001:00001010       ??0Allocator@ArrayBuffer@v8@@QEAA@XZ 0000000180002010 f i binding.obj
 0001:00001020       ??_EAllocator@ArrayBuffer@v8@@UEAAPEAXI@Z 0000000180002020 f i binding.obj
 0001:000010b0       ??4StartupData@v8@@QEAAAEAV01@AEBV01@@Z 00000001800020b0 f i binding.obj
 0001:000010b0       ??4Contents@SharedArrayBuffer@v8@@QEAAAEAV012@AEBV012@@Z 00000001800020b0 f i binding.obj
 0001:000010b0       ??4Contents@ArrayBuffer@v8@@QEAAAEAV012@AEBV012@@Z 00000001800020b0 f i binding.obj
 0001:000010c0       ??4Contents@SharedArrayBuffer@v8@@QEAAAEAV012@$$QEAV012@@Z 00000001800020c0 f i binding.obj
 0001:000010c0       ??4Contents@ArrayBuffer@v8@@QEAAAEAV012@$$QEAV012@@Z 00000001800020c0 f i binding.obj
 0001:000010e0       ??_EExternalOneByteStringResourceImpl@v8@@UEAAPEAXI@Z 00000001800020e0 f i binding.obj
 0001:00001170       ??_EExtension@v8@@UEAAPEAXI@Z 0000000180002170 f i binding.obj
 0001:00001220       ??4HeapSpaceStatistics@v8@@QEAAAEAV01@AEBV01@@Z 0000000180002220 f i binding.obj
 0001:00001220       ??4ResourceConstraints@v8@@QEAAAEAV01@AEBV01@@Z 0000000180002220 f i binding.obj
 0001:00001240       ??4ResourceConstraints@v8@@QEAAAEAV01@$$QEAV01@@Z 0000000180002240 f i binding.obj
 0001:00001270       ??4HeapStatistics@v8@@QEAAAEAV01@AEBV01@@Z 0000000180002270 f i binding.obj
 0001:00001290       ??4HeapStatistics@v8@@QEAAAEAV01@$$QEAV01@@Z 0000000180002290 f i binding.obj
 0001:000012d0       ??4HeapSpaceStatistics@v8@@QEAAAEAV01@$$QEAV01@@Z 00000001800022d0 f i binding.obj
 0001:00001300       ??4HeapObjectStatistics@v8@@QEAAAEAV01@AEBV01@@Z 0000000180002300 f i binding.obj
 0001:00001320       ??4HeapObjectStatistics@v8@@QEAAAEAV01@$$QEAV01@@Z 0000000180002320 f i binding.obj
 0001:00001350       ??0ExternalResourceVisitor@v8@@QEAA@AEBV01@@Z 0000000180002350 f i binding.obj
 0001:00001350       ??0PersistentHandleVisitor@v8@@QEAA@AEBV01@@Z 0000000180002350 f i binding.obj
 0001:00001350       ??0PersistentHandleVisitor@v8@@QEAA@XZ 0000000180002350 f i binding.obj
 0001:00001350       ??0ExternalResourceVisitor@v8@@QEAA@XZ 0000000180002350 f i binding.obj
 0001:00001360       ??_EExternalResourceVisitor@v8@@UEAAPEAXI@Z 0000000180002360 f i binding.obj
 0001:00001360       ??_EPersistentHandleVisitor@v8@@UEAAPEAXI@Z 0000000180002360 f i binding.obj
 0001:000013f0       ??4StartupData@v8@@QEAAAEAV01@$$QEAV01@@Z 00000001800023f0 f i binding.obj
 0001:00001400       ??4Unlocker@v8@@QEAAAEAV01@AEBV01@@Z 0000000180002400 f i binding.obj
 0001:000014c0       ?New@?$Factory@VFunctionTemplate@v8@@@imp@Nan@@SA?AV?$Local@VFunctionTemplate@v8@@@v8@@P6AXAEBV?$FunctionCallbackInfo@VValue@v8@@@3@@ZV?$Local@VValue@v8@@@5@V?$Local@VSignature@v8@@@5@@Z 00000001800024c0 f i binding.obj
 0001:00001650       ??0Callback@Nan@@QEAA@AEBV?$Local@VFunction@v8@@@v8@@@Z 0000000180002650 f i binding.obj
 0001:00001760       ??0AsyncWorker@Nan@@QEAA@PEAVCallback@1@@Z 0000000180002760 f i binding.obj
 0001:00001820       ??1AsyncWorker@Nan@@UEAA@XZ 0000000180002820 f i binding.obj
 0001:000018d0       ?WorkComplete@AsyncWorker@Nan@@UEAAXXZ 00000001800028d0 f i binding.obj
 0001:00001960       ?HandleOKCallback@AsyncWorker@Nan@@MEAAXXZ 0000000180002960 f i binding.obj
 0001:00001a20       ?HandleErrorCallback@AsyncWorker@Nan@@MEAAXXZ 0000000180002a20 f i binding.obj
 0001:00001b70       ??_EAsyncWorker@Nan@@UEAAPEAXI@Z 0000000180002b70 f i * CIL library *:* CIL module *
 0001:00001b70       ??_GAsyncWorker@Nan@@UEAAPEAXI@Z 0000000180002b70 f i binding.obj
 0001:00001bb0       ?AsyncExecute@Nan@@YAXPEAUuv_work_s@@@Z 0000000180002bb0 f i binding.obj
 0001:00001bc0       ?AsyncExecuteComplete@Nan@@YAXPEAUuv_work_s@@@Z 0000000180002bc0 f i binding.obj
 0001:00001c00       ?node_vorbis_info_init@nodevorbis@@YAXAEBV?$FunctionCallbackInfo@VValue@v8@@@Nan@@@Z 0000000180002c00 f   binding.obj
 0001:00001c90       ?node_vorbis_comment_init@nodevorbis@@YAXAEBV?$FunctionCallbackInfo@VValue@v8@@@Nan@@@Z 0000000180002c90 f   binding.obj
 0001:00001d10       ?node_vorbis_synthesis_init@nodevorbis@@YAXAEBV?$FunctionCallbackInfo@VValue@v8@@@Nan@@@Z 0000000180002d10 f   binding.obj
 0001:00001e40       ?node_vorbis_analysis_init@nodevorbis@@YAXAEBV?$FunctionCallbackInfo@VValue@v8@@@Nan@@@Z 0000000180002e40 f   binding.obj
 0001:00001f70       ?node_vorbis_block_init@nodevorbis@@YAXAEBV?$FunctionCallbackInfo@VValue@v8@@@Nan@@@Z 0000000180002f70 f   binding.obj
 0001:000020a0       ?node_vorbis_encode_init_vbr@nodevorbis@@YAXAEBV?$FunctionCallbackInfo@VValue@v8@@@Nan@@@Z 00000001800030a0 f   binding.obj
 0001:00002230       ?node_comment_array@nodevorbis@@YAXAEBV?$FunctionCallbackInfo@VValue@v8@@@Nan@@@Z 0000000180003230 f   binding.obj
 0001:000024b0       ?node_get_format@nodevorbis@@YAXAEBV?$FunctionCallbackInfo@VValue@v8@@@Nan@@@Z 00000001800034b0 f   binding.obj
 0001:00002b40       ?node_vorbis_analysis_headerout@nodevorbis@@YAXAEBV?$FunctionCallbackInfo@VValue@v8@@@Nan@@@Z 0000000180003b40 f   binding.obj
 0001:00002d50       ?Execute@AnalysisWriteWorker@nodevorbis@@UEAAXXZ 0000000180003d50 f i binding.obj
 0001:00002e00       ?HandleOKCallback@AnalysisWriteWorker@nodevorbis@@UEAAXXZ 0000000180003e00 f i binding.obj
 0001:00002e00       ?HandleOKCallback@SynthesisHeaderinWorker@nodevorbis@@UEAAXXZ 0000000180003e00 f i binding.obj
 0001:00002f70       ??_GAnalysisWriteWorker@nodevorbis@@UEAAPEAXI@Z 0000000180003f70 f i binding.obj
 0001:00002f70       ??_EAnalysisWriteWorker@nodevorbis@@UEAAPEAXI@Z 0000000180003f70 f i * CIL library *:* CIL module *
 0001:00002fb0       ?node_vorbis_analysis_write@nodevorbis@@YAXAEBV?$FunctionCallbackInfo@VValue@v8@@@Nan@@@Z 0000000180003fb0 f   binding.obj
 0001:00003170       ?Execute@AnalysisBlockoutWorker@nodevorbis@@UEAAXXZ 0000000180004170 f i binding.obj
 0001:000031a0       ?HandleOKCallback@BitrateFlushpacketWorker@nodevorbis@@UEAAXXZ 00000001800041a0 f i binding.obj
 0001:000031a0       ?HandleOKCallback@AnalysisBlockoutWorker@nodevorbis@@UEAAXXZ 00000001800041a0 f i binding.obj
 0001:00003310       ??_EAnalysisBlockoutWorker@nodevorbis@@UEAAPEAXI@Z 0000000180004310 f i * CIL library *:* CIL module *
 0001:00003310       ??_GAnalysisBlockoutWorker@nodevorbis@@UEAAPEAXI@Z 0000000180004310 f i binding.obj
 0001:00003350       ?node_vorbis_analysis_blockout@nodevorbis@@YAXAEBV?$FunctionCallbackInfo@VValue@v8@@@Nan@@@Z 0000000180004350 f   binding.obj
 0001:000034b0       ?node_vorbis_analysis_eos@nodevorbis@@YAXAEBV?$FunctionCallbackInfo@VValue@v8@@@Nan@@@Z 00000001800044b0 f   binding.obj
 0001:000035a0       ?node_vorbis_analysis@nodevorbis@@YAXAEBV?$FunctionCallbackInfo@VValue@v8@@@Nan@@@Z 00000001800045a0 f   binding.obj
 0001:000036d0       ?node_vorbis_bitrate_addblock@nodevorbis@@YAXAEBV?$FunctionCallbackInfo@VValue@v8@@@Nan@@@Z 00000001800046d0 f   binding.obj
 0001:000037c0       ?Execute@BitrateFlushpacketWorker@nodevorbis@@UEAAXXZ 00000001800047c0 f i binding.obj
 0001:000037f0       ??_GBitrateFlushpacketWorker@nodevorbis@@UEAAPEAXI@Z 00000001800047f0 f i binding.obj
 0001:000037f0       ??_EBitrateFlushpacketWorker@nodevorbis@@UEAAPEAXI@Z 00000001800047f0 f i * CIL library *:* CIL module *
 0001:00003830       ?node_vorbis_bitrate_flushpacket@nodevorbis@@YAXAEBV?$FunctionCallbackInfo@VValue@v8@@@Nan@@@Z 0000000180004830 f   binding.obj
 0001:00003990       ?Execute@SynthesisIdheaderWorker@nodevorbis@@UEAAXXZ 0000000180004990 f i binding.obj
 0001:000039c0       ?HandleOKCallback@SynthesisIdheaderWorker@nodevorbis@@UEAAXXZ 00000001800049c0 f i binding.obj
 0001:00003af0       ??_GSynthesisIdheaderWorker@nodevorbis@@UEAAPEAXI@Z 0000000180004af0 f i binding.obj
 0001:00003af0       ??_ESynthesisIdheaderWorker@nodevorbis@@UEAAPEAXI@Z 0000000180004af0 f i * CIL library *:* CIL module *
 0001:00003b30       ?node_vorbis_synthesis_idheader@nodevorbis@@YAXAEBV?$FunctionCallbackInfo@VValue@v8@@@Nan@@@Z 0000000180004b30 f   binding.obj
 0001:00003c40       ?Execute@SynthesisHeaderinWorker@nodevorbis@@UEAAXXZ 0000000180004c40 f i binding.obj
 0001:00003c70       ??_GSynthesisHeaderinWorker@nodevorbis@@UEAAPEAXI@Z 0000000180004c70 f i binding.obj
 0001:00003c70       ??_ESynthesisHeaderinWorker@nodevorbis@@UEAAPEAXI@Z 0000000180004c70 f i * CIL library *:* CIL module *
 0001:00003cb0       ?node_vorbis_synthesis_headerin@nodevorbis@@YAXAEBV?$FunctionCallbackInfo@VValue@v8@@@Nan@@@Z 0000000180004cb0 f   binding.obj
 0001:00003e50       ?node_vorbis_synthesis@nodevorbis@@YAXAEBV?$FunctionCallbackInfo@VValue@v8@@@Nan@@@Z 0000000180004e50 f   binding.obj
 0001:00003f80       ?node_vorbis_synthesis_blockin@nodevorbis@@YAXAEBV?$FunctionCallbackInfo@VValue@v8@@@Nan@@@Z 0000000180004f80 f   binding.obj
 0001:000040b0       ?node_vorbis_synthesis_pcmout@nodevorbis@@YAXAEBV?$FunctionCallbackInfo@VValue@v8@@@Nan@@@Z 00000001800050b0 f   binding.obj
 0001:000043a0       ?Initialize@nodevorbis@@YAXV?$Local@VObject@v8@@@v8@@@Z 00000001800053a0 f   binding.obj
 0001:00006290       vorbis_block_init          0000000180007290 f   libvorbis:block.obj
 0001:00006330       _vorbis_block_alloc        0000000180007330 f   libvorbis:block.obj
 0001:000063b0       _vorbis_block_ripcord      00000001800073b0 f   libvorbis:block.obj
 0001:00006920       vorbis_analysis_init       0000000180007920 f   libvorbis:block.obj
 0001:000069e0       vorbis_dsp_clear           00000001800079e0 f   libvorbis:block.obj
 0001:00006d70       vorbis_analysis_buffer     0000000180007d70 f   libvorbis:block.obj
 0001:00007010       vorbis_analysis_wrote      0000000180008010 f   libvorbis:block.obj
 0001:00007190       vorbis_analysis_blockout   0000000180008190 f   libvorbis:block.obj
 0001:00007510       vorbis_synthesis_init      0000000180008510 f   libvorbis:block.obj
 0001:000075a0       vorbis_synthesis_blockin   00000001800085a0 f   libvorbis:block.obj
 0001:00008050       vorbis_comment_clear       0000000180009050 f   libvorbis:info.obj
 0001:000080f0       vorbis_info_clear          00000001800090f0 f   libvorbis:info.obj
 0001:00008980       vorbis_synthesis_idheader  0000000180009980 f   libvorbis:info.obj
 0001:00008a60       vorbis_synthesis_headerin  0000000180009a60 f   libvorbis:info.obj
 0001:00009130       vorbis_analysis_headerout  000000018000a130 f   libvorbis:info.obj
 0001:00009410       vorbis_bitrate_init        000000018000a410 f   libvorbis:bitrate.obj
 0001:00009540       vorbis_bitrate_managed     000000018000a540 f   libvorbis:bitrate.obj
 0001:00009560       vorbis_bitrate_addblock    000000018000a560 f   libvorbis:bitrate.obj
 0001:000099f0       vorbis_bitrate_flushpacket 000000018000a9f0 f   libvorbis:bitrate.obj
 0001:00009ac0       vorbis_synthesis           000000018000aac0 f   libvorbis:synthesis.obj
 0001:00009c90       vorbis_analysis            000000018000ac90 f   libvorbis:analysis.obj
 0001:00009d70       vorbis_lpc_from_data       000000018000ad70 f   libvorbis:lpc.obj
 0001:0000a340       vorbis_lpc_predict         000000018000b340 f   libvorbis:lpc.obj
 0001:0000a560       _make_words                000000018000b560 f   libvorbis:sharedbook.obj
 0001:0000a760       _book_maptype1_quantvals   000000018000b760 f   libvorbis:sharedbook.obj
 0001:0000a7f0       _book_unquantize           000000018000b7f0 f   libvorbis:sharedbook.obj
 0001:0000aac0       vorbis_staticbook_destroy  000000018000bac0 f   libvorbis:sharedbook.obj
 0001:0000ab20       vorbis_book_init_encode    000000018000bb20 f   libvorbis:sharedbook.obj
 0001:0000ac40       vorbis_book_init_decode    000000018000bc40 f   libvorbis:sharedbook.obj
 0001:0000b390       _ve_envelope_init          000000018000c390 f   libvorbis:envelope.obj
 0001:0000b6a0       _ve_envelope_clear         000000018000c6a0 f   libvorbis:envelope.obj
 0001:0000beb0       _ve_envelope_search        000000018000ceb0 f   libvorbis:envelope.obj
 0001:0000c180       _ve_envelope_mark          000000018000d180 f   libvorbis:envelope.obj
 0001:0000d090       _vp_psy_init               000000018000e090 f   libvorbis:psy.obj
 0001:0000da70       _vp_psy_clear              000000018000ea70 f   libvorbis:psy.obj
 0001:0000ebe0       _vp_noisemask              000000018000fbe0 f   libvorbis:psy.obj
 0001:0000f0d0       _vp_tonemask               00000001800100d0 f   libvorbis:psy.obj
 0001:0000f330       _vp_offset_and_mix         0000000180010330 f   libvorbis:psy.obj
 0001:0000fdd0       _vp_couple_quantize_normalize 0000000180010dd0 f   libvorbis:psy.obj
 0001:00010b50       mdct_init                  0000000180011b50 f   libvorbis:mdct.obj
 0001:00011a10       mdct_backward              0000000180012a10 f   libvorbis:mdct.obj
 0001:00011de0       mdct_forward               0000000180012de0 f   libvorbis:mdct.obj
 0001:00014e80       _vorbis_apply_window       0000000180015e80 f   libvorbis:window.obj
 0001:00015130       vorbis_staticbook_pack     0000000180016130 f   libvorbis:codebook.obj
 0001:000154c0       vorbis_staticbook_unpack   00000001800164c0 f   libvorbis:codebook.obj
 0001:00015a30       vorbis_book_decodevs_add   0000000180016a30 f   libvorbis:codebook.obj
 0001:00015c30       vorbis_book_decodev_add    0000000180016c30 f   libvorbis:codebook.obj
 0001:00015e40       vorbis_book_decodev_set    0000000180016e40 f   libvorbis:codebook.obj
 0001:000160e0       vorbis_book_decodevv_add   00000001800170e0 f   libvorbis:codebook.obj
 0001:000186d0       res0_free_info             00000001800196d0 f   libvorbis:res0.obj
 0001:00018700       res0_free_look             0000000180019700 f   libvorbis:res0.obj
 0001:000187d0       res0_pack                  00000001800197d0 f   libvorbis:res0.obj
 0001:00018920       res0_unpack                0000000180019920 f   libvorbis:res0.obj
 0001:00018b20       res0_look                  0000000180019b20 f   libvorbis:res0.obj
 0001:000199c0       res0_inverse               000000018001a9c0 f   libvorbis:res0.obj
 0001:00019a30       res1_forward               000000018001aa30 f   libvorbis:res0.obj
 0001:00019ab0       res1_class                 000000018001aab0 f   libvorbis:res0.obj
 0001:00019ec0       res1_inverse               000000018001aec0 f   libvorbis:res0.obj
 0001:00019f30       res2_class                 000000018001af30 f   libvorbis:res0.obj
 0001:0001a270       res2_forward               000000018001b270 f   libvorbis:res0.obj
 0001:0001a370       res2_inverse               000000018001b370 f   libvorbis:res0.obj
 0001:0001bfa0       floor1_fit                 000000018001cfa0 f   libvorbis:floor1.obj
 0001:0001c630       floor1_interpolate_fit     000000018001d630 f   libvorbis:floor1.obj
 0001:0001c850       floor1_encode              000000018001d850 f   libvorbis:floor1.obj
 0001:0001d530       vorbis_lsp_to_curve        000000018001e530 f   libvorbis:lsp.obj
 0001:0001f960       vorbis_encode_setup_init   0000000180020960 f   libvorbisenc:vorbisenc.obj
 0001:00020350       vorbis_encode_setup_vbr    0000000180021350 f   libvorbisenc:vorbisenc.obj
 0001:00020400       __imp_load_uv_queue_work   0000000180021400 f   node:node.exe
 0001:0002040c       __tailMerge_node_exe       000000018002140c f i node:node.exe
 0001:00020485       __imp_load_?Global@Context@v8@@QEAA?AV?$Local@VObject@v8@@@2@XZ 0000000180021485 f   node:node.exe
 0001:00020491       __imp_load_?Value@External@v8@@QEBAPEAXXZ 0000000180021491 f   node:node.exe
 0001:0002049d       __imp_load_?New@External@v8@@SA?AV?$Local@VExternal@v8@@@2@PEAVIsolate@2@PEAX@Z 000000018002149d f   node:node.exe
 0001:000204a9       __imp_load_?New@Integer@v8@@SA?AV?$Local@VInteger@v8@@@2@PEAVIsolate@2@H@Z 00000001800214a9 f   node:node.exe
 0001:000204b5       __imp_load_?CollectAllGarbage@Isolate@v8@@AEAAXPEBD@Z 00000001800214b5 f   node:node.exe
 0001:000204c1       __imp_load_?VisitHandlesForPartialDependence@Isolate@v8@@QEAAXPEAVPersistentHandleVisitor@2@@Z 00000001800214c1 f   node:node.exe
 0001:000204cd       __imp_load_?VisitHandlesWithClassIds@Isolate@v8@@QEAAXPEAVPersistentHandleVisitor@2@@Z 00000001800214cd f   node:node.exe
 0001:000204d9       __imp_load_?VisitExternalResources@Isolate@v8@@QEAAXPEAVExternalResourceVisitor@2@@Z 00000001800214d9 f   node:node.exe
 0001:000204e5       __imp_load_?RemoveMemoryAllocationCallback@Isolate@v8@@QEAAXP6AXW4ObjectSpace@2@W4AllocationAction@2@H@Z@Z 00000001800214e5 f   node:node.exe
 0001:000204f1       __imp_load_?AddMemoryAllocationCallback@Isolate@v8@@QEAAXP6AXW4ObjectSpace@2@W4AllocationAction@2@H@Z01@Z 00000001800214f1 f   node:node.exe
 0001:000204fd       __imp_load_?SetCaptureStackTraceForUncaughtExceptions@Isolate@v8@@QEAAX_NHW4StackTraceOptions@StackTrace@2@@Z 00000001800214fd f   node:node.exe
 0001:00020509       __imp_load_?SetFailedAccessCheckCallbackFunction@Isolate@v8@@QEAAXP6AXV?$Local@VObject@v8@@@2@W4AccessType@2@V?$Local@VValue@v8@@@2@@Z@Z 0000000180021509 f   node:node.exe
 0001:00020515       __imp_load_?RemoveMessageListeners@Isolate@v8@@QEAAXP6AXV?$Local@VMessage@v8@@@2@V?$Local@VValue@v8@@@2@@Z@Z 0000000180021515 f   node:node.exe
 0001:00020521       __imp_load_?AddMessageListener@Isolate@v8@@QEAA_NP6AXV?$Local@VMessage@v8@@@2@V?$Local@VValue@v8@@@2@@Z1@Z 0000000180021521 f   node:node.exe
 0001:0002052d       __imp_load_?IsDead@Isolate@v8@@QEAA_NXZ 000000018002152d f   node:node.exe
 0001:00020539       __imp_load_?SetAllowCodeGenerationFromStringsCallback@Isolate@v8@@QEAAXP6A_NV?$Local@VContext@v8@@@2@@Z@Z 0000000180021539 f   node:node.exe
 0001:00020545       __imp_load_?SetFatalErrorHandler@Isolate@v8@@QEAAXP6AXPEBD0@Z@Z 0000000180021545 f   node:node.exe
 0001:00020551       __imp_load_?CancelTerminateExecution@Isolate@v8@@QEAAXXZ 0000000180021551 f   node:node.exe
 0001:0002055d       __imp_load_?IsExecutionTerminating@Isolate@v8@@QEAA_NXZ 000000018002155d f   node:node.exe
 0001:00020569       __imp_load_?TerminateExecution@Isolate@v8@@QEAAXXZ 0000000180021569 f   node:node.exe
 0001:00020575       __imp_load_?RemoveGCEpilogueCallback@Isolate@v8@@QEAAXP6AXPEAV12@W4GCType@2@W4GCCallbackFlags@2@@Z@Z 0000000180021575 f   node:node.exe
 0001:00020581       __imp_load_?RemoveGCPrologueCallback@Isolate@v8@@QEAAXP6AXPEAV12@W4GCType@2@W4GCCallbackFlags@2@@Z@Z 0000000180021581 f   node:node.exe
 0001:0002058d       __imp_load_?GetCurrentContext@Isolate@v8@@QEAA?AV?$Local@VContext@v8@@@2@XZ 000000018002158d f   node:node.exe
 0001:00020599       __imp_load_?Exit@Isolate@v8@@QEAAXXZ 0000000180021599 f   node:node.exe
 0001:000205a5       __imp_load_?Enter@Isolate@v8@@QEAAXXZ 00000001800215a5 f   node:node.exe
 0001:000205b1       __imp_load_?GetCurrent@Isolate@v8@@SAPEAV12@XZ 00000001800215b1 f   node:node.exe
 0001:000205bd       __imp_load_?ResetToBookmark@ExternalSourceStream@ScriptCompiler@v8@@UEAAXXZ 00000001800215bd f   node:node.exe
 0001:000205c9       ?ResetToBookmark@ExternalSourceStream@ScriptCompiler@v8@@UEAAXXZ 00000001800215c9 f   node:node.exe
 0001:000205cf       __imp_load_?SetBookmark@ExternalSourceStream@ScriptCompiler@v8@@UEAA_NXZ 00000001800215cf f   node:node.exe
 0001:000205db       ?SetBookmark@ExternalSourceStream@ScriptCompiler@v8@@UEAA_NXZ 00000001800215db f   node:node.exe
 0001:000205e1       __imp_load_?CreateHandle@HandleScope@v8@@KAPEAPEAVObject@internal@2@PEAVIsolate@42@PEAV342@@Z 00000001800215e1 f   node:node.exe
 0001:000205ed       __imp_load_?CreateHandle@HandleScope@v8@@CAPEAPEAVObject@internal@2@PEAVHeapObject@42@PEAV342@@Z 00000001800215ed f   node:node.exe
 0001:000205f9       __imp_load_??1HandleScope@v8@@QEAA@XZ 00000001800215f9 f   node:node.exe
 0001:00020605       __imp_load_??0HandleScope@v8@@QEAA@PEAVIsolate@1@@Z 0000000180021605 f   node:node.exe
 0001:00020611       __imp_load_?Set@Template@v8@@QEAAXV?$Local@VName@v8@@@2@V?$Local@VData@v8@@@2@W4PropertyAttribute@2@@Z 0000000180021611 f   node:node.exe
 0001:0002061d       __imp_load_?Error@Exception@v8@@SA?AV?$Local@VValue@v8@@@2@V?$Local@VString@v8@@@2@@Z 000000018002161d f   node:node.exe
 0001:00020629       __imp_load_?Initialize@Locker@v8@@AEAAXPEAVIsolate@2@@Z 0000000180021629 f   node:node.exe
 0001:00020635       __imp_load_?New@Array@v8@@SA?AV?$Local@VArray@v8@@@2@PEAVIsolate@2@H@Z 0000000180021635 f   node:node.exe
 0001:00020641       __imp_load_?GetId@UnboundScript@v8@@QEAAHXZ 0000000180021641 f   node:node.exe
 0001:0002064d       __imp_load_?Initialize@Unlocker@v8@@AEAAXPEAVIsolate@2@@Z 000000018002164d f   node:node.exe
 0001:00020659       __imp_load_?GetFunction@FunctionTemplate@v8@@QEAA?AV?$MaybeLocal@VFunction@v8@@@2@V?$Local@VContext@v8@@@2@@Z 0000000180021659 f   node:node.exe
 0001:00020665       __imp_load_?New@FunctionTemplate@v8@@SA?AV?$Local@VFunctionTemplate@v8@@@2@PEAVIsolate@2@P6AXAEBV?$FunctionCallbackInfo@VValue@v8@@@2@@ZV?$Local@VValue@v8@@@2@V?$Local@VSignature@v8@@@2@H@Z 0000000180021665 f   node:node.exe
 0001:00020671       __imp_load_?ToLocalEmpty@V8@v8@@CAXXZ 0000000180021671 f   node:node.exe
 0001:0002067d       __imp_load_?DisposeGlobal@V8@v8@@CAXPEAPEAVObject@internal@2@@Z 000000018002167d f   node:node.exe
 0001:00020689       __imp_load_?GlobalizeReference@V8@v8@@CAPEAPEAVObject@internal@2@PEAVIsolate@42@PEAPEAV342@@Z 0000000180021689 f   node:node.exe
 0001:00020695       __imp_load_?Int32Value@Value@v8@@QEBAHXZ 0000000180021695 f   node:node.exe
 0001:000206a1       __imp_load_?IntegerValue@Value@v8@@QEBA_JXZ 00000001800216a1 f   node:node.exe
 0001:000206ad       __imp_load_?NumberValue@Value@v8@@QEBANXZ 00000001800216ad f   node:node.exe
 0001:000206b9       __imp_load_?ToInt32@Value@v8@@QEBA?AV?$MaybeLocal@VInt32@v8@@@2@V?$Local@VContext@v8@@@2@@Z 00000001800216b9 f   node:node.exe
 0001:000206c5       __imp_load_?ToUint32@Value@v8@@QEBA?AV?$MaybeLocal@VUint32@v8@@@2@V?$Local@VContext@v8@@@2@@Z 00000001800216c5 f   node:node.exe
 0001:000206d1       __imp_load_?ToInteger@Value@v8@@QEBA?AV?$MaybeLocal@VInteger@v8@@@2@V?$Local@VContext@v8@@@2@@Z 00000001800216d1 f   node:node.exe
 0001:000206dd       __imp_load_?ToObject@Value@v8@@QEBA?AV?$MaybeLocal@VObject@v8@@@2@V?$Local@VContext@v8@@@2@@Z 00000001800216dd f   node:node.exe
 0001:000206e9       __imp_load_?ToDetailString@Value@v8@@QEBA?AV?$MaybeLocal@VString@v8@@@2@V?$Local@VContext@v8@@@2@@Z 00000001800216e9 f   node:node.exe
 0001:000206f5       __imp_load_?ToString@Value@v8@@QEBA?AV?$MaybeLocal@VString@v8@@@2@V?$Local@VContext@v8@@@2@@Z 00000001800216f5 f   node:node.exe
 0001:00020701       __imp_load_?ToNumber@Value@v8@@QEBA?AV?$MaybeLocal@VNumber@v8@@@2@V?$Local@VContext@v8@@@2@@Z 0000000180021701 f   node:node.exe
 0001:0002070d       __imp_load_?ToBoolean@Value@v8@@QEBA?AV?$MaybeLocal@VBoolean@v8@@@2@V?$Local@VContext@v8@@@2@@Z 000000018002170d f   node:node.exe
 0001:00020719       __imp_load_?Escape@EscapableHandleScope@v8@@AEAAPEAPEAVObject@internal@2@PEAPEAV342@@Z 0000000180021719 f   node:node.exe
 0001:00020725       __imp_load_??0EscapableHandleScope@v8@@QEAA@PEAVIsolate@1@@Z 0000000180021725 f   node:node.exe
 0001:00020731       __imp_load_?GetUnboundScript@Script@v8@@QEAA?AV?$Local@VUnboundScript@v8@@@2@XZ 0000000180021731 f   node:node.exe
 0001:0002073d       __imp_load_?NewFromUtf8@String@v8@@SA?AV?$MaybeLocal@VString@v8@@@2@PEAVIsolate@2@PEBDW4NewStringType@2@H@Z 000000018002173d f   node:node.exe
 0001:00020749       __imp_load_?New@Number@v8@@SA?AV?$Local@VNumber@v8@@@2@PEAVIsolate@2@N@Z 0000000180021749 f   node:node.exe
 0001:00020755       __imp_load_?SlowGetAlignedPointerFromInternalField@Object@v8@@AEAAPEAXH@Z 0000000180021755 f   node:node.exe
 0001:00020761       __imp_load_?SlowGetInternalField@Object@v8@@AEAA?AV?$Local@VValue@v8@@@2@H@Z 0000000180021761 f   node:node.exe
 0001:0002076d       __imp_load_?New@Object@v8@@SA?AV?$Local@VObject@v8@@@2@PEAVIsolate@2@@Z 000000018002176d f   node:node.exe
 0001:00020779       __imp_load_?SetInternalField@Object@v8@@QEAAXHV?$Local@VValue@v8@@@2@@Z 0000000180021779 f   node:node.exe
 0001:00020785       __imp_load_?InternalFieldCount@Object@v8@@QEAAHXZ 0000000180021785 f   node:node.exe
 0001:00020791       __imp_load_?Get@Object@v8@@QEAA?AV?$Local@VValue@v8@@@2@I@Z 0000000180021791 f   node:node.exe
 0001:0002079d       __imp_load_?ForceSet@Object@v8@@QEAA?AV?$Maybe@_N@2@V?$Local@VContext@v8@@@2@V?$Local@VValue@v8@@@2@1W4PropertyAttribute@2@@Z 000000018002179d f   node:node.exe
 0001:000207a9       __imp_load_?Set@Object@v8@@QEAA_NV?$Local@VValue@v8@@@2@0@Z 00000001800217a9 f   node:node.exe
 0001:000207b5       __imp_load_?Set@Object@v8@@QEAA?AV?$Maybe@_N@2@V?$Local@VContext@v8@@@2@V?$Local@VValue@v8@@@2@1@Z 00000001800217b5 f   node:node.exe
 0001:000207c1       __imp_load_?Set@Object@v8@@QEAA?AV?$Maybe@_N@2@V?$Local@VContext@v8@@@2@IV?$Local@VValue@v8@@@2@@Z 00000001800217c1 f   node:node.exe
 0001:000207cd       __imp_load_?SetName@Function@v8@@QEAAXV?$Local@VString@v8@@@2@@Z 00000001800217cd f   node:node.exe
 0001:000207d9       __imp_load_?NewInstance@Function@v8@@QEBA?AV?$MaybeLocal@VObject@v8@@@2@V?$Local@VContext@v8@@@2@HQEAV?$Local@VValue@v8@@@2@@Z 00000001800217d9 f   node:node.exe
 0001:000207e5       __imp_load_?SetInternalFieldCount@ObjectTemplate@v8@@QEAAXH@Z 00000001800217e5 f   node:node.exe
 0001:000207f1       __imp_load_?SetHandler@ObjectTemplate@v8@@QEAAXAEBUIndexedPropertyHandlerConfiguration@2@@Z 00000001800217f1 f   node:node.exe
 0001:000207fd       __imp_load_?NewInstance@ObjectTemplate@v8@@QEAA?AV?$MaybeLocal@VObject@v8@@@2@V?$Local@VContext@v8@@@2@@Z 00000001800217fd f   node:node.exe
 0001:00020809       __imp_load_?New@ObjectTemplate@v8@@SA?AV?$Local@VObjectTemplate@v8@@@2@PEAVIsolate@2@V?$Local@VFunctionTemplate@v8@@@2@@Z 0000000180021809 f   node:node.exe
 0001:00020815       __imp_load_node_module_register 0000000180021815 f   node:node.exe
 0001:00020821       __imp_load_?HasInstance@Buffer@node@@YA_NV?$Local@VValue@v8@@@v8@@@Z 0000000180021821 f   node:node.exe
 0001:0002082d       __imp_load_?New@Buffer@node@@YA?AV?$MaybeLocal@VObject@v8@@@v8@@PEAVIsolate@4@_K@Z 000000018002182d f   node:node.exe
 0001:00020839       __imp_load_?Data@Buffer@node@@YAPEADV?$Local@VObject@v8@@@v8@@@Z 0000000180021839 f   node:node.exe
 0001:00020845       __imp_load_?MakeCallback@node@@YA?AV?$Local@VValue@v8@@@v8@@PEAVIsolate@3@V?$Local@VObject@v8@@@3@V?$Local@VFunction@v8@@@3@HPEAV23@@Z 0000000180021845 f   node:node.exe
 0001:00020851       __imp_load_uv_default_loop 0000000180021851 f   node:node.exe
 0001:00020870       __security_check_cookie    0000000180021870 f   LIBCMT:_amdsecgs_.obj
 0001:00020894       ??_V@YAXPEAX_K@Z           0000000180021894 f   LIBCMT:delete_array_size.obj
 0001:0002089c       ??2@YAPEAX_K@Z             000000018002189c f   LIBCMT:new_scalar.obj
 0001:000208d8       ??3@YAXPEAX@Z              00000001800218d8 f   LIBCMT:delete_scalar.obj
 0001:000208e0       ??_V@YAXPEAX@Z             00000001800218e0 f   LIBCMT:delete_array.obj
 0001:000208e0       ??3@YAXPEAX_K@Z            00000001800218e0 f   LIBCMT:delete_scalar_size.obj
 0001:00020c58       _DllMainCRTStartup         0000000180021c58 f   LIBCMT:dll_dllmain.obj
 0001:00020c98       __raise_securityfailure    0000000180021c98 f   LIBCMT:gs_report.obj
 0001:00020ccc       __report_gsfailure         0000000180021ccc f   LIBCMT:gs_report.obj
 0001:00020da0       __report_rangecheckfailure 0000000180021da0 f   LIBCMT:gs_report.obj
 0001:00020db4       __report_securityfailure   0000000180021db4 f   LIBCMT:gs_report.obj
 0001:00020f34       ??0bad_alloc@std@@QEAA@AEBV01@@Z 0000000180021f34 f i LIBCMT:throw_bad_alloc.obj
 0001:00020f74       ??0bad_alloc@std@@QEAA@XZ  0000000180021f74 f i LIBCMT:throw_bad_alloc.obj
 0001:00020f94       ??0bad_array_new_length@std@@QEAA@AEBV01@@Z 0000000180021f94 f i LIBCMT:throw_bad_alloc.obj
 0001:00020fd4       ??0bad_array_new_length@std@@QEAA@XZ 0000000180021fd4 f i LIBCMT:throw_bad_alloc.obj
 0001:00020ff4       ??0exception@std@@QEAA@AEBV01@@Z 0000000180021ff4 f i LIBCMT:throw_bad_alloc.obj
 0001:0002102c       ??1bad_alloc@std@@UEAA@XZ  000000018002202c f i LIBCMT:throw_bad_alloc.obj
 0001:0002102c       ??1bad_array_new_length@std@@UEAA@XZ 000000018002202c f i LIBCMT:throw_bad_alloc.obj
 0001:00021040       ??_Gbad_alloc@std@@UEAAPEAXI@Z 0000000180022040 f i LIBCMT:throw_bad_alloc.obj
 0001:00021040       ??_Eexception@std@@UEAAPEAXI@Z 0000000180022040 f i LIBCMT:throw_bad_alloc.obj
 0001:00021040       ??_Ebad_array_new_length@std@@UEAAPEAXI@Z 0000000180022040 f i LIBCMT:throw_bad_alloc.obj
 0001:00021040       ??_Ebad_alloc@std@@UEAAPEAXI@Z 0000000180022040 f i LIBCMT:throw_bad_alloc.obj
 0001:00021040       ??_Gexception@std@@UEAAPEAXI@Z 0000000180022040 f i LIBCMT:throw_bad_alloc.obj
 0001:00021040       ??_Gbad_array_new_length@std@@UEAAPEAXI@Z 0000000180022040 f i LIBCMT:throw_bad_alloc.obj
 0001:00021084       ?__scrt_throw_std_bad_alloc@@YAXXZ 0000000180022084 f   LIBCMT:throw_bad_alloc.obj
 0001:000210a4       ?__scrt_throw_std_bad_array_new_length@@YAXXZ 00000001800220a4 f   LIBCMT:throw_bad_alloc.obj
 0001:000210c4       ?what@exception@std@@UEBAPEBDXZ 00000001800220c4 f i LIBCMT:throw_bad_alloc.obj
 0001:000210d8       __scrt_acquire_startup_lock 00000001800220d8 f   LIBCMT:utility.obj
 0001:00021114       __scrt_dllmain_after_initialize_c 0000000180022114 f   LIBCMT:utility.obj
 0001:00021148       __scrt_dllmain_before_initialize_c 0000000180022148 f   LIBCMT:utility.obj
 0001:00021160       __scrt_dllmain_crt_thread_attach 0000000180022160 f   LIBCMT:utility.obj
 0001:00021188       __scrt_dllmain_crt_thread_detach 0000000180022188 f   LIBCMT:utility.obj
 0001:000211a0       __scrt_dllmain_exception_filter 00000001800221a0 f   LIBCMT:utility.obj
 0001:00021204       __scrt_dllmain_uninitialize_c 0000000180022204 f   LIBCMT:utility.obj
 0001:00021234       __scrt_dllmain_uninitialize_critical 0000000180022234 f   LIBCMT:utility.obj
 0001:00021248       __scrt_initialize_crt      0000000180022248 f   LIBCMT:utility.obj
 0001:00021294       __scrt_initialize_onexit_tables 0000000180022294 f   LIBCMT:utility.obj
 0001:00021360       __scrt_is_nonwritable_in_current_image 0000000180022360 f   LIBCMT:utility.obj
 0001:000213fc       __scrt_release_startup_lock 00000001800223fc f   LIBCMT:utility.obj
 0001:00021420       __scrt_uninitialize_crt    0000000180022420 f   LIBCMT:utility.obj
 0001:0002144c       _onexit                    000000018002244c f   LIBCMT:utility.obj
 0001:0002149c       atexit                     000000018002249c f   LIBCMT:utility.obj
 0001:000214b4       __security_init_cookie     00000001800224b4 f   LIBCMT:gs_support.obj
 0001:00021560       ?__scrt_initialize_type_info@@YAXXZ 0000000180022560 f   LIBCMT:tncleanup.obj
 0001:00021570       ?__scrt_uninitialize_type_info@@YAXXZ 0000000180022570 f   LIBCMT:tncleanup.obj
 0001:0002157c       __local_stdio_printf_options 000000018002257c f i LIBCMT:default_local_stdio_options.obj
 0001:00021584       __local_stdio_scanf_options 0000000180022584 f i LIBCMT:default_local_stdio_options.obj
 0001:0002158c       __scrt_initialize_default_local_stdio_options 000000018002258c f   LIBCMT:default_local_stdio_options.obj
 0001:000215a8       __scrt_get_dyn_tls_init_callback 00000001800225a8 f   LIBCMT:dyn_tls_init.obj
 0001:000215b0       __crt_debugger_hook        00000001800225b0 f   LIBCMT:utility_desktop.obj
 0001:000215b8       __scrt_fastfail            00000001800225b8 f   LIBCMT:utility_desktop.obj
 0001:00021700       _RTC_Initialize            0000000180022700 f   LIBCMT:_initsect_.obj
 0001:0002174c       _RTC_Terminate             000000018002274c f   LIBCMT:_initsect_.obj
 0001:00021798       _guard_check_icall         0000000180022798 f i LIBCMT:checkcfg.obj
 0001:000217a0       ??_Etype_info@@UEAAPEAXI@Z 00000001800227a0 f i LIBCMT:std_type_info_static.obj
 0001:000217a0       ??_Gtype_info@@UEAAPEAXI@Z 00000001800227a0 f i LIBCMT:std_type_info_static.obj
 0001:000217cc       __isa_available_init       00000001800227cc f   LIBCMT:_cpu_disp_.obj
 0001:00021990       DllMain                    0000000180022990 f   LIBCMT:dll_dllmain_stub.obj
 0001:00021990       _get_startup_argv_mode     0000000180022990 f   LIBCMT:argv_mode.obj
 0001:00021998       __scrt_is_ucrt_dll_in_use  0000000180022998 f   LIBCMT:ucrt_detection.obj
 0001:000219b0       _purecall                  00000001800229b0 f   libvcruntime:purevirt.obj
 0001:00021a00       memcpy                     0000000180022a00 f   libvcruntime:memcpy.obj
 0001:00021a00       memmove                    0000000180022a00 f   libvcruntime:memcpy.obj
 0001:00021e3c       __telemetry_main_invoke_trigger 0000000180022e3c f   libvcruntime:telemetry.obj
 0001:00021f54       __telemetry_main_return_trigger 0000000180022f54 f   libvcruntime:telemetry.obj
 0001:0002206c       __vcrt_initialize_telemetry_provider 000000018002306c f   libvcruntime:telemetry.obj
 0001:00022080       __vcrt_uninitialize_telemetry_provider 0000000180023080 f   libvcruntime:telemetry.obj
 0001:000220a0       __C_specific_handler       00000001800230a0 f   libvcruntime:_chandler_.obj
 0001:0002229c       __std_exception_copy       000000018002329c f   libvcruntime:std_exception.obj
 0001:0002232c       __std_exception_destroy    000000018002332c f   libvcruntime:std_exception.obj
 0001:00022354       _CxxThrowException         0000000180023354 f   libvcruntime:throw.obj
 0001:0002242c       __vcrt_initialize          000000018002342c f   libvcruntime:initialization.obj
 0001:00022464       __vcrt_thread_attach       0000000180023464 f   libvcruntime:initialization.obj
 0001:00022478       __vcrt_thread_detach       0000000180023478 f   libvcruntime:initialization.obj
 0001:0002248c       __vcrt_uninitialize        000000018002348c f   libvcruntime:initialization.obj
 0001:000224b8       __vcrt_uninitialize_critical 00000001800234b8 f   libvcruntime:initialization.obj
 0001:000224c8       __std_type_info_destroy_list 00000001800234c8 f   libvcruntime:std_type_info.obj
 0001:00022510       memset                     0000000180023510 f   libvcruntime:memset.obj
 0001:000226b0       __vcrt_initialize_pure_virtual_call_handler 00000001800236b0 f   libvcruntime:purevirt_data.obj
 0001:0002289c       __vcrt_EventRegister       000000018002389c f   libvcruntime:winapi_downlevel.obj
 0001:00022920       __vcrt_EventSetInformation 0000000180023920 f   libvcruntime:winapi_downlevel.obj
 0001:000229a4       __vcrt_EventUnregister     00000001800239a4 f   libvcruntime:winapi_downlevel.obj
 0001:000229f8       __vcrt_EventWriteTransfer  00000001800239f8 f   libvcruntime:winapi_downlevel.obj
 0001:00022a90       __vcrt_FlsAlloc            0000000180023a90 f   libvcruntime:winapi_downlevel.obj
 0001:00022ae4       __vcrt_FlsFree             0000000180023ae4 f   libvcruntime:winapi_downlevel.obj
 0001:00022b38       __vcrt_FlsGetValue         0000000180023b38 f   libvcruntime:winapi_downlevel.obj
 0001:00022b8c       __vcrt_FlsSetValue         0000000180023b8c f   libvcruntime:winapi_downlevel.obj
 0001:00022bf4       __vcrt_InitializeCriticalSectionEx 0000000180023bf4 f   libvcruntime:winapi_downlevel.obj
 0001:00022c6c       __vcrt_initialize_winapi_thunks 0000000180023c6c f   libvcruntime:winapi_downlevel.obj
 0001:00022ca4       __vcrt_uninitialize_winapi_thunks 0000000180023ca4 f   libvcruntime:winapi_downlevel.obj
 0001:00022d00       _local_unwind              0000000180023d00 f   libvcruntime:_jmpuwind_.obj
 0001:00022d30       _NLG_Notify                0000000180023d30 f   libvcruntime:_jmpuwind_.obj
 0001:00022d50       __NLG_Dispatch2            0000000180023d50 f   libvcruntime:_jmpuwind_.obj
 0001:00022d60       __NLG_Return2              0000000180023d60 f   libvcruntime:_jmpuwind_.obj
 0001:00022d64       __vcrt_freefls             0000000180023d64 f   libvcruntime:per_thread_data.obj
 0001:00022d84       __vcrt_freeptd             0000000180023d84 f   libvcruntime:per_thread_data.obj
 0001:00022dd4       __vcrt_getptd_noexit       0000000180023dd4 f   libvcruntime:per_thread_data.obj
 0001:00022e8c       __vcrt_initialize_ptd      0000000180023e8c f   libvcruntime:per_thread_data.obj
 0001:00022ecc       __vcrt_uninitialize_ptd    0000000180023ecc f   libvcruntime:per_thread_data.obj
 0001:00022ef0       __vcrt_initialize_locks    0000000180023ef0 f   libvcruntime:locks.obj
 0001:00022f38       __vcrt_uninitialize_locks  0000000180023f38 f   libvcruntime:locks.obj
 0001:00023958       ??$ftprintf@PEAU_iobuf@@PEB_WAEBQEB_WAEBQEB_WAEBI@?$__crt_char_traits@_W@@SAH$$QEAPEAU_iobuf@@$$QEAPEB_WAEBQEB_W2AEBI@Z 0000000180024958 f i libucrt:assert.obj
 0001:00023980       _wassert                   0000000180024980 f   libucrt:assert.obj
 0001:00023a04       fwprintf                   0000000180024a04 f i libucrt:assert.obj
 0001:00023a48       swprintf                   0000000180024a48 f i libucrt:assert.obj
 0001:00023a9c       ??0_LocaleUpdate@@QEAA@QEAU__crt_locale_pointers@@@Z 0000000180024a9c f i libucrt:stricmp.obj
 0001:00023b2c       __ascii_stricmp            0000000180024b2c f   libucrt:stricmp.obj
 0001:00023b68       _stricmp                   0000000180024b68 f   libucrt:stricmp.obj
 0001:00023bb0       _stricmp_l                 0000000180024bb0 f   libucrt:stricmp.obj
 0001:00023c64       calloc                     0000000180024c64 f   libucrt:calloc.obj
 0001:00023c6c       realloc                    0000000180024c6c f   libucrt:realloc.obj
 0001:00023c74       free                       0000000180024c74 f   libucrt:free.obj
 0001:00023c7c       malloc                     0000000180024c7c f   libucrt:malloc.obj
 0001:00023cd4       _tolower_l                 0000000180024cd4 f   libucrt:tolower_toupper.obj
 0001:00023e14       tolower                    0000000180024e14 f   libucrt:tolower_toupper.obj
 0001:00023f10       qsort                      0000000180024f10 f   libucrt:qsort.obj
 0001:00024244       ldexp                      0000000180025244 f   libucrt:ldexp.obj
 0001:000245e8       __acrt_initialize_thread_local_exit_callback 00000001800255e8 f   libucrt:exit.obj
 0001:000245f0       _cexit                     00000001800255f0 f   libucrt:exit.obj
 0001:00024600       _exit                      0000000180025600 f   libucrt:exit.obj
 0001:0002460c       _is_c_termination_complete 000000018002560c f   libucrt:exit.obj
 0001:00024614       exit                       0000000180025614 f   libucrt:exit.obj
 0001:00024620       __acrt_initialize_new_handler 0000000180025620 f   libucrt:new_handler.obj
 0001:00024628       _callnewh                  0000000180025628 f   libucrt:new_handler.obj
 0001:00024668       _query_new_handler         0000000180025668 f   libucrt:new_handler.obj
 0001:0002469c       _initterm                  000000018002569c f   libucrt:initterm.obj
 0001:00024714       _initterm_e                0000000180025714 f   libucrt:initterm.obj
 0001:00024760       _seh_filter_dll            0000000180025760 f   libucrt:exception_filter.obj
 0001:00024774       _seh_filter_exe            0000000180025774 f   libucrt:exception_filter.obj
 0001:00024ac0       __acrt_allocate_buffer_for_argv 0000000180025ac0 f   libucrt:argv_parsing.obj
 0001:00024b24       _configure_narrow_argv     0000000180025b24 f   libucrt:argv_parsing.obj
 0001:00024e80       __dcrt_uninitialize_environments_nolock 0000000180025e80 f   libucrt:environment_initialization.obj
 0001:00024eb8       _initialize_narrow_environment 0000000180025eb8 f   libucrt:environment_initialization.obj
 0001:00024ec0       ??$?RV<lambda_b8c45f8f788dd370798f47cfe8ac3a86>@@AEAV<lambda_4e60a939b0d047cfe11ddc22648dfba9>@@V<lambda_332c3edc96d0294ec56c57d38c1cdfd5>@@@?$__crt_seh_guarded_call@H@@QEAAH$$QEAV<lambda_b8c45f8f788dd370798f47cfe8ac3a86>@@AEAV<lambda_4e60a939b0d047cfe11ddc22648dfba9>@@$$QEAV<lambda_332c3edc96d0294ec56c57d38c1cdfd5>@@@Z 0000000180025ec0 f i libucrt:onexit.obj
 0001:00024efc       ??$?RV<lambda_e24bbb7b643b32fcea6fa61b31d4c984>@@AEAV<lambda_275893d493268fdec8709772e3fcec0e>@@V<lambda_9d71df4d7cf3f480f8d633942495c3b0>@@@?$__crt_seh_guarded_call@H@@QEAAH$$QEAV<lambda_e24bbb7b643b32fcea6fa61b31d4c984>@@AEAV<lambda_275893d493268fdec8709772e3fcec0e>@@$$QEAV<lambda_9d71df4d7cf3f480f8d633942495c3b0>@@@Z 0000000180025efc f i libucrt:onexit.obj
 0001:00025278       _crt_atexit                0000000180026278 f   libucrt:onexit.obj
 0001:00025288       _execute_onexit_table      0000000180026288 f   libucrt:onexit.obj
 0001:000252c4       _initialize_onexit_table   00000001800262c4 f   libucrt:onexit.obj
 0001:00025304       _register_onexit_function  0000000180026304 f   libucrt:onexit.obj
 0001:00025384       __acrt_uninitialize_command_line 0000000180026384 f   libucrt:argv_data.obj
 0001:00025484       __acrt_initialize          0000000180026484 f   libucrt:initialization.obj
 0001:00025498       __acrt_thread_attach       0000000180026498 f   libucrt:initialization.obj
 0001:000254ac       __acrt_thread_detach       00000001800264ac f   libucrt:initialization.obj
 0001:000254bc       __acrt_uninitialize        00000001800264bc f   libucrt:initialization.obj
 0001:000254d0       __acrt_uninitialize_critical 00000001800264d0 f   libucrt:initialization.obj
 0001:000254e0       terminate                  00000001800264e0 f   libucrt:terminate.obj
 0001:00025508       abort                      0000000180026508 f   libucrt:abort.obj
 0001:00025560       strcpy_s                   0000000180026560 f   libucrt:strcpy_s.obj
 0001:000255c0       _free_base                 00000001800265c0 f   libucrt:free_base.obj
 0001:00025600       _malloc_base               0000000180026600 f   libucrt:malloc_base.obj
 0001:00025660       _calloc_base               0000000180026660 f   libucrt:calloc_base.obj
 0001:000256d8       ??$?RV<lambda_7b91131dde12e1c3dfc74ff76b3f2eac>@@AEAV<lambda_dd75445284c072d0bd3768540cc698fa>@@V<lambda_16bc4ecb55b4718497c16bceaea2ceaf>@@@?$__crt_seh_guarded_call@H@@QEAAH$$QEAV<lambda_7b91131dde12e1c3dfc74ff76b3f2eac>@@AEAV<lambda_dd75445284c072d0bd3768540cc698fa>@@$$QEAV<lambda_16bc4ecb55b4718497c16bceaea2ceaf>@@@Z 00000001800266d8 f i libucrt:output.obj
 0001:00025718       ??$ensure_buffer_is_big_enough@D@formatting_buffer@__crt_stdio_output@@QEAA_N_K@Z 0000000180026718 f i libucrt:output.obj
 0001:000257c4       ??$is_wide_character_specifier@_W@__crt_stdio_output@@YA_N_K_WW4length_modifier@0@@Z 00000001800267c4 f i libucrt:output.obj
 0001:00025808       ??$type_case_integer_parse_into_buffer@I@?$output_processor@_WV?$stream_output_adapter@_W@__crt_stdio_output@@V?$standard_base@_WV?$stream_output_adapter@_W@__crt_stdio_output@@@2@@__crt_stdio_output@@AEAAXII_N@Z 0000000180026808 f i libucrt:output.obj
 0001:00025808       ??$type_case_integer_parse_into_buffer@I@?$output_processor@_WV?$string_output_adapter@_W@__crt_stdio_output@@V?$standard_base@_WV?$string_output_adapter@_W@__crt_stdio_output@@@2@@__crt_stdio_output@@AEAAXII_N@Z 0000000180026808 f i libucrt:output.obj
 0001:000258a4       ??$type_case_integer_parse_into_buffer@_K@?$output_processor@_WV?$stream_output_adapter@_W@__crt_stdio_output@@V?$standard_base@_WV?$stream_output_adapter@_W@__crt_stdio_output@@@2@@__crt_stdio_output@@AEAAX_KI_N@Z 00000001800268a4 f i libucrt:output.obj
 0001:000258a4       ??$type_case_integer_parse_into_buffer@_K@?$output_processor@_WV?$string_output_adapter@_W@__crt_stdio_output@@V?$standard_base@_WV?$string_output_adapter@_W@__crt_stdio_output@@@2@@__crt_stdio_output@@AEAAX_KI_N@Z 00000001800268a4 f i libucrt:output.obj
 0001:00025940       ??$write_multiple_characters@V?$stream_output_adapter@_W@__crt_stdio_output@@D@__crt_stdio_output@@YAXAEBV?$stream_output_adapter@_W@0@DHQEAH@Z 0000000180026940 f i libucrt:output.obj
 0001:000259d0       ??$write_multiple_characters@V?$string_output_adapter@_W@__crt_stdio_output@@D@__crt_stdio_output@@YAXAEBV?$string_output_adapter@_W@0@DHQEAH@Z 00000001800269d0 f i libucrt:output.obj
 0001:00025a40       ??0?$output_processor@_WV?$string_output_adapter@_W@__crt_stdio_output@@V?$standard_base@_WV?$string_output_adapter@_W@__crt_stdio_output@@@2@@__crt_stdio_output@@QEAA@AEBV?$string_output_adapter@_W@1@_KQEB_WQEAU__crt_locale_pointers@@QEAD@Z 0000000180026a40 f i libucrt:output.obj
 0001:00025a40       ??0?$output_processor@_WV?$stream_output_adapter@_W@__crt_stdio_output@@V?$standard_base@_WV?$stream_output_adapter@_W@__crt_stdio_output@@@2@@__crt_stdio_output@@QEAA@AEBV?$stream_output_adapter@_W@1@_KQEB_WQEAU__crt_locale_pointers@@QEAD@Z 0000000180026a40 f i libucrt:output.obj
 0001:00025bb0       ?force_decimal_point@__crt_stdio_output@@YAXPEADQEAU__crt_locale_pointers@@@Z 0000000180026bb0 f i libucrt:output.obj
 0001:00025c20       ?parse_int_from_format_string@?$output_processor@_WV?$stream_output_adapter@_W@__crt_stdio_output@@V?$standard_base@_WV?$stream_output_adapter@_W@__crt_stdio_output@@@2@@__crt_stdio_output@@AEAA_NQEAH@Z 0000000180026c20 f i libucrt:output.obj
 0001:00025c20       ?parse_int_from_format_string@?$output_processor@_WV?$string_output_adapter@_W@__crt_stdio_output@@V?$standard_base@_WV?$string_output_adapter@_W@__crt_stdio_output@@@2@@__crt_stdio_output@@AEAA_NQEAH@Z 0000000180026c20 f i libucrt:output.obj
 0001:00025ca0       ?process@?$output_processor@_WV?$stream_output_adapter@_W@__crt_stdio_output@@V?$standard_base@_WV?$stream_output_adapter@_W@__crt_stdio_output@@@2@@__crt_stdio_output@@QEAAHXZ 0000000180026ca0 f i libucrt:output.obj
 0001:00025f18       ?process@?$output_processor@_WV?$string_output_adapter@_W@__crt_stdio_output@@V?$standard_base@_WV?$string_output_adapter@_W@__crt_stdio_output@@@2@@__crt_stdio_output@@QEAAHXZ 0000000180026f18 f i libucrt:output.obj
 0001:00026194       ?state_case_size@?$output_processor@_WV?$stream_output_adapter@_W@__crt_stdio_output@@V?$standard_base@_WV?$stream_output_adapter@_W@__crt_stdio_output@@@2@@__crt_stdio_output@@AEAA_NXZ 0000000180027194 f i libucrt:output.obj
 0001:00026338       ?state_case_size@?$output_processor@_WV?$string_output_adapter@_W@__crt_stdio_output@@V?$standard_base@_WV?$string_output_adapter@_W@__crt_stdio_output@@@2@@__crt_stdio_output@@AEAA_NXZ 0000000180027338 f i libucrt:output.obj
 0001:000264dc       ?state_case_type@?$output_processor@_WV?$stream_output_adapter@_W@__crt_stdio_output@@V?$standard_base@_WV?$stream_output_adapter@_W@__crt_stdio_output@@@2@@__crt_stdio_output@@AEAA_NXZ 00000001800274dc f i libucrt:output.obj
 0001:000267a8       ?state_case_type@?$output_processor@_WV?$string_output_adapter@_W@__crt_stdio_output@@V?$standard_base@_WV?$string_output_adapter@_W@__crt_stdio_output@@@2@@__crt_stdio_output@@AEAA_NXZ 00000001800277a8 f i libucrt:output.obj
 0001:00026a74       ?type_case_Z@?$output_processor@_WV?$stream_output_adapter@_W@__crt_stdio_output@@V?$standard_base@_WV?$stream_output_adapter@_W@__crt_stdio_output@@@2@@__crt_stdio_output@@AEAA_NXZ 0000000180027a74 f i libucrt:output.obj
 0001:00026a74       ?type_case_Z@?$output_processor@_WV?$string_output_adapter@_W@__crt_stdio_output@@V?$standard_base@_WV?$string_output_adapter@_W@__crt_stdio_output@@@2@@__crt_stdio_output@@AEAA_NXZ 0000000180027a74 f i libucrt:output.obj
 0001:00026af4       ?type_case_a@?$output_processor@_WV?$string_output_adapter@_W@__crt_stdio_output@@V?$standard_base@_WV?$string_output_adapter@_W@__crt_stdio_output@@@2@@__crt_stdio_output@@AEAA_NXZ 0000000180027af4 f i libucrt:output.obj
 0001:00026af4       ?type_case_a@?$output_processor@_WV?$stream_output_adapter@_W@__crt_stdio_output@@V?$standard_base@_WV?$stream_output_adapter@_W@__crt_stdio_output@@@2@@__crt_stdio_output@@AEAA_NXZ 0000000180027af4 f i libucrt:output.obj
 0001:00026d38       ?type_case_c_tchar@?$output_processor@_WV?$string_output_adapter@_W@__crt_stdio_output@@V?$standard_base@_WV?$string_output_adapter@_W@__crt_stdio_output@@@2@@__crt_stdio_output@@AEAA_N_W@Z 0000000180027d38 f i libucrt:output.obj
 0001:00026d38       ?type_case_c_tchar@?$output_processor@_WV?$stream_output_adapter@_W@__crt_stdio_output@@V?$standard_base@_WV?$stream_output_adapter@_W@__crt_stdio_output@@@2@@__crt_stdio_output@@AEAA_N_W@Z 0000000180027d38 f i libucrt:output.obj
 0001:00026de0       ?type_case_integer@?$output_processor@_WV?$string_output_adapter@_W@__crt_stdio_output@@V?$standard_base@_WV?$string_output_adapter@_W@__crt_stdio_output@@@2@@__crt_stdio_output@@AEAA_NI_N@Z 0000000180027de0 f i libucrt:output.obj
 0001:00026de0       ?type_case_integer@?$output_processor@_WV?$stream_output_adapter@_W@__crt_stdio_output@@V?$standard_base@_WV?$stream_output_adapter@_W@__crt_stdio_output@@@2@@__crt_stdio_output@@AEAA_NI_N@Z 0000000180027de0 f i libucrt:output.obj
 0001:00026f80       ?type_case_n@?$output_processor@_WV?$stream_output_adapter@_W@__crt_stdio_output@@V?$standard_base@_WV?$stream_output_adapter@_W@__crt_stdio_output@@@2@@__crt_stdio_output@@AEAA_NXZ 0000000180027f80 f i libucrt:output.obj
 0001:00026f80       ?type_case_n@?$output_processor@_WV?$string_output_adapter@_W@__crt_stdio_output@@V?$standard_base@_WV?$string_output_adapter@_W@__crt_stdio_output@@@2@@__crt_stdio_output@@AEAA_NXZ 0000000180027f80 f i libucrt:output.obj
 0001:0002705c       ?type_case_s@?$output_processor@_WV?$stream_output_adapter@_W@__crt_stdio_output@@V?$standard_base@_WV?$stream_output_adapter@_W@__crt_stdio_output@@@2@@__crt_stdio_output@@AEAA_NXZ 000000018002805c f i libucrt:output.obj
 0001:0002705c       ?type_case_s@?$output_processor@_WV?$string_output_adapter@_W@__crt_stdio_output@@V?$standard_base@_WV?$string_output_adapter@_W@__crt_stdio_output@@@2@@__crt_stdio_output@@AEAA_NXZ 000000018002805c f i libucrt:output.obj
 0001:00027124       ?write_stored_string_tchar@?$output_processor@_WV?$stream_output_adapter@_W@__crt_stdio_output@@V?$standard_base@_WV?$stream_output_adapter@_W@__crt_stdio_output@@@2@@__crt_stdio_output@@AEAA_N_W@Z 0000000180028124 f i libucrt:output.obj
 0001:00027210       ?write_stored_string_tchar@?$output_processor@_WV?$string_output_adapter@_W@__crt_stdio_output@@V?$standard_base@_WV?$string_output_adapter@_W@__crt_stdio_output@@@2@@__crt_stdio_output@@AEAA_N_W@Z 0000000180028210 f i libucrt:output.obj
 0001:00027300       ?write_string@?$stream_output_adapter@_W@__crt_stdio_output@@QEBAXQEB_WHQEAH1@Z 0000000180028300 f i libucrt:output.obj
 0001:0002740c       ?write_string@?$string_output_adapter@_W@__crt_stdio_output@@QEBAXQEB_WHQEAH1@Z 000000018002840c f i libucrt:output.obj
 0001:000274cc       __stdio_common_vfwprintf   00000001800284cc f   libucrt:output.obj
 0001:00027558       __stdio_common_vswprintf   0000000180028558 f   libucrt:output.obj
 0001:00027790       ??$is_overflow_condition@K@__crt_strtox@@YA_NIK@Z 0000000180028790 f i libucrt:atox.obj
 0001:000277bc       ??$parse_integer@KV?$c_string_character_source@_W@__crt_strtox@@@__crt_strtox@@YAKQEAU__crt_locale_pointers@@V?$c_string_character_source@_W@0@H_N@Z 00000001800287bc f i libucrt:atox.obj
 0001:00027e90       __acrt_call_reportfault    0000000180028e90 f   libucrt:invalid_parameter.obj
 0001:00027fec       __acrt_initialize_invalid_parameter_handler 0000000180028fec f   libucrt:invalid_parameter.obj
 0001:00027ff4       _invalid_parameter         0000000180028ff4 f   libucrt:invalid_parameter.obj
 0001:0002809c       _invalid_parameter_noinfo  000000018002909c f   libucrt:invalid_parameter.obj
 0001:000280bc       _invoke_watson             00000001800290bc f   libucrt:invalid_parameter.obj
 0001:00028104       _query_app_type            0000000180029104 f   libucrt:report_runtime_error.obj
 0001:0002810c       __acrt_errno_from_os_error 000000018002910c f   libucrt:errno.obj
 0001:00028154       __acrt_errno_map_os_error  0000000180029154 f   libucrt:errno.obj
 0001:000281a4       __doserrno                 00000001800291a4 f   libucrt:errno.obj
 0001:000281c4       _errno                     00000001800291c4 f   libucrt:errno.obj
 0001:0002830c       _itow_s                    000000018002930c f   libucrt:xtoa.obj
 0001:0002832c       _set_error_mode            000000018002932c f   libucrt:set_error_mode.obj
 0001:0002836c       wcscat_s                   000000018002936c f   libucrt:wcscat_s.obj
 0001:000283ec       wcscpy_s                   00000001800293ec f   libucrt:wcscpy_s.obj
 0001:00028454       wcsncat_s                  0000000180029454 f   libucrt:wcsncat_s.obj
 0001:0002857c       __acrt_show_wide_message_box 000000018002957c f   libucrt:crtmbox.obj
 0001:00028698       __acrt_initialize_stdio    0000000180029698 f   libucrt:_file.obj
 0001:000287b8       __acrt_iob_func            00000001800297b8 f   libucrt:_file.obj
 0001:000287cc       __acrt_uninitialize_stdio  00000001800297cc f   libucrt:_file.obj
 0001:00028828       _lock_file                 0000000180029828 f   libucrt:_file.obj
 0001:00028834       _unlock_file               0000000180029834 f   libucrt:_file.obj
 0001:00028840       __acrt_stdio_flush_nolock  0000000180029840 f   libucrt:fflush.obj
 0001:000288b8       _fflush_nolock             00000001800298b8 f   libucrt:fflush.obj
 0001:00028904       _flushall                  0000000180029904 f   libucrt:fflush.obj
 0001:000289f4       fflush                     00000001800299f4 f   libucrt:fflush.obj
 0001:00028a38       ??$?RV<lambda_7a5ef57ff966f610505f1d28a3d40618>@@AEAV<lambda_b721fa326cdb32351d23dfa67958c160>@@V<lambda_5e0fb27672408a07956fe59e48ccb2aa>@@@?$__crt_seh_guarded_call@H@@QEAAH$$QEAV<lambda_7a5ef57ff966f610505f1d28a3d40618>@@AEAV<lambda_b721fa326cdb32351d23dfa67958c160>@@$$QEAV<lambda_5e0fb27672408a07956fe59e48ccb2aa>@@@Z 0000000180029a38 f i libucrt:setvbuf.obj
 0001:00028b68       setvbuf                    0000000180029b68 f   libucrt:setvbuf.obj
 0001:00028c08       ??$?RV<lambda_c36588078e9f5dfd39652860aa6b3aaf>@@AEAV<lambda_ec61778202f4f5fc7e7711acc23c3bca>@@V<lambda_dc9d2797ccde5d239b4a0efae8ebd7db>@@@?$__crt_seh_guarded_call@P6AXH@Z@@QEAAP6AXH@Z$$QEAV<lambda_c36588078e9f5dfd39652860aa6b3aaf>@@AEAV<lambda_ec61778202f4f5fc7e7711acc23c3bca>@@$$QEAV<lambda_dc9d2797ccde5d239b4a0efae8ebd7db>@@@Z 0000000180029c08 f i libucrt:signal.obj
 0001:00028c50       __acrt_get_sigabrt_handler 0000000180029c50 f   libucrt:signal.obj
 0001:00028c80       __acrt_initialize_signal_handlers 0000000180029c80 f   libucrt:signal.obj
 0001:00028ca0       raise                      0000000180029ca0 f   libucrt:signal.obj
 0001:00028f3c       ??$?RV<lambda_46352004c1216016012b18bd6f87e700>@@AEAV<lambda_3bd07e1a1191394380780325891bf33f>@@V<lambda_334532d3f185bcaa59b5be82d7d22bff>@@@?$__crt_seh_guarded_call@X@@QEAAX$$QEAV<lambda_46352004c1216016012b18bd6f87e700>@@AEAV<lambda_3bd07e1a1191394380780325891bf33f>@@$$QEAV<lambda_334532d3f185bcaa59b5be82d7d22bff>@@@Z 0000000180029f3c f i libucrt:per_thread_data.obj
 0001:00028f9c       ??$?RV<lambda_5e887d1dcbef67a5eb4283622ba103bf>@@AEAV<lambda_4466841279450cc726390878d4a41900>@@V<lambda_341c25c0346d94847f1f3c463c57e077>@@@?$__crt_seh_guarded_call@X@@QEAAX$$QEAV<lambda_5e887d1dcbef67a5eb4283622ba103bf>@@AEAV<lambda_4466841279450cc726390878d4a41900>@@$$QEAV<lambda_341c25c0346d94847f1f3c463c57e077>@@@Z 0000000180029f9c f i libucrt:per_thread_data.obj
 0001:00028fe4       ??$?RV<lambda_72d1df2b273a38828b1ce30cbf4cdab5>@@AEAV<lambda_876a65b173b8412d3a47c70a915b0cf4>@@V<lambda_41932305e351933ebe8f8be3ed8bb5dc>@@@?$__crt_seh_guarded_call@X@@QEAAX$$QEAV<lambda_72d1df2b273a38828b1ce30cbf4cdab5>@@AEAV<lambda_876a65b173b8412d3a47c70a915b0cf4>@@$$QEAV<lambda_41932305e351933ebe8f8be3ed8bb5dc>@@@Z 0000000180029fe4 f i libucrt:per_thread_data.obj
 0001:00029024       ??$?RV<lambda_fb3a7dec4e47f37f22dae91bb15c9095>@@AEAV<lambda_698284760c8add0bfb0756c19673e34b>@@V<lambda_dfb8eca1e75fef3034a8fb18dd509707>@@@?$__crt_seh_guarded_call@X@@QEAAX$$QEAV<lambda_fb3a7dec4e47f37f22dae91bb15c9095>@@AEAV<lambda_698284760c8add0bfb0756c19673e34b>@@$$QEAV<lambda_dfb8eca1e75fef3034a8fb18dd509707>@@@Z 000000018002a024 f i libucrt:per_thread_data.obj
 0001:000292b4       __acrt_freeptd             000000018002a2b4 f   libucrt:per_thread_data.obj
 0001:000292f8       __acrt_getptd              000000018002a2f8 f   libucrt:per_thread_data.obj
 0001:0002938c       __acrt_getptd_noexit       000000018002a38c f   libucrt:per_thread_data.obj
 0001:0002942c       __acrt_initialize_ptd      000000018002a42c f   libucrt:per_thread_data.obj
 0001:00029468       __acrt_uninitialize_ptd    000000018002a468 f   libucrt:per_thread_data.obj
 0001:0002948c       __acrt_update_locale_info  000000018002a48c f   libucrt:locale_update.obj
 0001:000294c0       __acrt_update_multibyte_info 000000018002a4c0 f   libucrt:locale_update.obj
 0001:000294f4       __acrt_set_locale_changed  000000018002a4f4 f   libucrt:wsetlocale.obj
 0001:00029500       __acrt_uninitialize_locale 000000018002a500 f   libucrt:wsetlocale.obj
 0001:00029548       _realloc_base              000000018002a548 f   libucrt:realloc_base.obj
 0001:000295cc       __pctype_func              000000018002a5cc f   libucrt:ctype.obj
 0001:000295fc       _isleadbyte_l              000000018002a5fc f i libucrt:_wctype.obj
 0001:0002963c       _isctype_l                 000000018002a63c f   libucrt:isctype.obj
 0001:00029aa8       __acrt_LCMapStringA        000000018002aaa8 f   libucrt:lcmapstringa.obj
 0001:00029b40       _copysign                  000000018002ab40 f   libucrt:_copysign.obj
 0001:00029b78       _decomp                    000000018002ab78 f   libucrt:util.obj
 0001:00029cac       _set_exp                   000000018002acac f   libucrt:util.obj
 0001:00029ce4       _sptype                    000000018002ace4 f   libucrt:util.obj
 0001:00029d58       _errcode                   000000018002ad58 f   libucrt:fpexcept.obj
 0001:00029d9c       _except2                   000000018002ad9c f   libucrt:fpexcept.obj
 0001:00029ea4       _handle_exc                000000018002aea4 f   libucrt:fpexcept.obj
 0001:0002a10c       _handle_qnan2              000000018002b10c f   libucrt:fpexcept.obj
 0001:0002a114       _raise_exc                 000000018002b114 f   libucrt:fpexcept.obj
 0001:0002a13c       _raise_exc_ex              000000018002b13c f   libucrt:fpexcept.obj
 0001:0002a444       _set_errno_from_matherr    000000018002b444 f   libucrt:fpexcept.obj
 0001:0002a474       _umatherr                  000000018002b474 f   libucrt:fpexcept.obj
 0001:0002a548       _clrfp                     000000018002b548 f   libucrt:fpctrl.obj
 0001:0002a568       _ctrlfp                    000000018002b568 f   libucrt:fpctrl.obj
 0001:0002a5e4       _set_statfp                000000018002b5e4 f   libucrt:fpctrl.obj
 0001:0002a604       _statfp                    000000018002b604 f   libucrt:fpctrl.obj
 0001:0002a618       __acrt_initialize_locks    000000018002b618 f   libucrt:locks.obj
 0001:0002a660       __acrt_lock                000000018002b660 f   libucrt:locks.obj
 0001:0002a67c       __acrt_uninitialize_locks  000000018002b67c f   libucrt:locks.obj
 0001:0002a6b4       __acrt_unlock              000000018002b6b4 f   libucrt:locks.obj
 0001:0002a870       __acrt_FlsAlloc            000000018002b870 f   libucrt:winapi_thunks.obj
 0001:0002a8c8       __acrt_FlsFree             000000018002b8c8 f   libucrt:winapi_thunks.obj
 0001:0002a920       __acrt_FlsGetValue         000000018002b920 f   libucrt:winapi_thunks.obj
 0001:0002a978       __acrt_FlsSetValue         000000018002b978 f   libucrt:winapi_thunks.obj
 0001:0002a9e0       __acrt_InitializeCriticalSectionEx 000000018002b9e0 f   libucrt:winapi_thunks.obj
 0001:0002aa58       __acrt_LCMapStringEx       000000018002ba58 f   libucrt:winapi_thunks.obj
 0001:0002ab48       __acrt_LocaleNameToLCID    000000018002bb48 f   libucrt:winapi_thunks.obj
 0001:0002abb0       __acrt_MessageBoxW         000000018002bbb0 f   libucrt:winapi_thunks.obj
 0001:0002ac38       __acrt_can_show_message_box 000000018002bc38 f   libucrt:winapi_thunks.obj
 0001:0002ac94       __acrt_get_parent_window   000000018002bc94 f   libucrt:winapi_thunks.obj
 0001:0002ad24       __acrt_initialize_winapi_thunks 000000018002bd24 f   libucrt:winapi_thunks.obj
 0001:0002ad5c       __acrt_is_interactive      000000018002bd5c f   libucrt:winapi_thunks.obj
 0001:0002ae30       __acrt_is_packaged_app     000000018002be30 f   libucrt:winapi_thunks.obj
 0001:0002aeb8       __acrt_uninitialize_winapi_thunks 000000018002beb8 f   libucrt:winapi_thunks.obj
 0001:0002b3d8       ?expand_if_necessary@?$argument_list@D@?A0xca0879c4@@AEAAHXZ 000000018002c3d8 f i libucrt:argv_wildcards.obj
 0001:0002b4a0       __acrt_expand_narrow_argv_wildcards 000000018002c4a0 f   libucrt:argv_wildcards.obj
 0001:0002b4a8       ??$?RV<lambda_99476a1ad63dd22509b5d3e65b0ffc95>@@AEAV<lambda_ad1ced32f4ac17aa236e5ef05d6b3b7c>@@V<lambda_f7424dd8d45958661754dc4f2697e9c3>@@@?$__crt_seh_guarded_call@X@@QEAAX$$QEAV<lambda_99476a1ad63dd22509b5d3e65b0ffc95>@@AEAV<lambda_ad1ced32f4ac17aa236e5ef05d6b3b7c>@@$$QEAV<lambda_f7424dd8d45958661754dc4f2697e9c3>@@@Z 000000018002c4a8 f i libucrt:mbctype.obj
 0001:0002bba4       __acrt_initialize_multibyte 000000018002cba4 f   libucrt:mbctype.obj
 0001:0002bbcc       __acrt_update_thread_multibyte_data 000000018002cbcc f   libucrt:mbctype.obj
 0001:0002bc8c       _setmbcp_nolock            000000018002cc8c f   libucrt:mbctype.obj
 0001:0002bfac       _ismbblead                 000000018002cfac f   libucrt:ismbbyte.obj
 0001:0002bfc0       __acrt_initialize_command_line 000000018002cfc0 f   libucrt:argv_data.obj
 0001:0002bfe8       __dcrt_get_narrow_environment_from_os 000000018002cfe8 f   libucrt:get_environment_from_os.obj
 0001:0002c0ec       _recalloc                  000000018002d0ec f   libucrt:recalloc.obj
 0001:0002c0f4       _recalloc_base             000000018002d0f4 f   libucrt:recalloc.obj
 0001:0002c18c       __acrt_initialize_heap     000000018002d18c f   libucrt:heap_handle.obj
 0001:0002c1a8       __acrt_uninitialize_heap   000000018002d1a8 f   libucrt:heap_handle.obj
 0001:0002c39c       __acrt_initialize_lowio    000000018002d39c f   libucrt:ioinit.obj
 0001:0002c3d8       __acrt_uninitialize_lowio  000000018002d3d8 f   libucrt:ioinit.obj
 0001:0002c418       __acrt_execute_initializers 000000018002d418 f   libucrt:shared_initialization.obj
 0001:0002c4ac       __acrt_execute_uninitializers 000000018002d4ac f   libucrt:shared_initialization.obj
 0001:0002c4fc       __acrt_has_user_matherr    000000018002d4fc f   libucrt:matherr.obj
 0001:0002c51c       __acrt_initialize_user_matherr 000000018002d51c f   libucrt:matherr.obj
 0001:0002c524       __acrt_invoke_user_matherr 000000018002d524 f   libucrt:matherr.obj
 0001:0002c56c       __acrt_stdio_begin_temporary_buffering_nolock 000000018002d56c f   libucrt:_sftbuf.obj
 0001:0002c63c       __acrt_stdio_end_temporary_buffering_nolock 000000018002d63c f   libucrt:_sftbuf.obj
 0001:0002c678       _query_new_mode            000000018002d678 f   libucrt:new_mode.obj
 0001:0002c680       isdigit                    000000018002d680 f i libucrt:_ctype.obj
 0001:0002c6f4       ??$make_c_string_character_source@_WPEAPEA_W@__crt_strtox@@YA?AV?$c_string_character_source@_W@0@QEB_WQEAPEA_W@Z 000000018002d6f4 f i libucrt:strtox.obj
 0001:0002c708       wcstol                     000000018002d708 f   libucrt:strtox.obj
 0001:0002c738       _mbtowc_l                  000000018002d738 f   libucrt:mbtowc.obj
 0001:0002c880       mbtowc                     000000018002d880 f   libucrt:mbtowc.obj
 0001:0002c888       _wctomb_s_l                000000018002d888 f   libucrt:wctomb.obj
 0001:0002ca0c       wctomb_s                   000000018002da0c f   libucrt:wctomb.obj
 0001:0002ca20       wcsnlen                    000000018002da20 f   libucrt:strnlen.obj
 0001:0002cc10       ?__acrt_fp_classify@@YA?AW4__acrt_fp_class@@AEBN@Z 000000018002dc10 f i libucrt:cvt.obj
 0001:0002d648       __acrt_fp_format           000000018002e648 f   libucrt:cvt.obj
 0001:0002d88c       _fputwc_nolock             000000018002e88c f   libucrt:fputwc.obj
 0001:0002da08       _fileno                    000000018002ea08 f   libucrt:fileno.obj
 0001:0002da30       _fputc_nolock              000000018002ea30 f   libucrt:fputc.obj
 0001:0002da48       _get_printf_count_output   000000018002ea48 f   libucrt:printf_count_output.obj
 0001:0002da60       iswctype                   000000018002ea60 f   libucrt:iswctype.obj
 0001:0002dad0       _fcloseall                 000000018002ead0 f   libucrt:closeall.obj
 0001:0002db84       __acrt_stdio_free_buffer_nolock 000000018002eb84 f   libucrt:_freebuf.obj
 0001:0002dbc4       ??$?RV<lambda_b521505b218e5242e90febf6bfebc422>@@AEAV<lambda_6978c1fb23f02e42e1d9e99668cc68aa>@@V<lambda_314360699dd331753a4119843814e9a7>@@@?$__crt_seh_guarded_call@H@@QEAAH$$QEAV<lambda_b521505b218e5242e90febf6bfebc422>@@AEAV<lambda_6978c1fb23f02e42e1d9e99668cc68aa>@@$$QEAV<lambda_314360699dd331753a4119843814e9a7>@@@Z 000000018002ebc4 f i libucrt:commit.obj
 0001:0002dc50       _commit                    000000018002ec50 f   libucrt:commit.obj
 0001:0002e284       _write                     000000018002f284 f   libucrt:write.obj
 0001:0002e370       _write_nolock              000000018002f370 f   libucrt:write.obj
 0001:0002e654       __acrt_add_locale_ref      000000018002f654 f   libucrt:locale_refcounting.obj
 0001:0002e6e0       __acrt_free_locale         000000018002f6e0 f   libucrt:locale_refcounting.obj
 0001:0002e858       __acrt_locale_add_lc_time_reference 000000018002f858 f   libucrt:locale_refcounting.obj
 0001:0002e880       __acrt_locale_free_lc_time_if_unreferenced 000000018002f880 f   libucrt:locale_refcounting.obj
 0001:0002e8b8       __acrt_locale_release_lc_time_reference 000000018002f8b8 f   libucrt:locale_refcounting.obj
 0001:0002e8e0       __acrt_release_locale_ref  000000018002f8e0 f   libucrt:locale_refcounting.obj
 0001:0002e988       __acrt_update_thread_locale_data 000000018002f988 f   libucrt:locale_refcounting.obj
 0001:0002e9f8       _updatetlocinfoEx_nolock   000000018002f9f8 f   libucrt:locale_refcounting.obj
 0001:0002ea60       __acrt_locale_free_monetary 000000018002fa60 f   libucrt:initmon.obj
 0001:0002eb6c       __acrt_locale_free_numeric 000000018002fb6c f   libucrt:initnum.obj
 0001:0002ec30       __acrt_locale_free_time    000000018002fc30 f   libucrt:inittime.obj
 0001:0002ed38       __acrt_GetStringTypeA      000000018002fd38 f   libucrt:getstringtypea.obj
 0001:0002eeec       __strncnt                  000000018002feec f   libucrt:strncnt.obj
 0001:0002ef20       _get_fpsr                  000000018002ff20 f   libucrt:fpsr.obj
 0001:0002ef30       _set_fpsr                  000000018002ff30 f   libucrt:fpsr.obj
 0001:0002ef3a       _fclrf                     000000018002ff3a f   libucrt:fpsr.obj
 0001:0002ef4e       _frnd                      000000018002ff4e f   libucrt:fpsr.obj
 0001:0002f038       __acrt_DownlevelLocaleNameToLCID 0000000180030038 f   libucrt:lcidtoname_downlevel.obj
 0001:0002f06c       strncpy_s                  000000018003006c f   libucrt:strncpy_s.obj
 0001:0002f140       strpbrk                    0000000180030140 f   libucrt:strpbrk.obj
 0001:0002f1e0       _mbsdec                    00000001800301e0 f   libucrt:mbsdec.obj
 0001:0002f1e8       _mbsdec_l                  00000001800301e8 f   libucrt:mbsdec.obj
 0001:0002f298       _msize                     0000000180030298 f   libucrt:msize.obj
 0001:0002f2d4       __acrt_lowio_create_handle_array 00000001800302d4 f   libucrt:osfinfo.obj
 0001:0002f36c       __acrt_lowio_destroy_handle_array 000000018003036c f   libucrt:osfinfo.obj
 0001:0002f3bc       __acrt_lowio_ensure_fh_exists 00000001800303bc f   libucrt:osfinfo.obj
 0001:0002f474       __acrt_lowio_lock_fh       0000000180030474 f   libucrt:osfinfo.obj
 0001:0002f498       __acrt_lowio_unlock_fh     0000000180030498 f   libucrt:osfinfo.obj
 0001:0002f4bc       _free_osfhnd               00000001800304bc f   libucrt:osfinfo.obj
 0001:0002f578       _get_osfhandle             0000000180030578 f   libucrt:osfinfo.obj
 0001:0002f5f0       _isatty                    00000001800305f0 f   libucrt:isatty.obj
 0001:0002f650       __acrt_fp_strflt_to_string 0000000180030650 f   libucrt:_fptostr.obj
 0001:0002f710       ?divide@__crt_strtox@@YA_KAEAUbig_integer@1@AEBU21@@Z 0000000180030710 f i libucrt:cfout.obj
 0001:0002fbe0       __acrt_fltout              0000000180030be0 f   libucrt:cfout.obj
 0001:000311e4       __acrt_stdio_flush_and_write_narrow_nolock 00000001800321e4 f   libucrt:_flsbuf.obj
 0001:000312cc       __acrt_stdio_flush_and_write_wide_nolock 00000001800322cc f   libucrt:_flsbuf.obj
 0001:000313b8       _fclose_nolock             00000001800323b8 f   libucrt:fclose.obj
 0001:0003143c       fclose                     000000018003243c f   libucrt:fclose.obj
 0001:00031634       _lseeki64                  0000000180032634 f   libucrt:lseek.obj
 0001:0003163c       _lseeki64_nolock           000000018003263c f   libucrt:lseek.obj
 0001:00031644       _putwch_nolock             0000000180032644 f   libucrt:putwch.obj
 0001:000316a0       fegetenv                   00000001800326a0 f   libucrt:fegetenv.obj
 0001:000316c0       fesetenv                   00000001800326c0 f   libucrt:fesetenv.obj
 0001:0003170c       feholdexcept               000000018003270c f   libucrt:feholdexcept.obj
 0001:0003175c       ceil                       000000018003275c f   libucrt:ceil.obj
 0001:00031820       log10                      0000000180032820 f   libucrt:log10.obj
 0001:00031dcc       __acrt_stdio_allocate_buffer_nolock 0000000180032dcc f   libucrt:_getbuf.obj
 0001:00031e30       ??$?RV<lambda_bfedae4ebbf01fab1bb6dcc6a9e276e0>@@AEAV<lambda_2fe9b910cf3cbf4a0ab98a02ba45b3ec>@@V<lambda_237c231691f317818eb88cc1d5d642d6>@@@?$__crt_seh_guarded_call@H@@QEAAH$$QEAV<lambda_bfedae4ebbf01fab1bb6dcc6a9e276e0>@@AEAV<lambda_2fe9b910cf3cbf4a0ab98a02ba45b3ec>@@$$QEAV<lambda_237c231691f317818eb88cc1d5d642d6>@@@Z 0000000180032e30 f i libucrt:close.obj
 0001:00031ea4       _close                     0000000180032ea4 f   libucrt:close.obj
 0001:00031f48       _close_nolock              0000000180032f48 f   libucrt:close.obj
 0001:00032004       ?__acrt_stdio_free_stream@@YAXV__crt_stdio_stream@@@Z 0000000180033004 f   libucrt:stream.obj
 0001:00032048       __dcrt_lowio_initialize_console_output 0000000180033048 f   libucrt:initcon.obj
 0001:00032084       __dcrt_terminate_console_output 0000000180033084 f   libucrt:initcon.obj
 0001:000320a4       _getfpcontrolword          00000001800330a4 f   libucrt:_fenvutils.obj
 0001:000320bc       _getfpstatusword           00000001800330bc f   libucrt:_fenvutils.obj
 0001:000320d0       _setfpcontrolword          00000001800330d0 f   libucrt:_fenvutils.obj
 0001:000320dc       _setfpstatusword           00000001800330dc f   libucrt:_fenvutils.obj
 0001:0003212c       _clearfp                   000000018003312c f   libucrt:ieee.obj
 0001:00032180       _controlfp                 0000000180033180 f   libucrt:ieee.obj
 0001:0003218c       _statusfp                  000000018003318c f   libucrt:ieee.obj
 0001:00032590       _handle_error              0000000180033590 f   libucrt:libm_error.obj
 0001:000326b8       _handle_nan                00000001800336b8 f   libucrt:libm_error.obj
 0001:000326e0       __acrt_initialize_fma3     00000001800336e0 f   libucrt:fma3_available.obj
 0001:00032750       _log10_special             0000000180033750 f   libucrt:log_special.obj
 0001:00032770       _log_special               0000000180033770 f   libucrt:log_special.obj
 0001:00032826       IsProcessorFeaturePresent  0000000180033826 f   kernel32:KERNEL32.dll
 0001:0003282c       RtlUnwindEx                000000018003382c f   kernel32:KERNEL32.dll
 0001:00032832       SystemFunction036          0000000180033832 f   advapi32:ADVAPI32.dll
 0001:00032838       ?DloadAcquireSectionWriteAccess@@YAXXZ 0000000180033838 f i DelayImp:delayhlp.obj
 0001:000328f4       ?DloadGetSRWLockFunctionPointers@@YAEXZ 00000001800338f4 f i DelayImp:delayhlp.obj
 0001:00032990       ?DloadMakePermanentImageCommit@@YAXPEAX_K@Z 0000000180033990 f i DelayImp:delayhlp.obj
 0001:00032a28       ?DloadObtainSection@@YAPEAXPEAK0@Z 0000000180033a28 f i DelayImp:delayhlp.obj
 0001:00032ac0       ?DloadProtectSection@@YAXKPEAK@Z 0000000180033ac0 f i DelayImp:delayhlp.obj
 0001:00032b50       ?DloadReleaseSectionWriteAccess@@YAXXZ 0000000180033b50 f i DelayImp:delayhlp.obj
 0001:00032bf4       __delayLoadHelper2         0000000180033bf4 f   DelayImp:delayhlp.obj
 0001:00032efc       __GSHandlerCheck           0000000180033efc f   LIBCMT:_gshandler_.obj
 0001:00032f1c       __GSHandlerCheckCommon     0000000180033f1c f   LIBCMT:_gshandler_.obj
 0001:00032f80       _FindPESection             0000000180033f80 f   LIBCMT:pesect.obj
 0001:00032fd0       _IsNonwritableInCurrentImage 0000000180033fd0 f   LIBCMT:pesect.obj
 0001:00033020       _ValidateImageBase         0000000180034020 f   LIBCMT:pesect.obj
 0001:00033060       __chkstk                   0000000180034060 f   LIBCMT:_chkstk_.obj
 0001:00033060       _alloca_probe              0000000180034060 f   LIBCMT:_chkstk_.obj
 0001:000330d0       memcmp                     00000001800340d0 f   libvcruntime:memcmp.obj
 0001:00033198       strrchr                    0000000180034198 f   libvcruntime:strrchr.obj
 0001:000332e0       __vdecl_cos2               00000001800342e0 f   LIBCMT:_svml_dcos2_dispatch_.obj
 0001:000332f0       __vdecl_sin2               00000001800342f0 f   LIBCMT:_svml_dsin2_dispatch_.obj
 0001:00033800       __sse2_cos2                0000000180034800 f   LIBCMT:_svml_dcos2_sse2_.obj
 0001:00034190       __sse2_sin2                0000000180035190 f   LIBCMT:_svml_dsin2_sse2_.obj
 0001:00034650       atan                       0000000180035650 f   libucrt:atan.obj
 0001:00034870       cos                        0000000180035870 f   libucrt:cos.obj
 0001:00034df0       exp                        0000000180035df0 f   libucrt:exp.obj
 0001:000351e8       floor                      00000001800361e8 f   libucrt:floor.obj
 0001:000352a0       log                        00000001800362a0 f   libucrt:log.obj
 0001:000357d0       pow                        00000001800367d0 f   libucrt:pow.obj
 0001:00036e70       sin                        0000000180037e70 f   libucrt:sin.obj
 0001:000373dc       sqrt                       00000001800383dc f   libucrt:sqrt.obj
 0001:000374b0       __remainder_piby2_forAsm   00000001800384b0 f   libucrt:remainder_piby2_forasm.obj
 0001:000376c0       __remainder_piby2_cw_forAsm 00000001800386c0 f   libucrt:remainder_piby2_forasm.obj
 0001:00037800       __remainder_piby2_fma3     0000000180038800 f   libucrt:remainder_piby2_forfma3.obj
 0001:000379f0       __remainder_piby2_fma3_bdl 00000001800389f0 f   libucrt:remainder_piby2_forfma3.obj
 0001:00037a68       _cos_special               0000000180038a68 f   libucrt:sincos_special.obj
 0001:00037a7c       _sin_special               0000000180038a7c f   libucrt:sincos_special.obj
 0001:00037b40       _exp_special               0000000180038b40 f   libucrt:exp_special.obj
 0001:00037be0       _pow_special               0000000180038be0 f   libucrt:pow_special.obj
 0001:00037d20       _guard_dispatch_icall_nop  0000000180038d20 f   LIBCMT:_guard_dispatch_.obj
 0002:00000000       __imp_SystemFunction036    0000000180039000     advapi32:ADVAPI32.dll
 0002:00000008       \177ADVAPI32_NULL_THUNK_DATA 0000000180039008     advapi32:ADVAPI32.dll
 0002:00000010       __imp_RtlCaptureContext    0000000180039010     kernel32:KERNEL32.dll
 0002:00000018       __imp_RtlLookupFunctionEntry 0000000180039018     kernel32:KERNEL32.dll
 0002:00000020       __imp_RtlVirtualUnwind     0000000180039020     kernel32:KERNEL32.dll
 0002:00000028       __imp_UnhandledExceptionFilter 0000000180039028     kernel32:KERNEL32.dll
 0002:00000030       __imp_SetUnhandledExceptionFilter 0000000180039030     kernel32:KERNEL32.dll
 0002:00000038       __imp_GetCurrentProcess    0000000180039038     kernel32:KERNEL32.dll
 0002:00000040       __imp_TerminateProcess     0000000180039040     kernel32:KERNEL32.dll
 0002:00000048       __imp_IsProcessorFeaturePresent 0000000180039048     kernel32:KERNEL32.dll
 0002:00000050       __imp_QueryPerformanceCounter 0000000180039050     kernel32:KERNEL32.dll
 0002:00000058       __imp_GetCurrentProcessId  0000000180039058     kernel32:KERNEL32.dll
 0002:00000060       __imp_GetCurrentThreadId   0000000180039060     kernel32:KERNEL32.dll
 0002:00000068       __imp_GetSystemTimeAsFileTime 0000000180039068     kernel32:KERNEL32.dll
 0002:00000070       __imp_InitializeSListHead  0000000180039070     kernel32:KERNEL32.dll
 0002:00000078       __imp_IsDebuggerPresent    0000000180039078     kernel32:KERNEL32.dll
 0002:00000080       __imp_GetStartupInfoW      0000000180039080     kernel32:KERNEL32.dll
 0002:00000088       __imp_GetModuleHandleW     0000000180039088     kernel32:KERNEL32.dll
 0002:00000090       __imp_GetLastError         0000000180039090     kernel32:KERNEL32.dll
 0002:00000098       __imp_GetModuleFileNameW   0000000180039098     kernel32:KERNEL32.dll
 0002:000000a0       __imp_RtlUnwindEx          00000001800390a0     kernel32:KERNEL32.dll
 0002:000000a8       __imp_RtlPcToFileHeader    00000001800390a8     kernel32:KERNEL32.dll
 0002:000000b0       __imp_RaiseException       00000001800390b0     kernel32:KERNEL32.dll
 0002:000000b8       __imp_InterlockedFlushSList 00000001800390b8     kernel32:KERNEL32.dll
 0002:000000c0       __imp_InitializeCriticalSectionAndSpinCount 00000001800390c0     kernel32:KERNEL32.dll
 0002:000000c8       __imp_TlsAlloc             00000001800390c8     kernel32:KERNEL32.dll
 0002:000000d0       __imp_TlsGetValue          00000001800390d0     kernel32:KERNEL32.dll
 0002:000000d8       __imp_TlsSetValue          00000001800390d8     kernel32:KERNEL32.dll
 0002:000000e0       __imp_TlsFree              00000001800390e0     kernel32:KERNEL32.dll
 0002:000000e8       __imp_FreeLibrary          00000001800390e8     kernel32:KERNEL32.dll
 0002:000000f0       __imp_GetProcAddress       00000001800390f0     kernel32:KERNEL32.dll
 0002:000000f8       __imp_LoadLibraryExW       00000001800390f8     kernel32:KERNEL32.dll
 0002:00000100       __imp_SetLastError         0000000180039100     kernel32:KERNEL32.dll
 0002:00000108       __imp_EnterCriticalSection 0000000180039108     kernel32:KERNEL32.dll
 0002:00000110       __imp_LeaveCriticalSection 0000000180039110     kernel32:KERNEL32.dll
 0002:00000118       __imp_DeleteCriticalSection 0000000180039118     kernel32:KERNEL32.dll
 0002:00000120       __imp_GetStdHandle         0000000180039120     kernel32:KERNEL32.dll
 0002:00000128       __imp_GetFileType          0000000180039128     kernel32:KERNEL32.dll
 0002:00000130       __imp_GetModuleFileNameA   0000000180039130     kernel32:KERNEL32.dll
 0002:00000138       __imp_GetModuleHandleExW   0000000180039138     kernel32:KERNEL32.dll
 0002:00000140       __imp_WriteConsoleW        0000000180039140     kernel32:KERNEL32.dll
 0002:00000148       __imp_ExitProcess          0000000180039148     kernel32:KERNEL32.dll
 0002:00000150       __imp_MultiByteToWideChar  0000000180039150     kernel32:KERNEL32.dll
 0002:00000158       __imp_HeapFree             0000000180039158     kernel32:KERNEL32.dll
 0002:00000160       __imp_HeapAlloc            0000000180039160     kernel32:KERNEL32.dll
 0002:00000168       __imp_WriteFile            0000000180039168     kernel32:KERNEL32.dll
 0002:00000170       __imp_OutputDebugStringW   0000000180039170     kernel32:KERNEL32.dll
 0002:00000178       __imp_CloseHandle          0000000180039178     kernel32:KERNEL32.dll
 0002:00000180       __imp_WaitForSingleObjectEx 0000000180039180     kernel32:KERNEL32.dll
 0002:00000188       __imp_CreateThread         0000000180039188     kernel32:KERNEL32.dll
 0002:00000190       __imp_GetACP               0000000180039190     kernel32:KERNEL32.dll
 0002:00000198       __imp_HeapReAlloc          0000000180039198     kernel32:KERNEL32.dll
 0002:000001a0       __imp_LCMapStringW         00000001800391a0     kernel32:KERNEL32.dll
 0002:000001a8       __imp_FindClose            00000001800391a8     kernel32:KERNEL32.dll
 0002:000001b0       __imp_FindFirstFileExA     00000001800391b0     kernel32:KERNEL32.dll
 0002:000001b8       __imp_FindNextFileA        00000001800391b8     kernel32:KERNEL32.dll
 0002:000001c0       __imp_IsValidCodePage      00000001800391c0     kernel32:KERNEL32.dll
 0002:000001c8       __imp_GetOEMCP             00000001800391c8     kernel32:KERNEL32.dll
 0002:000001d0       __imp_GetCPInfo            00000001800391d0     kernel32:KERNEL32.dll
 0002:000001d8       __imp_GetCommandLineA      00000001800391d8     kernel32:KERNEL32.dll
 0002:000001e0       __imp_GetCommandLineW      00000001800391e0     kernel32:KERNEL32.dll
 0002:000001e8       __imp_GetEnvironmentStringsW 00000001800391e8     kernel32:KERNEL32.dll
 0002:000001f0       __imp_FreeEnvironmentStringsW 00000001800391f0     kernel32:KERNEL32.dll
 0002:000001f8       __imp_GetProcessHeap       00000001800391f8     kernel32:KERNEL32.dll
 0002:00000200       __imp_GetStringTypeW       0000000180039200     kernel32:KERNEL32.dll
 0002:00000208       __imp_FlushFileBuffers     0000000180039208     kernel32:KERNEL32.dll
 0002:00000210       __imp_GetConsoleCP         0000000180039210     kernel32:KERNEL32.dll
 0002:00000218       __imp_GetConsoleMode       0000000180039218     kernel32:KERNEL32.dll
 0002:00000220       __imp_HeapSize             0000000180039220     kernel32:KERNEL32.dll
 0002:00000228       __imp_SetStdHandle         0000000180039228     kernel32:KERNEL32.dll
 0002:00000230       __imp_SetFilePointerEx     0000000180039230     kernel32:KERNEL32.dll
 0002:00000238       __imp_CreateFileW          0000000180039238     kernel32:KERNEL32.dll
 0002:00000240       __imp_WideCharToMultiByte  0000000180039240     kernel32:KERNEL32.dll
 0002:00000248       __imp_GetModuleHandleA     0000000180039248     kernel32:KERNEL32.dll
 0002:00000250       __imp_VirtualQuery         0000000180039250     kernel32:KERNEL32.dll
 0002:00000258       __imp_VirtualProtect       0000000180039258     kernel32:KERNEL32.dll
 0002:00000260       __imp_GetSystemInfo        0000000180039260     kernel32:KERNEL32.dll
 0002:00000268       __imp_LoadLibraryExA       0000000180039268     kernel32:KERNEL32.dll
 0002:00000270       \177KERNEL32_NULL_THUNK_DATA 0000000180039270     kernel32:KERNEL32.dll
 0002:00000278       __imp_oggpack_readinit     0000000180039278     ogg:ogg.node
 0002:00000280       __imp_oggpack_read         0000000180039280     ogg:ogg.node
 0002:00000288       __imp_oggpack_reset        0000000180039288     ogg:ogg.node
 0002:00000290       __imp_oggpack_get_buffer   0000000180039290     ogg:ogg.node
 0002:00000298       __imp_oggpack_writetrunc   0000000180039298     ogg:ogg.node
 0002:000002a0       __imp_oggpack_adv          00000001800392a0     ogg:ogg.node
 0002:000002a8       __imp_oggpack_look         00000001800392a8     ogg:ogg.node
 0002:000002b0       __imp_oggpack_bytes        00000001800392b0     ogg:ogg.node
 0002:000002b8       __imp_oggpack_writeclear   00000001800392b8     ogg:ogg.node
 0002:000002c0       __imp_oggpack_writeinit    00000001800392c0     ogg:ogg.node
 0002:000002c8       __imp_oggpack_write        00000001800392c8     ogg:ogg.node
 0002:000002d0       \177ogg_NULL_THUNK_DATA    00000001800392d0     ogg:ogg.node
 0002:000002d8       __guard_check_icall_fptr   00000001800392d8     LIBCMT:guard_support.obj
 0002:000002e0       __guard_dispatch_icall_fptr 00000001800392e0     LIBCMT:guard_support.obj
 0002:000002e8       __xc_a                     00000001800392e8     LIBCMT:initializers.obj
 0002:000002f0       _register_vorbis_          00000001800392f0     binding.obj
 0002:000002f8       __xc_z                     00000001800392f8     LIBCMT:initializers.obj
 0002:00000300       __xi_a                     0000000180039300     LIBCMT:initializers.obj
 0002:00000308       __acrt_stdio_initializer   0000000180039308     libucrt:stdio_initializer.obj
 0002:00000310       __acrt_multibyte_initializer 0000000180039310     libucrt:multibyte_initializer.obj
 0002:00000318       __acrt_tran_fma3_initializer 0000000180039318     libucrt:fma3_initializer.obj
 0002:00000320       __xi_z                     0000000180039320     LIBCMT:initializers.obj
 0002:00000328       __xp_a                     0000000180039328     LIBCMT:initializers.obj
 0002:00000330       __acrt_locale_terminator   0000000180039330     libucrt:locale_initializer.obj
 0002:00000338       __dcrt_console_output_terminator 0000000180039338     libucrt:console_output_initializer.obj
 0002:00000340       __acrt_stdio_terminator    0000000180039340     libucrt:stdio_initializer.obj
 0002:00000348       __xp_z                     0000000180039348     LIBCMT:initializers.obj
 0002:00000350       __xt_a                     0000000180039350     LIBCMT:initializers.obj
 0002:00000358       __xt_z                     0000000180039358     LIBCMT:initializers.obj
 0002:00000360       __sz_node_exe              0000000180039360     node:node.exe
 0002:00000370       _pDefaultRawDllMain        0000000180039370     LIBCMT:dll_dllmain.obj
 0002:00000370       _pRawDllMain               0000000180039370     LIBCMT:dll_dllmain.obj
 0002:00000390       ??_7exception@std@@6B@     0000000180039390     LIBCMT:throw_bad_alloc.obj
 0002:000003a0       ??_C@_0BC@EOODALEL@Unknown?5exception?$AA@ 00000001800393a0     LIBCMT:throw_bad_alloc.obj
 0002:000003c0       ??_7bad_alloc@std@@6B@     00000001800393c0     LIBCMT:throw_bad_alloc.obj
 0002:000003d0       ??_C@_0P@GHFPNOJB@bad?5allocation?$AA@ 00000001800393d0     LIBCMT:throw_bad_alloc.obj
 0002:000003e8       ??_7bad_array_new_length@std@@6B@ 00000001800393e8     LIBCMT:throw_bad_alloc.obj
 0002:000003f8       ??_C@_0BF@KINCDENJ@bad?5array?5new?5length?$AA@ 00000001800393f8     LIBCMT:throw_bad_alloc.obj
 0002:00000418       ??_7type_info@@6B@         0000000180039418     LIBCMT:std_type_info_static.obj
 0002:00000420       _Microsoft_CRTProvider     0000000180039420     libvcruntime:telemetry.obj
 0002:00000428       ??_C@_00CNPNBAHC@?$AA@     0000000180039428     libvcruntime:telemetry.obj
 0002:0000042c       ??_C@_11LOCGONAA@?$AA?$AA@ 000000018003942c     libvcruntime:telemetry.obj
 0002:00000430       ??_C@_0O@JEOPJOMI@Main?5Invoked?4?$AA@ 0000000180039430     libvcruntime:telemetry.obj
 0002:00000440       ??_C@_0P@NEAEIBDO@Main?5Returned?4?$AA@ 0000000180039440     libvcruntime:telemetry.obj
 0002:000004b0       ??_C@_1BC@DNHGCMLG@?$AAa?$AAd?$AAv?$AAa?$AAp?$AAi?$AA3?$AA2?$AA?$AA@ 00000001800394b0     libvcruntime:winapi_downlevel.obj
 0002:000004c8       ??_C@_1DM@KHCHBNEB@?$AAa?$AAp?$AAi?$AA?9?$AAm?$AAs?$AA?9?$AAw?$AAi?$AAn?$AA?9?$AAc?$AAo?$AAr?$AAe?$AA?9?$AAf?$AAi?$AAb?$AAe?$AAr?$AAs?$AA?9?$AAl?$AA1?$AA?9?$AA1?$AA?9?$AA1?$AA?$AA@ 00000001800394c8     libvcruntime:winapi_downlevel.obj
 0002:00000508       ??_C@_1DK@LPPGFMPP@?$AAa?$AAp?$AAi?$AA?9?$AAm?$AAs?$AA?9?$AAw?$AAi?$AAn?$AA?9?$AAc?$AAo?$AAr?$AAe?$AA?9?$AAs?$AAy?$AAn?$AAc?$AAh?$AA?9?$AAl?$AA1?$AA?9?$AA2?$AA?9?$AA0?$AA?$AA@ 0000000180039508     libvcruntime:winapi_downlevel.obj
 0002:00000548       ??_C@_1BC@GDMECMAK@?$AAk?$AAe?$AAr?$AAn?$AAe?$AAl?$AA3?$AA2?$AA?$AA@ 0000000180039548     libvcruntime:winapi_downlevel.obj
 0002:00000560       ??_C@_0O@BAMBGLIE@EventRegister?$AA@ 0000000180039560     libvcruntime:winapi_downlevel.obj
 0002:00000578       ??_C@_0BE@BJEEGHGK@EventSetInformation?$AA@ 0000000180039578     libvcruntime:winapi_downlevel.obj
 0002:00000590       ??_C@_0BA@FAKLIPIC@EventUnregister?$AA@ 0000000180039590     libvcruntime:winapi_downlevel.obj
 0002:000005a8       ??_C@_0BD@PKLHJPHD@EventWriteTransfer?$AA@ 00000001800395a8     libvcruntime:winapi_downlevel.obj
 0002:000005c8       ??_C@_08KNHFBNJ@FlsAlloc?$AA@ 00000001800395c8     libvcruntime:winapi_downlevel.obj
 0002:000005e0       ??_C@_07PEJMOBNF@FlsFree?$AA@ 00000001800395e0     libvcruntime:winapi_downlevel.obj
 0002:000005f0       ??_C@_0M@GDNOONDI@FlsGetValue?$AA@ 00000001800395f0     libvcruntime:winapi_downlevel.obj
 0002:00000608       ??_C@_0M@JCPCPOEF@FlsSetValue?$AA@ 0000000180039608     libvcruntime:winapi_downlevel.obj
 0002:00000620       ??_C@_0BM@HCFOFFN@InitializeCriticalSectionEx?$AA@ 0000000180039620     libvcruntime:winapi_downlevel.obj
 0002:00000960       ??_C@_08EHJDFFNH@__based?$CI?$AA@ 0000000180039960     libvcruntime:undname.obj
 0002:00000970       ??_C@_07KOLFKCDI@__cdecl?$AA@ 0000000180039970     libvcruntime:undname.obj
 0002:00000978       ??_C@_08GHMPAG@__pascal?$AA@ 0000000180039978     libvcruntime:undname.obj
 0002:00000988       ??_C@_09IFJBGAPI@__stdcall?$AA@ 0000000180039988     libvcruntime:undname.obj
 0002:00000998       ??_C@_0L@NPHFGOKO@__thiscall?$AA@ 0000000180039998     libvcruntime:undname.obj
 0002:000009a8       ??_C@_0L@JMKHOMEK@__fastcall?$AA@ 00000001800399a8     libvcruntime:undname.obj
 0002:000009b8       ??_C@_0N@BCKKPABJ@__vectorcall?$AA@ 00000001800399b8     libvcruntime:undname.obj
 0002:000009c8       ??_C@_09HIJEGCPM@__clrcall?$AA@ 00000001800399c8     libvcruntime:undname.obj
 0002:000009d4       ??_C@_06GHPCKEAG@__eabi?$AA@ 00000001800399d4     libvcruntime:undname.obj
 0002:000009e0       ??_C@_07JOMMBBKO@__ptr64?$AA@ 00000001800399e0     libvcruntime:undname.obj
 0002:000009e8       ??_C@_0L@PILCLIHE@__restrict?$AA@ 00000001800399e8     libvcruntime:undname.obj
 0002:000009f8       ??_C@_0M@GFIIJFMG@__unaligned?$AA@ 00000001800399f8     libvcruntime:undname.obj
 0002:00000a08       ??_C@_09DHDLOLLB@restrict?$CI?$AA@ 0000000180039a08     libvcruntime:undname.obj
 0002:00000a14       ??_C@_04NIHEBCM@?5new?$AA@ 0000000180039a14     libvcruntime:undname.obj
 0002:00000a20       ??_C@_07FPCDHGMM@?5delete?$AA@ 0000000180039a20     libvcruntime:undname.obj
 0002:00000a28       ??_C@_02GPIOPFAK@?$DO?$DO?$AA@ 0000000180039a28     libvcruntime:undname.obj
 0002:00000a2c       ??_C@_02FODMEDOG@?$DM?$DM?$AA@ 0000000180039a2c     libvcruntime:undname.obj
 0002:00000a30       ??_C@_01DCLJPIOD@?$CB?$AA@ 0000000180039a30     libvcruntime:undname.obj
 0002:00000a34       ??_C@_02EGOFBIJA@?$DN?$DN?$AA@ 0000000180039a34     libvcruntime:undname.obj
 0002:00000a38       ??_C@_02FDNJECIE@?$CB?$DN?$AA@ 0000000180039a38     libvcruntime:undname.obj
 0002:00000a3c       ??_C@_02GPECMEKF@?$FL?$FN?$AA@ 0000000180039a3c     libvcruntime:undname.obj
 0002:00000a40       ??_C@_08LHJFAFGD@operator?$AA@ 0000000180039a40     libvcruntime:undname.obj
 0002:00000a4c       ??_C@_02HBOOOICD@?9?$DO?$AA@ 0000000180039a4c     libvcruntime:undname.obj
 0002:00000a50       ??_C@_01NBENCBCI@?$CK?$AA@ 0000000180039a50     libvcruntime:undname.obj
 0002:00000a54       ??_C@_02ECNGHCIF@?$CL?$CL?$AA@ 0000000180039a54     libvcruntime:undname.obj
 0002:00000a58       ??_C@_02BAABKJLB@?9?9?$AA@ 0000000180039a58     libvcruntime:undname.obj
 0002:00000a5c       ??_C@_01JOAMLHOP@?9?$AA@   0000000180039a5c     libvcruntime:undname.obj
 0002:00000a60       ??_C@_01MIFGBAGJ@?$CL?$AA@ 0000000180039a60     libvcruntime:undname.obj
 0002:00000a64       ??_C@_01HNPIGOCE@?$CG?$AA@ 0000000180039a64     libvcruntime:undname.obj
 0002:00000a68       ??_C@_03MNHNFDLC@?9?$DO?$CK?$AA@ 0000000180039a68     libvcruntime:undname.obj
 0002:00000a6c       ??_C@_01KMDKNFGN@?1?$AA@   0000000180039a6c     libvcruntime:undname.obj
 0002:00000a70       ??_C@_01FGNFDNOH@?$CF?$AA@ 0000000180039a70     libvcruntime:undname.obj
 0002:00000a74       ??_C@_01MNNFJEPP@?$DM?$AA@ 0000000180039a74     libvcruntime:undname.obj
 0002:00000a78       ??_C@_02EHCHHCKH@?$DM?$DN?$AA@ 0000000180039a78     libvcruntime:undname.obj
 0002:00000a7c       ??_C@_01PPODPGHN@?$DO?$AA@ 0000000180039a7c     libvcruntime:undname.obj
 0002:00000a80       ??_C@_02EEKDKGMJ@?$DO?$DN?$AA@ 0000000180039a80     libvcruntime:undname.obj
 0002:00000a84       ??_C@_01IHBHIGKO@?0?$AA@   0000000180039a84     libvcruntime:undname.obj
 0002:00000a88       ??_C@_02HCKGKOFO@?$CI?$CJ?$AA@ 0000000180039a88     libvcruntime:undname.obj
 0002:00000a8c       ??_C@_01PJKLJHI@?$HO?$AA@  0000000180039a8c     libvcruntime:undname.obj
 0002:00000a90       ??_C@_01JKBOJNNK@?$FO?$AA@ 0000000180039a90     libvcruntime:undname.obj
 0002:00000a94       ??_C@_01DNKMNLPK@?$HM?$AA@ 0000000180039a94     libvcruntime:undname.obj
 0002:00000a98       ??_C@_02PPKAJPJL@?$CG?$CG?$AA@ 0000000180039a98     libvcruntime:undname.obj
 0002:00000a9c       ??_C@_02NONPIBCD@?$HM?$HM?$AA@ 0000000180039a9c     libvcruntime:undname.obj
 0002:00000aa0       ??_C@_02FPIMKNGF@?$CK?$DN?$AA@ 0000000180039aa0     libvcruntime:undname.obj
 0002:00000aa4       ??_C@_02FOEOMHFC@?$CL?$DN?$AA@ 0000000180039aa4     libvcruntime:undname.obj
 0002:00000aa8       ??_C@_02FKMDLLOA@?9?$DN?$AA@ 0000000180039aa8     libvcruntime:undname.obj
 0002:00000aac       ??_C@_02FJEHGPIO@?1?$DN?$AA@ 0000000180039aac     libvcruntime:undname.obj
 0002:00000ab0       ??_C@_02FENAOKFI@?$CF?$DN?$AA@ 0000000180039ab0     libvcruntime:undname.obj
 0002:00000ab4       ??_C@_03IKFCCPFF@?$DO?$DO?$DN?$AA@ 0000000180039ab4     libvcruntime:undname.obj
 0002:00000ab8       ??_C@_03CDNPDDLA@?$DM?$DM?$DN?$AA@ 0000000180039ab8     libvcruntime:undname.obj
 0002:00000abc       ??_C@_02FGJGFEAB@?$CG?$DN?$AA@ 0000000180039abc     libvcruntime:undname.obj
 0002:00000ac0       ??_C@_02DHLNPPGH@?$HM?$DN?$AA@ 0000000180039ac0     libvcruntime:undname.obj
 0002:00000ac4       ??_C@_02MHEGNOJ@?$FO?$DN?$AA@ 0000000180039ac4     libvcruntime:undname.obj
 0002:00000ac8       ??_C@_09IFPLHPGF@?$GAvftable?8?$AA@ 0000000180039ac8     libvcruntime:undname.obj
 0002:00000ad8       ??_C@_09BLBHBJP@?$GAvbtable?8?$AA@ 0000000180039ad8     libvcruntime:undname.obj
 0002:00000ae8       ??_C@_07FEEIOKP@?$GAvcall?8?$AA@ 0000000180039ae8     libvcruntime:undname.obj
 0002:00000af0       ??_C@_08LLFFHHDJ@?$GAtypeof?8?$AA@ 0000000180039af0     libvcruntime:undname.obj
 0002:00000b00       ??_C@_0BF@KDPPACIK@?$GAlocal?5static?5guard?8?$AA@ 0000000180039b00     libvcruntime:undname.obj
 0002:00000b18       ??_C@_08OBABFOLI@?$GAstring?8?$AA@ 0000000180039b18     libvcruntime:undname.obj
 0002:00000b28       ??_C@_0BD@JDLKDPAB@?$GAvbase?5destructor?8?$AA@ 0000000180039b28     libvcruntime:undname.obj
 0002:00000b40       ??_C@_0BN@DEGPLNFK@?$GAvector?5deleting?5destructor?8?$AA@ 0000000180039b40     libvcruntime:undname.obj
 0002:00000b60       ??_C@_0BO@OBMKPJIG@?$GAdefault?5constructor?5closure?8?$AA@ 0000000180039b60     libvcruntime:undname.obj
 0002:00000b80       ??_C@_0BN@IMDCHIKM@?$GAscalar?5deleting?5destructor?8?$AA@ 0000000180039b80     libvcruntime:undname.obj
 0002:00000ba0       ??_C@_0BO@PFGOCPJJ@?$GAvector?5constructor?5iterator?8?$AA@ 0000000180039ba0     libvcruntime:undname.obj
 0002:00000bc0       ??_C@_0BN@LFPFMEDL@?$GAvector?5destructor?5iterator?8?$AA@ 0000000180039bc0     libvcruntime:undname.obj
 0002:00000be0       ??_C@_0CE@IKBNEHA@?$GAvector?5vbase?5constructor?5iterat@ 0000000180039be0     libvcruntime:undname.obj
 0002:00000c08       ??_C@_0BL@NILFHHPC@?$GAvirtual?5displacement?5map?8?$AA@ 0000000180039c08     libvcruntime:undname.obj
 0002:00000c28       ??_C@_0CB@JONCMFFK@?$GAeh?5vector?5constructor?5iterator?8@ 0000000180039c28     libvcruntime:undname.obj
 0002:00000c50       ??_C@_0CA@GCEOPDGL@?$GAeh?5vector?5destructor?5iterator?8?$AA@ 0000000180039c50     libvcruntime:undname.obj
 0002:00000c70       ??_C@_0CH@OOJPLCPH@?$GAeh?5vector?5vbase?5constructor?5ite@ 0000000180039c70     libvcruntime:undname.obj
 0002:00000c98       ??_C@_0BL@LLKPOHJI@?$GAcopy?5constructor?5closure?8?$AA@ 0000000180039c98     libvcruntime:undname.obj
 0002:00000cb8       ??_C@_0BA@KBCDOMBN@?$GAudt?5returning?8?$AA@ 0000000180039cb8     libvcruntime:undname.obj
 0002:00000cc8       ??_C@_03KLGMFNMG@?$GAEH?$AA@ 0000000180039cc8     libvcruntime:undname.obj
 0002:00000ccc       ??_C@_05KHLCHHI@?$GARTTI?$AA@ 0000000180039ccc     libvcruntime:undname.obj
 0002:00000cd8       ??_C@_0BA@KKLDJDLB@?$GAlocal?5vftable?8?$AA@ 0000000180039cd8     libvcruntime:undname.obj
 0002:00000ce8       ??_C@_0CE@IIHCMGGL@?$GAlocal?5vftable?5constructor?5closu@ 0000000180039ce8     libvcruntime:undname.obj
 0002:00000d0c       ??_C@_06FHBGPFGH@?5new?$FL?$FN?$AA@ 0000000180039d0c     libvcruntime:undname.obj
 0002:00000d18       ??_C@_09LBNFPBCA@?5delete?$FL?$FN?$AA@ 0000000180039d18     libvcruntime:undname.obj
 0002:00000d28       ??_C@_0P@HJKNJFNN@?$GAomni?5callsig?8?$AA@ 0000000180039d28     libvcruntime:undname.obj
 0002:00000d38       ??_C@_0BL@CNOONJFP@?$GAplacement?5delete?5closure?8?$AA@ 0000000180039d38     libvcruntime:undname.obj
 0002:00000d58       ??_C@_0BN@CKNJLHMB@?$GAplacement?5delete?$FL?$FN?5closure?8?$AA@ 0000000180039d58     libvcruntime:undname.obj
 0002:00000d78       ??_C@_0CG@CFDHKGGD@?$GAmanaged?5vector?5constructor?5iter@ 0000000180039d78     libvcruntime:undname.obj
 0002:00000da0       ??_C@_0CF@IMGKMJNO@?$GAmanaged?5vector?5destructor?5itera@ 0000000180039da0     libvcruntime:undname.obj
 0002:00000dc8       ??_C@_0CG@HLDDJMAG@?$GAeh?5vector?5copy?5constructor?5iter@ 0000000180039dc8     libvcruntime:undname.obj
 0002:00000df0       ??_C@_0CM@FCBBDIGB@?$GAeh?5vector?5vbase?5copy?5constructo@ 0000000180039df0     libvcruntime:undname.obj
 0002:00000e20       ??_C@_0BL@CLIPGLGB@?$GAdynamic?5initializer?5for?5?8?$AA@ 0000000180039e20     libvcruntime:undname.obj
 0002:00000e40       ??_C@_0CB@PDBIFEP@?$GAdynamic?5atexit?5destructor?5for?5?8@ 0000000180039e40     libvcruntime:undname.obj
 0002:00000e68       ??_C@_0CD@CGAJBKEJ@?$GAvector?5copy?5constructor?5iterato@ 0000000180039e68     libvcruntime:undname.obj
 0002:00000e90       ??_C@_0CJ@GJELGAMM@?$GAvector?5vbase?5copy?5constructor?5i@ 0000000180039e90     libvcruntime:undname.obj
 0002:00000ec0       ??_C@_0CL@FGIJHLCE@?$GAmanaged?5vector?5copy?5constructor@ 0000000180039ec0     libvcruntime:undname.obj
 0002:00000ef0       ??_C@_0BM@PMGGMLDN@?$GAlocal?5static?5thread?5guard?8?$AA@ 0000000180039ef0     libvcruntime:undname.obj
 0002:00000f10       ??_C@_0N@BDNMDMOL@operator?5?$CC?$CC?5?$AA@ 0000000180039f10     libvcruntime:undname.obj
 0002:00000f20       ??_C@_0BC@DAFEJGAK@?5Type?5Descriptor?8?$AA@ 0000000180039f20     libvcruntime:undname.obj
 0002:00000f38       ??_C@_0BM@LDKODKLH@?5Base?5Class?5Descriptor?5at?5?$CI?$AA@ 0000000180039f38     libvcruntime:undname.obj
 0002:00000f58       ??_C@_0BD@LGICGFMM@?5Base?5Class?5Array?8?$AA@ 0000000180039f58     libvcruntime:undname.obj
 0002:00000f70       ??_C@_0BN@MECKDCOJ@?5Class?5Hierarchy?5Descriptor?8?$AA@ 0000000180039f70     libvcruntime:undname.obj
 0002:00000f90       ??_C@_0BK@CFCOFLF@?5Complete?5Object?5Locator?8?$AA@ 0000000180039f90     libvcruntime:undname.obj
 0002:00000fb0       ??_C@_1EK@MBDPDCGA@?$AAM?$AAi?$AAc?$AAr?$AAo?$AAs?$AAo?$AAf?$AAt?$AA?5?$AAV?$AAi?$AAs?$AAu?$AAa?$AAl?$AA?5?$AAC?$AA?$CL?$AA?$CL?$AA?5?$AAR?$AAu?$AAn?$AAt?$AAi?$AAm?$AAe?$AA?5?$AAL?$AAi?$AAb@ 0000000180039fb0     libucrt:assert.obj
 0002:00001000       ??_C@_1FE@LHBLIKM@?$AAA?$AAs?$AAs?$AAe?$AAr?$AAt?$AAi?$AAo?$AAn?$AA?5?$AAf?$AAa?$AAi?$AAl?$AAe?$AAd?$AA?3?$AA?5?$AA?$CF?$AAT?$AAs?$AA?0?$AA?5?$AAf?$AAi?$AAl?$AAe?$AA?5?$AA?$CF?$AAT?$AAs?$AA?0@ 000000018003a000     libucrt:assert.obj
 0002:00001058       ??_C@_1CE@OJBNHDMO@?$AAA?$AAs?$AAs?$AAe?$AAr?$AAt?$AAi?$AAo?$AAn?$AA?5?$AAf?$AAa?$AAi?$AAl?$AAe?$AAd?$AA?$CB?$AA?$AA@ 000000018003a058     libucrt:assert.obj
 0002:00001080       ??_C@_1BE@PHKBBGE@?$AAP?$AAr?$AAo?$AAg?$AAr?$AAa?$AAm?$AA?3?$AA?5?$AA?$AA@ 000000018003a080     libucrt:assert.obj
 0002:00001098       ??_C@_1O@HEMHKNDC@?$AAF?$AAi?$AAl?$AAe?$AA?3?$AA?5?$AA?$AA@ 000000018003a098     libucrt:assert.obj
 0002:000010a8       ??_C@_1O@KCAFKHJE@?$AAL?$AAi?$AAn?$AAe?$AA?3?$AA?5?$AA?$AA@ 000000018003a0a8     libucrt:assert.obj
 0002:000010b8       ??_C@_1BK@PEDCIPMA@?$AAE?$AAx?$AAp?$AAr?$AAe?$AAs?$AAs?$AAi?$AAo?$AAn?$AA?3?$AA?5?$AA?$AA@ 000000018003a0b8     libucrt:assert.obj
 0002:000010e0       ??_C@_1OA@EGMLFBHJ@?$AAF?$AAo?$AAr?$AA?5?$AAi?$AAn?$AAf?$AAo?$AAr?$AAm?$AAa?$AAt?$AAi?$AAo?$AAn?$AA?5?$AAo?$AAn?$AA?5?$AAh?$AAo?$AAw?$AA?5?$AAy?$AAo?$AAu?$AAr?$AA?5?$AAp?$AAr?$AAo?$AAg@ 000000018003a0e0     libucrt:assert.obj
 0002:000011c0       ??_C@_1HK@POCJMFGK@?$AA?$CI?$AAP?$AAr?$AAe?$AAs?$AAs?$AA?5?$AAR?$AAe?$AAt?$AAr?$AAy?$AA?5?$AAt?$AAo?$AA?5?$AAd?$AAe?$AAb?$AAu?$AAg?$AA?5?$AAt?$AAh?$AAe?$AA?5?$AAa?$AAp?$AAp?$AAl?$AAi?$AAc@ 000000018003a1c0     libucrt:assert.obj
 0002:00001240       ??_C@_17LGKOMLJ@?$AA?4?$AA?4?$AA?4?$AA?$AA@ 000000018003a240     libucrt:assert.obj
 0002:00001248       ??_C@_13LBAGMAIH@?$AA?6?$AA?$AA@ 000000018003a248     libucrt:assert.obj
 0002:0000124c       ??_C@_15IABLJNFO@?$AA?6?$AA?6?$AA?$AA@ 000000018003a24c     libucrt:assert.obj
 0002:00001258       ??_C@_1CO@EAEJAADC@?$AA?$DM?$AAp?$AAr?$AAo?$AAg?$AAr?$AAa?$AAm?$AA?5?$AAn?$AAa?$AAm?$AAe?$AA?5?$AAu?$AAn?$AAk?$AAn?$AAo?$AAw?$AAn?$AA?$DO?$AA?$AA@ 000000018003a258     libucrt:assert.obj
 0002:00001288       __real@0000000000000000    000000018003a288     libucrt:ldexp.obj
 0002:00001290       ??_C@_1BI@BGOHAHKC@?$AAm?$AAs?$AAc?$AAo?$AAr?$AAe?$AAe?$AA?4?$AAd?$AAl?$AAl?$AA?$AA@ 000000018003a290     libucrt:exit.obj
 0002:000012a8       ??_C@_0P@MIGLKIOC@CorExitProcess?$AA@ 000000018003a2a8     libucrt:exit.obj
 0002:000012c0       __acrt_exception_action_table 000000018003a2c0     libucrt:exception_filter.obj
 0002:00001380       __acrt_signal_action_table_count 000000018003a380     libucrt:exception_filter.obj
 0002:00001388       __acrt_signal_action_first_fpe_index 000000018003a388     libucrt:exception_filter.obj
 0002:00001390       __acrt_signal_action_fpe_count 000000018003a390     libucrt:exception_filter.obj
 0002:00001490       standard_lookup_table      000000018003a490     libucrt:output.obj
 0002:000014ec       ??_C@_06OJHGLDPL@?$CInull?$CJ?$AA@ 000000018003a4ec     libucrt:output.obj
 0002:000014f8       ??_C@_1O@CEDCILHN@?$AA?$CI?$AAn?$AAu?$AAl?$AAl?$AA?$CJ?$AA?$AA@ 000000018003a4f8     libucrt:output.obj
 0002:00001680       __lc_time_c                000000018003a680     libucrt:nlsdata.obj
 0002:00001940       ??_C@_03KOEHGMDN@Sun?$AA@  000000018003a940     libucrt:nlsdata.obj
 0002:00001944       ??_C@_03PDAGKDH@Mon?$AA@   000000018003a944     libucrt:nlsdata.obj
 0002:00001948       ??_C@_03NAGEINEP@Tue?$AA@  000000018003a948     libucrt:nlsdata.obj
 0002:0000194c       ??_C@_03MHOMLAJA@Wed?$AA@  000000018003a94c     libucrt:nlsdata.obj
 0002:00001950       ??_C@_03IOFIKPDN@Thu?$AA@  000000018003a950     libucrt:nlsdata.obj
 0002:00001954       ??_C@_03IDIOELNC@Fri?$AA@  000000018003a954     libucrt:nlsdata.obj
 0002:00001958       ??_C@_03FEFJNEK@Sat?$AA@   000000018003a958     libucrt:nlsdata.obj
 0002:0000195c       ??_C@_06OOPIFAJ@Sunday?$AA@ 000000018003a95c     libucrt:nlsdata.obj
 0002:00001964       ??_C@_06JLEDEDGH@Monday?$AA@ 000000018003a964     libucrt:nlsdata.obj
 0002:00001970       ??_C@_07BAAGCFCM@Tuesday?$AA@ 000000018003a970     libucrt:nlsdata.obj
 0002:00001978       ??_C@_09DLIGFAKA@Wednesday?$AA@ 000000018003a978     libucrt:nlsdata.obj
 0002:00001988       ??_C@_08HACCIKIA@Thursday?$AA@ 000000018003a988     libucrt:nlsdata.obj
 0002:00001994       ??_C@_06JECMNKMI@Friday?$AA@ 000000018003a994     libucrt:nlsdata.obj
 0002:000019a0       ??_C@_08INBOOONO@Saturday?$AA@ 000000018003a9a0     libucrt:nlsdata.obj
 0002:000019ac       ??_C@_03JIHJHPIE@Jan?$AA@  000000018003a9ac     libucrt:nlsdata.obj
 0002:000019b0       ??_C@_03HJBDCHOM@Feb?$AA@  000000018003a9b0     libucrt:nlsdata.obj
 0002:000019b4       ??_C@_03ODNJBKGA@Mar?$AA@  000000018003a9b4     libucrt:nlsdata.obj
 0002:000019b8       ??_C@_03LEOLGMJP@Apr?$AA@  000000018003a9b8     libucrt:nlsdata.obj
 0002:000019bc       ??_C@_03CNMDKL@May?$AA@    000000018003a9bc     libucrt:nlsdata.obj
 0002:000019c0       ??_C@_03IDFGHECI@Jun?$AA@  000000018003a9c0     libucrt:nlsdata.obj
 0002:000019c4       ??_C@_03LBGABGKK@Jul?$AA@  000000018003a9c4     libucrt:nlsdata.obj
 0002:000019c8       ??_C@_03IFJFEIGA@Aug?$AA@  000000018003a9c8     libucrt:nlsdata.obj
 0002:000019cc       ??_C@_03GGCAPAJC@Sep?$AA@  000000018003a9cc     libucrt:nlsdata.obj
 0002:000019d0       ??_C@_03BMAOKBAD@Oct?$AA@  000000018003a9d0     libucrt:nlsdata.obj
 0002:000019d4       ??_C@_03JPJOFNIA@Nov?$AA@  000000018003a9d4     libucrt:nlsdata.obj
 0002:000019d8       ??_C@_03MKABNOCG@Dec?$AA@  000000018003a9d8     libucrt:nlsdata.obj
 0002:000019e0       ??_C@_07CGJPFGJA@January?$AA@ 000000018003a9e0     libucrt:nlsdata.obj
 0002:000019e8       ??_C@_08GNJGEPFN@February?$AA@ 000000018003a9e8     libucrt:nlsdata.obj
 0002:000019f4       ??_C@_05HPCKOFNC@March?$AA@ 000000018003a9f4     libucrt:nlsdata.obj
 0002:000019fc       ??_C@_05DMJDNLEJ@April?$AA@ 000000018003a9fc     libucrt:nlsdata.obj
 0002:00001a04       ??_C@_04CNLMGBGM@June?$AA@ 000000018003aa04     libucrt:nlsdata.obj
 0002:00001a0c       ??_C@_04MIEPOIFP@July?$AA@ 000000018003aa0c     libucrt:nlsdata.obj
 0002:00001a14       ??_C@_06LBBHFDDG@August?$AA@ 000000018003aa14     libucrt:nlsdata.obj
 0002:00001a20       ??_C@_09BHHEALKD@September?$AA@ 000000018003aa20     libucrt:nlsdata.obj
 0002:00001a30       ??_C@_07JJNFCEND@October?$AA@ 000000018003aa30     libucrt:nlsdata.obj
 0002:00001a38       ??_C@_08HCHEGEOA@November?$AA@ 000000018003aa38     libucrt:nlsdata.obj
 0002:00001a48       ??_C@_08EDHMEBNP@December?$AA@ 000000018003aa48     libucrt:nlsdata.obj
 0002:00001a54       ??_C@_02DEDBPAFC@AM?$AA@   000000018003aa54     libucrt:nlsdata.obj
 0002:00001a58       ??_C@_02CJNFDJBF@PM?$AA@   000000018003aa58     libucrt:nlsdata.obj
 0002:00001a60       ??_C@_08BPBNCDIB@MM?1dd?1yy?$AA@ 000000018003aa60     libucrt:nlsdata.obj
 0002:00001a70       ??_C@_0BE@CKGJFCPC@dddd?0?5MMMM?5dd?0?5yyyy?$AA@ 000000018003aa70     libucrt:nlsdata.obj
 0002:00001a88       ??_C@_08JCCMCCIL@HH?3mm?3ss?$AA@ 000000018003aa88     libucrt:nlsdata.obj
 0002:00001a98       ??_C@_17MBGCMIPB@?$AAS?$AAu?$AAn?$AA?$AA@ 000000018003aa98     libucrt:nlsdata.obj
 0002:00001aa0       ??_C@_17KBOMKBF@?$AAM?$AAo?$AAn?$AA?$AA@ 000000018003aaa0     libucrt:nlsdata.obj
 0002:00001aa8       ??_C@_17BMKGEGOJ@?$AAT?$AAu?$AAe?$AA?$AA@ 000000018003aaa8     libucrt:nlsdata.obj
 0002:00001ab0       ??_C@_17CJEDCEPE@?$AAW?$AAe?$AAd?$AA?$AA@ 000000018003aab0     libucrt:nlsdata.obj
 0002:00001ab8       ??_C@_17PDPHAADD@?$AAT?$AAh?$AAu?$AA?$AA@ 000000018003aab8     libucrt:nlsdata.obj
 0002:00001ac0       ??_C@_17HFOLPPLP@?$AAF?$AAr?$AAi?$AA?$AA@ 000000018003aac0     libucrt:nlsdata.obj
 0002:00001ac8       ??_C@_17GGIBDPIH@?$AAS?$AAa?$AAt?$AA?$AA@ 000000018003aac8     libucrt:nlsdata.obj
 0002:00001ad0       ??_C@_1O@IHNHDHPB@?$AAS?$AAu?$AAn?$AAd?$AAa?$AAy?$AA?$AA@ 000000018003aad0     libucrt:nlsdata.obj
 0002:00001ae0       ??_C@_1O@MMNBFLIA@?$AAM?$AAo?$AAn?$AAd?$AAa?$AAy?$AA?$AA@ 000000018003aae0     libucrt:nlsdata.obj
 0002:00001af0       ??_C@_1BA@ENFBFFEK@?$AAT?$AAu?$AAe?$AAs?$AAd?$AAa?$AAy?$AA?$AA@ 000000018003aaf0     libucrt:nlsdata.obj
 0002:00001b00       ??_C@_1BE@EBOGMDOH@?$AAW?$AAe?$AAd?$AAn?$AAe?$AAs?$AAd?$AAa?$AAy?$AA?$AA@ 000000018003ab00     libucrt:nlsdata.obj
 0002:00001b18       ??_C@_1BC@HHMNLIHE@?$AAT?$AAh?$AAu?$AAr?$AAs?$AAd?$AAa?$AAy?$AA?$AA@ 000000018003ab18     libucrt:nlsdata.obj
 0002:00001b30       ??_C@_1O@PDICJHAG@?$AAF?$AAr?$AAi?$AAd?$AAa?$AAy?$AA?$AA@ 000000018003ab30     libucrt:nlsdata.obj
 0002:00001b40       ??_C@_1BC@ENMNNPAJ@?$AAS?$AAa?$AAt?$AAu?$AAr?$AAd?$AAa?$AAy?$AA?$AA@ 000000018003ab40     libucrt:nlsdata.obj
 0002:00001b58       ??_C@_17DKNBKCHM@?$AAJ?$AAa?$AAn?$AA?$AA@ 000000018003ab58     libucrt:nlsdata.obj
 0002:00001b60       ??_C@_17LMDJEKJN@?$AAF?$AAe?$AAb?$AA?$AA@ 000000018003ab60     libucrt:nlsdata.obj
 0002:00001b68       ??_C@_17CKNLEDEC@?$AAM?$AAa?$AAr?$AA?$AA@ 000000018003ab68     libucrt:nlsdata.obj
 0002:00001b70       ??_C@_17LFPOIHDD@?$AAA?$AAp?$AAr?$AA?$AA@ 000000018003ab70     libucrt:nlsdata.obj
 0002:00001b78       ??_C@_17PNNKMEED@?$AAM?$AAa?$AAy?$AA?$AA@ 000000018003ab78     libucrt:nlsdata.obj
 0002:00001b80       ??_C@_17KCJGOCPB@?$AAJ?$AAu?$AAn?$AA?$AA@ 000000018003ab80     libucrt:nlsdata.obj
 0002:00001b88       ??_C@_17IJPCKHK@?$AAJ?$AAu?$AAl?$AA?$AA@ 000000018003ab88     libucrt:nlsdata.obj
 0002:00001b90       ??_C@_17ICPELBCN@?$AAA?$AAu?$AAg?$AA?$AA@ 000000018003ab90     libucrt:nlsdata.obj
 0002:00001b98       ??_C@_17HCHCOKMG@?$AAS?$AAe?$AAp?$AA?$AA@ 000000018003ab98     libucrt:nlsdata.obj
 0002:00001ba0       ??_C@_17FNLKOI@?$AAO?$AAc?$AAt?$AA?$AA@ 000000018003aba0     libucrt:nlsdata.obj
 0002:00001ba8       ??_C@_17BBDMLCIG@?$AAN?$AAo?$AAv?$AA?$AA@ 000000018003aba8     libucrt:nlsdata.obj
 0002:00001bb0       ??_C@_17EGKACKIF@?$AAD?$AAe?$AAc?$AA?$AA@ 000000018003abb0     libucrt:nlsdata.obj
 0002:00001bb8       ??_C@_1BA@EFMEIEBA@?$AAJ?$AAa?$AAn?$AAu?$AAa?$AAr?$AAy?$AA?$AA@ 000000018003abb8     libucrt:nlsdata.obj
 0002:00001bc8       ??_C@_1BC@JGDDFFAM@?$AAF?$AAe?$AAb?$AAr?$AAu?$AAa?$AAr?$AAy?$AA?$AA@ 000000018003abc8     libucrt:nlsdata.obj
 0002:00001be0       ??_C@_1M@IKEENEDF@?$AAM?$AAa?$AAr?$AAc?$AAh?$AA?$AA@ 000000018003abe0     libucrt:nlsdata.obj
 0002:00001bf0       ??_C@_1M@GJNLMHFD@?$AAA?$AAp?$AAr?$AAi?$AAl?$AA?$AA@ 000000018003abf0     libucrt:nlsdata.obj
 0002:00001c00       ??_C@_19EPFLPGAP@?$AAJ?$AAu?$AAn?$AAe?$AA?$AA@ 000000018003ac00     libucrt:nlsdata.obj
 0002:00001c10       ??_C@_19BIFMLPCD@?$AAJ?$AAu?$AAl?$AAy?$AA?$AA@ 000000018003ac10     libucrt:nlsdata.obj
 0002:00001c20       ??_C@_1O@PAHLKOAC@?$AAA?$AAu?$AAg?$AAu?$AAs?$AAt?$AA?$AA@ 000000018003ac20     libucrt:nlsdata.obj
 0002:00001c30       ??_C@_1BE@DKAAMBJL@?$AAS?$AAe?$AAp?$AAt?$AAe?$AAm?$AAb?$AAe?$AAr?$AA?$AA@ 000000018003ac30     libucrt:nlsdata.obj
 0002:00001c48       ??_C@_1BA@EPANDLNG@?$AAO?$AAc?$AAt?$AAo?$AAb?$AAe?$AAr?$AA?$AA@ 000000018003ac48     libucrt:nlsdata.obj
 0002:00001c58       ??_C@_1BC@BGLIFPF@?$AAN?$AAo?$AAv?$AAe?$AAm?$AAb?$AAe?$AAr?$AA?$AA@ 000000018003ac58     libucrt:nlsdata.obj
 0002:00001c70       ??_C@_1BC@FEMKIFH@?$AAD?$AAe?$AAc?$AAe?$AAm?$AAb?$AAe?$AAr?$AA?$AA@ 000000018003ac70     libucrt:nlsdata.obj
 0002:00001c84       ??_C@_15ODEHAHHF@?$AAA?$AAM?$AA?$AA@ 000000018003ac84     libucrt:nlsdata.obj
 0002:00001c8c       ??_C@_15CLMNNGEL@?$AAP?$AAM?$AA?$AA@ 000000018003ac8c     libucrt:nlsdata.obj
 0002:00001c98       ??_C@_1BC@IEBCMHCM@?$AAM?$AAM?$AA?1?$AAd?$AAd?$AA?1?$AAy?$AAy?$AA?$AA@ 000000018003ac98     libucrt:nlsdata.obj
 0002:00001cb0       ??_C@_1CI@KNAKOEBC@?$AAd?$AAd?$AAd?$AAd?$AA?0?$AA?5?$AAM?$AAM?$AAM?$AAM?$AA?5?$AAd?$AAd?$AA?0?$AA?5?$AAy?$AAy?$AAy?$AAy?$AA?$AA@ 000000018003acb0     libucrt:nlsdata.obj
 0002:00001cd8       ??_C@_1BC@GDGBMEMK@?$AAH?$AAH?$AA?3?$AAm?$AAm?$AA?3?$AAs?$AAs?$AA?$AA@ 000000018003acd8     libucrt:nlsdata.obj
 0002:00001cf0       ??_C@_1M@BMHNFIME@?$AAe?$AAn?$AA?9?$AAU?$AAS?$AA?$AA@ 000000018003acf0     libucrt:nlsdata.obj
 0002:00001d00       __newctype                 000000018003ad00     libucrt:ctype.obj
 0002:00002000       __newclmap                 000000018003b000     libucrt:ctype.obj
 0002:00002180       __newcumap                 000000018003b180     libucrt:ctype.obj
 0002:00002300       _wctype                    000000018003b300     libucrt:ctype.obj
 0002:00002508       _d_inf                     000000018003b508     libucrt:util.obj
 0002:00002510       _d_max                     000000018003b510     libucrt:util.obj
 0002:000026f0       ??_C@_03KHJOGHMM@exp?$AA@  000000018003b6f0     libucrt:fpexcept.obj
 0002:000026f4       ??_C@_03JGHBODFD@pow?$AA@  000000018003b6f4     libucrt:fpexcept.obj
 0002:000026f8       ??_C@_03MGHMBJCF@log?$AA@  000000018003b6f8     libucrt:fpexcept.obj
 0002:000026fc       ??_C@_05HGHHAHAP@log10?$AA@ 000000018003b6fc     libucrt:fpexcept.obj
 0002:00002704       ??_C@_04COOMCNPB@sinh?$AA@ 000000018003b704     libucrt:fpexcept.obj
 0002:0000270c       ??_C@_04HPJJNFIM@cosh?$AA@ 000000018003b70c     libucrt:fpexcept.obj
 0002:00002714       ??_C@_04FJHINJAO@tanh?$AA@ 000000018003b714     libucrt:fpexcept.obj
 0002:0000271c       ??_C@_04FIHNOPOL@asin?$AA@ 000000018003b71c     libucrt:fpexcept.obj
 0002:00002724       ??_C@_04PDIFKINK@acos?$AA@ 000000018003b724     libucrt:fpexcept.obj
 0002:0000272c       ??_C@_04MLLJIGOK@atan?$AA@ 000000018003b72c     libucrt:fpexcept.obj
 0002:00002734       ??_C@_05KNGEOGJB@atan2?$AA@ 000000018003b734     libucrt:fpexcept.obj
 0002:0000273c       ??_C@_04EIAKFFMI@sqrt?$AA@ 000000018003b73c     libucrt:fpexcept.obj
 0002:00002744       ??_C@_03BLEJJJBH@sin?$AA@  000000018003b744     libucrt:fpexcept.obj
 0002:00002748       ??_C@_03LALBNOCG@cos?$AA@  000000018003b748     libucrt:fpexcept.obj
 0002:0000274c       ??_C@_03IIINPABG@tan?$AA@  000000018003b74c     libucrt:fpexcept.obj
 0002:00002750       ??_C@_04GFPJNGEK@ceil?$AA@ 000000018003b750     libucrt:fpexcept.obj
 0002:00002758       ??_C@_05PBJFFIGL@floor?$AA@ 000000018003b758     libucrt:fpexcept.obj
 0002:00002760       ??_C@_04ODHECPBC@fabs?$AA@ 000000018003b760     libucrt:fpexcept.obj
 0002:00002768       ??_C@_04EHEDPDJG@modf?$AA@ 000000018003b768     libucrt:fpexcept.obj
 0002:00002770       ??_C@_05CEJMAHNP@ldexp?$AA@ 000000018003b770     libucrt:fpexcept.obj
 0002:00002778       ??_C@_05KBKMEMPO@_cabs?$AA@ 000000018003b778     libucrt:fpexcept.obj
 0002:00002780       ??_C@_06MEIMCGCF@_hypot?$AA@ 000000018003b780     libucrt:fpexcept.obj
 0002:00002788       ??_C@_04KEPJIHGP@fmod?$AA@ 000000018003b788     libucrt:fpexcept.obj
 0002:00002790       ??_C@_05GKKHEGJL@frexp?$AA@ 000000018003b790     libucrt:fpexcept.obj
 0002:00002798       ??_C@_03MJLDFKDL@_y0?$AA@  000000018003b798     libucrt:fpexcept.obj
 0002:0000279c       ??_C@_03NAKIGLHK@_y1?$AA@  000000018003b79c     libucrt:fpexcept.obj
 0002:000027a0       ??_C@_03ONILCKOB@_yn?$AA@  000000018003b7a0     libucrt:fpexcept.obj
 0002:000027a4       ??_C@_05JGDBENOH@_logb?$AA@ 000000018003b7a4     libucrt:fpexcept.obj
 0002:000027b0       ??_C@_0L@KDOEJCKC@_nextafter?$AA@ 000000018003b7b0     libucrt:fpexcept.obj
 0002:00002860       ??_C@_1EG@CNNIPFIM@?$AAa?$AAp?$AAi?$AA?9?$AAm?$AAs?$AA?9?$AAw?$AAi?$AAn?$AA?9?$AAa?$AAp?$AAp?$AAm?$AAo?$AAd?$AAe?$AAl?$AA?9?$AAr?$AAu?$AAn?$AAt?$AAi?$AAm?$AAe?$AA?9?$AAl?$AA1?$AA?9?$AA1@ 000000018003b860     libucrt:winapi_thunks.obj
 0002:000028b0       ??_C@_1EA@JGEFHKEI@?$AAa?$AAp?$AAi?$AA?9?$AAm?$AAs?$AA?9?$AAw?$AAi?$AAn?$AA?9?$AAc?$AAo?$AAr?$AAe?$AA?9?$AAd?$AAa?$AAt?$AAe?$AAt?$AAi?$AAm?$AAe?$AA?9?$AAl?$AA1?$AA?9?$AA1?$AA?9?$AA1?$AA?$AA@ 000000018003b8b0     libucrt:winapi_thunks.obj
 0002:000028f0       ??_C@_1DI@GCIAAENM@?$AAa?$AAp?$AAi?$AA?9?$AAm?$AAs?$AA?9?$AAw?$AAi?$AAn?$AA?9?$AAc?$AAo?$AAr?$AAe?$AA?9?$AAf?$AAi?$AAl?$AAe?$AA?9?$AAl?$AA2?$AA?9?$AA1?$AA?9?$AA1?$AA?$AA@ 000000018003b8f0     libucrt:winapi_thunks.obj
 0002:00002930       ??_C@_1EI@MPIAOHOC@?$AAa?$AAp?$AAi?$AA?9?$AAm?$AAs?$AA?9?$AAw?$AAi?$AAn?$AA?9?$AAc?$AAo?$AAr?$AAe?$AA?9?$AAl?$AAo?$AAc?$AAa?$AAl?$AAi?$AAz?$AAa?$AAt?$AAi?$AAo?$AAn?$AA?9?$AAl?$AA1?$AA?9@ 000000018003b930     libucrt:winapi_thunks.obj
 0002:00002980       ??_C@_1FK@FPHCKFIE@?$AAa?$AAp?$AAi?$AA?9?$AAm?$AAs?$AA?9?$AAw?$AAi?$AAn?$AA?9?$AAc?$AAo?$AAr?$AAe?$AA?9?$AAl?$AAo?$AAc?$AAa?$AAl?$AAi?$AAz?$AAa?$AAt?$AAi?$AAo?$AAn?$AA?9?$AAo?$AAb?$AAs@ 000000018003b980     libucrt:winapi_thunks.obj
 0002:000029e0       ??_C@_1EM@DILCGIIO@?$AAa?$AAp?$AAi?$AA?9?$AAm?$AAs?$AA?9?$AAw?$AAi?$AAn?$AA?9?$AAc?$AAo?$AAr?$AAe?$AA?9?$AAp?$AAr?$AAo?$AAc?$AAe?$AAs?$AAs?$AAt?$AAh?$AAr?$AAe?$AAa?$AAd?$AAs?$AA?9?$AAl@ 000000018003b9e0     libucrt:winapi_thunks.obj
 0002:00002a30       ??_C@_1DM@LNCGDDPN@?$AAa?$AAp?$AAi?$AA?9?$AAm?$AAs?$AA?9?$AAw?$AAi?$AAn?$AA?9?$AAc?$AAo?$AAr?$AAe?$AA?9?$AAs?$AAt?$AAr?$AAi?$AAn?$AAg?$AA?9?$AAl?$AA1?$AA?9?$AA1?$AA?9?$AA0?$AA?$AA@ 000000018003ba30     libucrt:winapi_thunks.obj
 0002:00002a70       ??_C@_1DO@FPAPJEMD@?$AAa?$AAp?$AAi?$AA?9?$AAm?$AAs?$AA?9?$AAw?$AAi?$AAn?$AA?9?$AAc?$AAo?$AAr?$AAe?$AA?9?$AAs?$AAy?$AAs?$AAi?$AAn?$AAf?$AAo?$AA?9?$AAl?$AA1?$AA?9?$AA2?$AA?9?$AA1?$AA?$AA@ 000000018003ba70     libucrt:winapi_thunks.obj
 0002:00002ab0       ??_C@_1DK@NDHNAHIO@?$AAa?$AAp?$AAi?$AA?9?$AAm?$AAs?$AA?9?$AAw?$AAi?$AAn?$AA?9?$AAc?$AAo?$AAr?$AAe?$AA?9?$AAw?$AAi?$AAn?$AAr?$AAt?$AA?9?$AAl?$AA1?$AA?9?$AA1?$AA?9?$AA0?$AA?$AA@ 000000018003bab0     libucrt:winapi_thunks.obj
 0002:00002af0       ??_C@_1DM@KGHDGBCM@?$AAa?$AAp?$AAi?$AA?9?$AAm?$AAs?$AA?9?$AAw?$AAi?$AAn?$AA?9?$AAc?$AAo?$AAr?$AAe?$AA?9?$AAx?$AAs?$AAt?$AAa?$AAt?$AAe?$AA?9?$AAl?$AA2?$AA?9?$AA1?$AA?9?$AA0?$AA?$AA@ 000000018003baf0     libucrt:winapi_thunks.obj
 0002:00002b30       ??_C@_1EO@IJIOEFOH@?$AAa?$AAp?$AAi?$AA?9?$AAm?$AAs?$AA?9?$AAw?$AAi?$AAn?$AA?9?$AAr?$AAt?$AAc?$AAo?$AAr?$AAe?$AA?9?$AAn?$AAt?$AAu?$AAs?$AAe?$AAr?$AA?9?$AAw?$AAi?$AAn?$AAd?$AAo?$AAw?$AA?9@ 000000018003bb30     libucrt:winapi_thunks.obj
 0002:00002b80       ??_C@_1FG@HHGEKANL@?$AAa?$AAp?$AAi?$AA?9?$AAm?$AAs?$AA?9?$AAw?$AAi?$AAn?$AA?9?$AAs?$AAe?$AAc?$AAu?$AAr?$AAi?$AAt?$AAy?$AA?9?$AAs?$AAy?$AAs?$AAt?$AAe?$AAm?$AAf?$AAu?$AAn?$AAc?$AAt?$AAi@ 000000018003bb80     libucrt:winapi_thunks.obj
 0002:00002be0       ??_C@_1FG@NCKKOLKO@?$AAe?$AAx?$AAt?$AA?9?$AAm?$AAs?$AA?9?$AAw?$AAi?$AAn?$AA?9?$AAk?$AAe?$AAr?$AAn?$AAe?$AAl?$AA3?$AA2?$AA?9?$AAp?$AAa?$AAc?$AAk?$AAa?$AAg?$AAe?$AA?9?$AAc?$AAu?$AAr?$AAr@ 000000018003bbe0     libucrt:winapi_thunks.obj
 0002:00002c40       ??_C@_1EG@DBIOJECG@?$AAe?$AAx?$AAt?$AA?9?$AAm?$AAs?$AA?9?$AAw?$AAi?$AAn?$AA?9?$AAn?$AAt?$AAu?$AAs?$AAe?$AAr?$AA?9?$AAd?$AAi?$AAa?$AAl?$AAo?$AAg?$AAb?$AAo?$AAx?$AA?9?$AAl?$AA1?$AA?9?$AA1@ 000000018003bc40     libucrt:winapi_thunks.obj
 0002:00002c90       ??_C@_1EO@FIHMJCLF@?$AAe?$AAx?$AAt?$AA?9?$AAm?$AAs?$AA?9?$AAw?$AAi?$AAn?$AA?9?$AAn?$AAt?$AAu?$AAs?$AAe?$AAr?$AA?9?$AAw?$AAi?$AAn?$AAd?$AAo?$AAw?$AAs?$AAt?$AAa?$AAt?$AAi?$AAo?$AAn?$AA?9@ 000000018003bc90     libucrt:winapi_thunks.obj
 0002:00002ce0       ??_C@_1O@BCCLBEOE@?$AAu?$AAs?$AAe?$AAr?$AA3?$AA2?$AA?$AA@ 000000018003bce0     libucrt:winapi_thunks.obj
 0002:00002d18       ??_C@_0BA@HNOPNCHB@GetActiveWindow?$AA@ 000000018003bd18     libucrt:winapi_thunks.obj
 0002:00002d30       ??_C@_0BE@JOGNEJCI@GetCurrentPackageId?$AA@ 000000018003bd30     libucrt:winapi_thunks.obj
 0002:00002d50       ??_C@_0BD@HHGDFDBJ@GetLastActivePopup?$AA@ 000000018003bd50     libucrt:winapi_thunks.obj
 0002:00002d70       ??_C@_0BI@DFKBFLJE@GetProcessWindowStation?$AA@ 000000018003bd70     libucrt:winapi_thunks.obj
 0002:00002d90       ??_C@_0BK@DEKFELLI@GetUserObjectInformationW?$AA@ 000000018003bd90     libucrt:winapi_thunks.obj
 0002:00002dc0       ??_C@_0O@KKBNKAPF@LCMapStringEx?$AA@ 000000018003bdc0     libucrt:winapi_thunks.obj
 0002:00002dd8       ??_C@_0BB@HBDEELFH@LocaleNameToLCID?$AA@ 000000018003bdd8     libucrt:winapi_thunks.obj
 0002:00002df8       ??_C@_0M@CHKKJDAI@MessageBoxA?$AA@ 000000018003bdf8     libucrt:winapi_thunks.obj
 0002:00002e10       ??_C@_0M@DLDCCGNP@MessageBoxW?$AA@ 000000018003be10     libucrt:winapi_thunks.obj
 0002:00002e40       ??_C@_1M@HPNHIDJI@?$AAj?$AAa?$AA?9?$AAJ?$AAP?$AA?$AA@ 000000018003be40     libucrt:mbctype.obj
 0002:00002e50       ??_C@_1M@BIBDDEMK@?$AAz?$AAh?$AA?9?$AAC?$AAN?$AA?$AA@ 000000018003be50     libucrt:mbctype.obj
 0002:00002e60       ??_C@_1M@JLOOOEGK@?$AAk?$AAo?$AA?9?$AAK?$AAR?$AA?$AA@ 000000018003be60     libucrt:mbctype.obj
 0002:00002e70       ??_C@_1M@CLNBBOPM@?$AAz?$AAh?$AA?9?$AAT?$AAW?$AA?$AA@ 000000018003be70     libucrt:mbctype.obj
 0002:00002e7c       ??_C@_03OEIAHPBN@INF?$AA@  000000018003be7c     libucrt:cvt.obj
 0002:00002e80       ??_C@_03OJHLLCGB@inf?$AA@  000000018003be80     libucrt:cvt.obj
 0002:00002e84       ??_C@_03LKNCIKJB@NAN?$AA@  000000018003be84     libucrt:cvt.obj
 0002:00002e88       ??_C@_03LHCJEHON@nan?$AA@  000000018003be88     libucrt:cvt.obj
 0002:00002e90       ??_C@_09OFJJIMPC@NAN?$CISNAN?$CJ?$AA@ 000000018003be90     libucrt:cvt.obj
 0002:00002ea0       ??_C@_09IPFBKMDL@nan?$CIsnan?$CJ?$AA@ 000000018003bea0     libucrt:cvt.obj
 0002:00002eb0       ??_C@_08IKHNHAJ@NAN?$CIIND?$CJ?$AA@ 000000018003beb0     libucrt:cvt.obj
 0002:00002ec0       ??_C@_08OFCDMILK@nan?$CIind?$CJ?$AA@ 000000018003bec0     libucrt:cvt.obj
 0002:00002ecc       ??_C@_05KLBDPFGC@e?$CL000?$AA@ 000000018003becc     libucrt:cvt.obj
 0002:00002ed4       ??_C@_15PJPFLCCM@?$AAu?$AAk?$AA?$AA@ 000000018003bed4     libucrt:get_qualified_locale.obj
 0002:00003d30       ??_C@_15EMKDOKLE@?$AAa?$AAr?$AA?$AA@ 000000018003cd30     libucrt:lcidtoname_downlevel.obj
 0002:00003d38       ??_C@_15KNPADPLH@?$AAb?$AAg?$AA?$AA@ 000000018003cd38     libucrt:lcidtoname_downlevel.obj
 0002:00003d40       ??_C@_15EDMHLDMO@?$AAc?$AAa?$AA?$AA@ 000000018003cd40     libucrt:lcidtoname_downlevel.obj
 0002:00003d48       ??_C@_1O@BPEAJADD@?$AAz?$AAh?$AA?9?$AAC?$AAH?$AAS?$AA?$AA@ 000000018003cd48     libucrt:lcidtoname_downlevel.obj
 0002:00003d58       ??_C@_15LJNHCMNK@?$AAc?$AAs?$AA?$AA@ 000000018003cd58     libucrt:lcidtoname_downlevel.obj
 0002:00003d60       ??_C@_15FOMCIDHG@?$AAd?$AAa?$AA?$AA@ 000000018003cd60     libucrt:lcidtoname_downlevel.obj
 0002:00003d68       ??_C@_15NBKABECB@?$AAd?$AAe?$AA?$AA@ 000000018003cd68     libucrt:lcidtoname_downlevel.obj
 0002:00003d70       ??_C@_15GHPEIIAO@?$AAe?$AAl?$AA?$AA@ 000000018003cd70     libucrt:lcidtoname_downlevel.obj
 0002:00003d78       ??_C@_15MNPNEAIF@?$AAe?$AAn?$AA?$AA@ 000000018003cd78     libucrt:lcidtoname_downlevel.obj
 0002:00003d80       ??_C@_15GPIOMPMH@?$AAe?$AAs?$AA?$AA@ 000000018003cd80     libucrt:lcidtoname_downlevel.obj
 0002:00003d88       ??_C@_15NGLOAKJC@?$AAf?$AAi?$AA?$AA@ 000000018003cd88     libucrt:lcidtoname_downlevel.obj
 0002:00003d90       ??_C@_15FBKGNKAM@?$AAf?$AAr?$AA?$AA@ 000000018003cd90     libucrt:lcidtoname_downlevel.obj
 0002:00003d98       ??_C@_15KGGCNEFK@?$AAh?$AAe?$AA?$AA@ 000000018003cd98     libucrt:lcidtoname_downlevel.obj
 0002:00003da0       ??_C@_15PGHLIDMF@?$AAh?$AAu?$AA?$AA@ 000000018003cda0     libucrt:lcidtoname_downlevel.obj
 0002:00003da8       ??_C@_15BIEMAPLM@?$AAi?$AAs?$AA?$AA@ 000000018003cda8     libucrt:lcidtoname_downlevel.obj
 0002:00003db0       ??_C@_15IFJLDHAF@?$AAi?$AAt?$AA?$AA@ 000000018003cdb0     libucrt:lcidtoname_downlevel.obj
 0002:00003db8       ??_C@_15GEMIOCAG@?$AAj?$AAa?$AA?$AA@ 000000018003cdb8     libucrt:lcidtoname_downlevel.obj
 0002:00003dc0       ??_C@_15EPELEGJA@?$AAk?$AAo?$AA?$AA@ 000000018003cdc0     libucrt:lcidtoname_downlevel.obj
 0002:00003dc8       ??_C@_15NDDHIMN@?$AAn?$AAl?$AA?$AA@ 000000018003cdc8     libucrt:lcidtoname_downlevel.obj
 0002:00003dd0       ??_C@_15BPIGNHCD@?$AAn?$AAo?$AA?$AA@ 000000018003cdd0     libucrt:lcidtoname_downlevel.obj
 0002:00003dd8       ??_C@_15DEOPBLCG@?$AAp?$AAl?$AA?$AA@ 000000018003cdd8     libucrt:lcidtoname_downlevel.obj
 0002:00003de0       ??_C@_15KBECGEFG@?$AAp?$AAt?$AA?$AA@ 000000018003cde0     libucrt:lcidtoname_downlevel.obj
 0002:00003de8       ??_C@_15GLJCBFMD@?$AAr?$AAo?$AA?$AA@ 000000018003cde8     libucrt:lcidtoname_downlevel.obj
 0002:00003df0       ??_C@_15FEDGKCDI@?$AAr?$AAu?$AA?$AA@ 000000018003cdf0     libucrt:lcidtoname_downlevel.obj
 0002:00003df8       ??_C@_15GLKMLLHM@?$AAh?$AAr?$AA?$AA@ 000000018003cdf8     libucrt:lcidtoname_downlevel.obj
 0002:00003e00       ??_C@_15CPKMFBDB@?$AAs?$AAk?$AA?$AA@ 000000018003ce00     libucrt:lcidtoname_downlevel.obj
 0002:00003e08       ??_C@_15BAAIOGMK@?$AAs?$AAq?$AA?$AA@ 000000018003ce08     libucrt:lcidtoname_downlevel.obj
 0002:00003e10       ??_C@_15INNPNOHD@?$AAs?$AAv?$AA?$AA@ 000000018003ce10     libucrt:lcidtoname_downlevel.obj
 0002:00003e18       ??_C@_15CABMMOGH@?$AAt?$AAh?$AA?$AA@ 000000018003ce18     libucrt:lcidtoname_downlevel.obj
 0002:00003e20       ??_C@_15BPLIHJJM@?$AAt?$AAr?$AA?$AA@ 000000018003ce20     libucrt:lcidtoname_downlevel.obj
 0002:00003e28       ??_C@_15NEOEKKDJ@?$AAu?$AAr?$AA?$AA@ 000000018003ce28     libucrt:lcidtoname_downlevel.obj
 0002:00003e30       ??_C@_15NFICGAJK@?$AAi?$AAd?$AA?$AA@ 000000018003ce30     libucrt:lcidtoname_downlevel.obj
 0002:00003e38       ??_C@_15HPJPHDM@?$AAb?$AAe?$AA?$AA@ 000000018003ce38     libucrt:lcidtoname_downlevel.obj
 0002:00003e40       ??_C@_15LCHLGJII@?$AAs?$AAl?$AA?$AA@ 000000018003ce40     libucrt:lcidtoname_downlevel.obj
 0002:00003e48       ??_C@_15PCFJPHHO@?$AAe?$AAt?$AA?$AA@ 000000018003ce48     libucrt:lcidtoname_downlevel.obj
 0002:00003e50       ??_C@_15HPFPGODN@?$AAl?$AAv?$AA?$AA@ 000000018003ce50     libucrt:lcidtoname_downlevel.obj
 0002:00003e58       ??_C@_15NFFGKGLG@?$AAl?$AAt?$AA?$AA@ 000000018003ce58     libucrt:lcidtoname_downlevel.obj
 0002:00003e60       ??_C@_15BDAKCCHN@?$AAf?$AAa?$AA?$AA@ 000000018003ce60     libucrt:lcidtoname_downlevel.obj
 0002:00003e68       ??_C@_15NFGIAIAJ@?$AAv?$AAi?$AA?$AA@ 000000018003ce68     libucrt:lcidtoname_downlevel.obj
 0002:00003e70       ??_C@_15LMKNDMHN@?$AAh?$AAy?$AA?$AA@ 000000018003ce70     libucrt:lcidtoname_downlevel.obj
 0002:00003e78       ??_C@_15IJBHMCFL@?$AAa?$AAz?$AA?$AA@ 000000018003ce78     libucrt:lcidtoname_downlevel.obj
 0002:00003e80       ??_C@_15EKOFJABL@?$AAe?$AAu?$AA?$AA@ 000000018003ce80     libucrt:lcidtoname_downlevel.obj
 0002:00003e88       ??_C@_15BGHADCNK@?$AAm?$AAk?$AA?$AA@ 000000018003ce88     libucrt:lcidtoname_downlevel.obj
 0002:00003e90       ??_C@_15JDNICKHM@?$AAa?$AAf?$AA?$AA@ 000000018003ce90     libucrt:lcidtoname_downlevel.obj
 0002:00003e98       ??_C@_15KPJEDBKD@?$AAk?$AAa?$AA?$AA@ 000000018003ce98     libucrt:lcidtoname_downlevel.obj
 0002:00003ea0       ??_C@_15PDNFFFEO@?$AAf?$AAo?$AA?$AA@ 000000018003cea0     libucrt:lcidtoname_downlevel.obj
 0002:00003ea8       ??_C@_15OMLEGLOC@?$AAh?$AAi?$AA?$AA@ 000000018003cea8     libucrt:lcidtoname_downlevel.obj
 0002:00003eb0       ??_C@_15IDNNENKK@?$AAm?$AAs?$AA?$AA@ 000000018003ceb0     libucrt:lcidtoname_downlevel.obj
 0002:00003eb8       ??_C@_15MACJNBMH@?$AAk?$AAk?$AA?$AA@ 000000018003ceb8     libucrt:lcidtoname_downlevel.obj
 0002:00003ec0       ??_C@_15DKDJEOND@?$AAk?$AAy?$AA?$AA@ 000000018003cec0     libucrt:lcidtoname_downlevel.obj
 0002:00003ec8       ??_C@_15DFGDLJBG@?$AAs?$AAw?$AA?$AA@ 000000018003cec8     libucrt:lcidtoname_downlevel.obj
 0002:00003ed0       ??_C@_15BBFAICNG@?$AAu?$AAz?$AA?$AA@ 000000018003ced0     libucrt:lcidtoname_downlevel.obj
 0002:00003ed8       ??_C@_15DKNDCGEA@?$AAt?$AAt?$AA?$AA@ 000000018003ced8     libucrt:lcidtoname_downlevel.obj
 0002:00003ee0       ??_C@_15MGIFMDPL@?$AAp?$AAa?$AA?$AA@ 000000018003cee0     libucrt:lcidtoname_downlevel.obj
 0002:00003ee8       ??_C@_15HCNDBBA@?$AAg?$AAu?$AA?$AA@ 000000018003cee8     libucrt:lcidtoname_downlevel.obj
 0002:00003ef0       ??_C@_15FNBEIBON@?$AAt?$AAa?$AA?$AA@ 000000018003cef0     libucrt:lcidtoname_downlevel.obj
 0002:00003ef8       ??_C@_15NCHGBGLK@?$AAt?$AAe?$AA?$AA@ 000000018003cef8     libucrt:lcidtoname_downlevel.obj
 0002:00003f00       ??_C@_15PHPHCBPF@?$AAk?$AAn?$AA?$AA@ 000000018003cf00     libucrt:lcidtoname_downlevel.obj
 0002:00003f08       ??_C@_15DLGBCKMP@?$AAm?$AAr?$AA?$AA@ 000000018003cf08     libucrt:lcidtoname_downlevel.obj
 0002:00003f10       ??_C@_15EABBLBFF@?$AAs?$AAa?$AA?$AA@ 000000018003cf10     libucrt:lcidtoname_downlevel.obj
 0002:00003f18       ??_C@_15CBKOMCOI@?$AAm?$AAn?$AA?$AA@ 000000018003cf18     libucrt:lcidtoname_downlevel.obj
 0002:00003f20       ??_C@_15CKDMCJAF@?$AAg?$AAl?$AA?$AA@ 000000018003cf20     libucrt:lcidtoname_downlevel.obj
 0002:00003f28       ??_C@_17CNJFBPG@?$AAk?$AAo?$AAk?$AA?$AA@ 000000018003cf28     libucrt:lcidtoname_downlevel.obj
 0002:00003f30       ??_C@_17FFBJICPL@?$AAs?$AAy?$AAr?$AA?$AA@ 000000018003cf30     libucrt:lcidtoname_downlevel.obj
 0002:00003f38       ??_C@_17KPNDCPAF@?$AAd?$AAi?$AAv?$AA?$AA@ 000000018003cf38     libucrt:lcidtoname_downlevel.obj
 0002:00003f40       ??_C@_1M@OKAHONE@?$AAa?$AAr?$AA?9?$AAS?$AAA?$AA?$AA@ 000000018003cf40     libucrt:lcidtoname_downlevel.obj
 0002:00003f50       ??_C@_1M@FFFIGIGK@?$AAb?$AAg?$AA?9?$AAB?$AAG?$AA?$AA@ 000000018003cf50     libucrt:lcidtoname_downlevel.obj
 0002:00003f60       ??_C@_1M@BJNKEDC@?$AAc?$AAa?$AA?9?$AAE?$AAS?$AA?$AA@ 000000018003cf60     libucrt:lcidtoname_downlevel.obj
 0002:00003f70       ??_C@_1M@IJJHFJHA@?$AAc?$AAs?$AA?9?$AAC?$AAZ?$AA?$AA@ 000000018003cf70     libucrt:lcidtoname_downlevel.obj
 0002:00003f80       ??_C@_1M@CLPEOBGI@?$AAd?$AAa?$AA?9?$AAD?$AAK?$AA?$AA@ 000000018003cf80     libucrt:lcidtoname_downlevel.obj
 0002:00003f90       ??_C@_1M@MCMADGCB@?$AAd?$AAe?$AA?9?$AAD?$AAE?$AA?$AA@ 000000018003cf90     libucrt:lcidtoname_downlevel.obj
 0002:00003fa0       ??_C@_1M@OOCKEMAM@?$AAe?$AAl?$AA?9?$AAG?$AAR?$AA?$AA@ 000000018003cfa0     libucrt:lcidtoname_downlevel.obj
 0002:00003fb0       ??_C@_1M@DDNJFGID@?$AAf?$AAi?$AA?9?$AAF?$AAI?$AA?$AA@ 000000018003cfb0     libucrt:lcidtoname_downlevel.obj
 0002:00003fc0       ??_C@_1M@GLIPPMAC@?$AAf?$AAr?$AA?9?$AAF?$AAR?$AA?$AA@ 000000018003cfc0     libucrt:lcidtoname_downlevel.obj
 0002:00003fd0       ??_C@_1M@GFMCHPE@?$AAh?$AAe?$AA?9?$AAI?$AAL?$AA?$AA@ 000000018003cfd0     libucrt:lcidtoname_downlevel.obj
 0002:00003fe0       ??_C@_1M@MHLPGNKM@?$AAh?$AAu?$AA?9?$AAH?$AAU?$AA?$AA@ 000000018003cfe0     libucrt:lcidtoname_downlevel.obj
 0002:00003ff0       ??_C@_1M@LPDDNNPN@?$AAi?$AAs?$AA?9?$AAI?$AAS?$AA?$AA@ 000000018003cff0     libucrt:lcidtoname_downlevel.obj
 0002:00004000       ??_C@_1M@MADIPODN@?$AAi?$AAt?$AA?9?$AAI?$AAT?$AA?$AA@ 000000018003d000     libucrt:lcidtoname_downlevel.obj
 0002:00004010       ??_C@_1M@IHBJJGG@?$AAn?$AAl?$AA?9?$AAN?$AAL?$AA?$AA@ 000000018003d010     libucrt:lcidtoname_downlevel.obj
 0002:00004020       ??_C@_1M@EANAGDL@?$AAn?$AAb?$AA?9?$AAN?$AAO?$AA?$AA@ 000000018003d020     libucrt:lcidtoname_downlevel.obj
 0002:00004030       ??_C@_1M@NEIEMEGP@?$AAp?$AAl?$AA?9?$AAP?$AAL?$AA?$AA@ 000000018003d030     libucrt:lcidtoname_downlevel.obj
 0002:00004040       ??_C@_1M@BOCFIGEP@?$AAp?$AAt?$AA?9?$AAB?$AAR?$AA?$AA@ 000000018003d040     libucrt:lcidtoname_downlevel.obj
 0002:00004050       ??_C@_1M@IMPFOPBG@?$AAr?$AAo?$AA?9?$AAR?$AAO?$AA?$AA@ 000000018003d050     libucrt:lcidtoname_downlevel.obj
 0002:00004060       ??_C@_1M@IDNNEJMM@?$AAr?$AAu?$AA?9?$AAR?$AAU?$AA?$AA@ 000000018003d060     libucrt:lcidtoname_downlevel.obj
 0002:00004070       ??_C@_1M@LILEEOGM@?$AAh?$AAr?$AA?9?$AAH?$AAR?$AA?$AA@ 000000018003d070     libucrt:lcidtoname_downlevel.obj
 0002:00004080       ??_C@_1M@FKIFEHPB@?$AAs?$AAk?$AA?9?$AAS?$AAK?$AA?$AA@ 000000018003d080     libucrt:lcidtoname_downlevel.obj
 0002:00004090       ??_C@_1M@LJMAMNPJ@?$AAs?$AAq?$AA?9?$AAA?$AAL?$AA?$AA@ 000000018003d090     libucrt:lcidtoname_downlevel.obj
 0002:000040a0       ??_C@_1M@GIAKDKJK@?$AAs?$AAv?$AA?9?$AAS?$AAE?$AA?$AA@ 000000018003d0a0     libucrt:lcidtoname_downlevel.obj
 0002:000040b0       ??_C@_1M@MKJKIKCL@?$AAt?$AAh?$AA?9?$AAT?$AAH?$AA?$AA@ 000000018003d0b0     libucrt:lcidtoname_downlevel.obj
 0002:000040c0       ??_C@_1M@MFLCCMPB@?$AAt?$AAr?$AA?9?$AAT?$AAR?$AA?$AA@ 000000018003d0c0     libucrt:lcidtoname_downlevel.obj
 0002:000040d0       ??_C@_1M@OIJHDKJN@?$AAu?$AAr?$AA?9?$AAP?$AAK?$AA?$AA@ 000000018003d0d0     libucrt:lcidtoname_downlevel.obj
 0002:000040e0       ??_C@_1M@LHIPCIEK@?$AAi?$AAd?$AA?9?$AAI?$AAD?$AA?$AA@ 000000018003d0e0     libucrt:lcidtoname_downlevel.obj
 0002:000040f0       ??_C@_1M@MFMOBGI@?$AAu?$AAk?$AA?9?$AAU?$AAA?$AA?$AA@ 000000018003d0f0     libucrt:lcidtoname_downlevel.obj
 0002:00004100       ??_C@_1M@OBGLJIPL@?$AAb?$AAe?$AA?9?$AAB?$AAY?$AA?$AA@ 000000018003d100     libucrt:lcidtoname_downlevel.obj
 0002:00004110       ??_C@_1M@BCFAJEAD@?$AAs?$AAl?$AA?9?$AAS?$AAI?$AA?$AA@ 000000018003d110     libucrt:lcidtoname_downlevel.obj
 0002:00004120       ??_C@_1M@FKFFEDDN@?$AAe?$AAt?$AA?9?$AAE?$AAE?$AA?$AA@ 000000018003d120     libucrt:lcidtoname_downlevel.obj
 0002:00004130       ??_C@_1M@KGKKAACI@?$AAl?$AAv?$AA?9?$AAL?$AAV?$AA?$AA@ 000000018003d130     libucrt:lcidtoname_downlevel.obj
 0002:00004140       ??_C@_1M@IFGBIJO@?$AAl?$AAt?$AA?9?$AAL?$AAT?$AA?$AA@ 000000018003d140     libucrt:lcidtoname_downlevel.obj
 0002:00004150       ??_C@_1M@FGEAHEDM@?$AAf?$AAa?$AA?9?$AAI?$AAR?$AA?$AA@ 000000018003d150     libucrt:lcidtoname_downlevel.obj
 0002:00004160       ??_C@_1M@KBMAIBFN@?$AAv?$AAi?$AA?9?$AAV?$AAN?$AA?$AA@ 000000018003d160     libucrt:lcidtoname_downlevel.obj
 0002:00004170       ??_C@_1M@GPCBKDJK@?$AAh?$AAy?$AA?9?$AAA?$AAM?$AA?$AA@ 000000018003d170     libucrt:lcidtoname_downlevel.obj
 0002:00004180       ??_C@_1BG@BECMDDJB@?$AAa?$AAz?$AA?9?$AAA?$AAZ?$AA?9?$AAL?$AAa?$AAt?$AAn?$AA?$AA@ 000000018003d180     libucrt:lcidtoname_downlevel.obj
 0002:00004198       ??_C@_1M@MAOFCAEA@?$AAe?$AAu?$AA?9?$AAE?$AAS?$AA?$AA@ 000000018003d198     libucrt:lcidtoname_downlevel.obj
 0002:000041a8       ??_C@_1M@IGHABKPI@?$AAm?$AAk?$AA?9?$AAM?$AAK?$AA?$AA@ 000000018003d1a8     libucrt:lcidtoname_downlevel.obj
 0002:000041b8       ??_C@_1M@IAIGNEJG@?$AAt?$AAn?$AA?9?$AAZ?$AAA?$AA?$AA@ 000000018003d1b8     libucrt:lcidtoname_downlevel.obj
 0002:000041c8       ??_C@_1M@IIJCOJFA@?$AAx?$AAh?$AA?9?$AAZ?$AAA?$AA?$AA@ 000000018003d1c8     libucrt:lcidtoname_downlevel.obj
 0002:000041d8       ??_C@_1M@LGPJHNJH@?$AAz?$AAu?$AA?9?$AAZ?$AAA?$AA?$AA@ 000000018003d1d8     libucrt:lcidtoname_downlevel.obj
 0002:000041e8       ??_C@_1M@HOKAOIO@?$AAa?$AAf?$AA?9?$AAZ?$AAA?$AA?$AA@ 000000018003d1e8     libucrt:lcidtoname_downlevel.obj
 0002:000041f8       ??_C@_1M@DPCLHLIE@?$AAk?$AAa?$AA?9?$AAG?$AAE?$AA?$AA@ 000000018003d1f8     libucrt:lcidtoname_downlevel.obj
 0002:00004208       ??_C@_1M@BLKMHJBI@?$AAf?$AAo?$AA?9?$AAF?$AAO?$AA?$AA@ 000000018003d208     libucrt:lcidtoname_downlevel.obj
 0002:00004218       ??_C@_1M@LGGJAPPB@?$AAh?$AAi?$AA?9?$AAI?$AAN?$AA?$AA@ 000000018003d218     libucrt:lcidtoname_downlevel.obj
 0002:00004228       ??_C@_1M@FIKPIHFE@?$AAm?$AAt?$AA?9?$AAM?$AAT?$AA?$AA@ 000000018003d228     libucrt:lcidtoname_downlevel.obj
 0002:00004238       ??_C@_1M@HEGGPBFA@?$AAs?$AAe?$AA?9?$AAN?$AAO?$AA?$AA@ 000000018003d238     libucrt:lcidtoname_downlevel.obj
 0002:00004248       ??_C@_1M@EIBJEEPA@?$AAm?$AAs?$AA?9?$AAM?$AAY?$AA?$AA@ 000000018003d248     libucrt:lcidtoname_downlevel.obj
 0002:00004258       ??_C@_1M@FHLBGMPP@?$AAk?$AAk?$AA?9?$AAK?$AAZ?$AA?$AA@ 000000018003d258     libucrt:lcidtoname_downlevel.obj
 0002:00004268       ??_C@_1M@NGJJLCGI@?$AAk?$AAy?$AA?9?$AAK?$AAG?$AA?$AA@ 000000018003d268     libucrt:lcidtoname_downlevel.obj
 0002:00004278       ??_C@_1M@GIENNBFC@?$AAs?$AAw?$AA?9?$AAK?$AAE?$AA?$AA@ 000000018003d278     libucrt:lcidtoname_downlevel.obj
 0002:00004288       ??_C@_1BG@NDGMJIMJ@?$AAu?$AAz?$AA?9?$AAU?$AAZ?$AA?9?$AAL?$AAa?$AAt?$AAn?$AA?$AA@ 000000018003d288     libucrt:lcidtoname_downlevel.obj
 0002:000042a0       ??_C@_1M@IDCCIHBC@?$AAt?$AAt?$AA?9?$AAR?$AAU?$AA?$AA@ 000000018003d2a0     libucrt:lcidtoname_downlevel.obj
 0002:000042b0       ??_C@_1M@LOICPMOJ@?$AAb?$AAn?$AA?9?$AAI?$AAN?$AA?$AA@ 000000018003d2b0     libucrt:lcidtoname_downlevel.obj
 0002:000042c0       ??_C@_1M@KPKKNEAH@?$AAp?$AAa?$AA?9?$AAI?$AAN?$AA?$AA@ 000000018003d2c0     libucrt:lcidtoname_downlevel.obj
 0002:000042d0       ??_C@_1M@PJGPPBOG@?$AAg?$AAu?$AA?9?$AAI?$AAN?$AA?$AA@ 000000018003d2d0     libucrt:lcidtoname_downlevel.obj
 0002:000042e0       ??_C@_1M@KMKMOPHI@?$AAt?$AAa?$AA?9?$AAI?$AAN?$AA?$AA@ 000000018003d2e0     libucrt:lcidtoname_downlevel.obj
 0002:000042f0       ??_C@_1M@KFEHEPAC@?$AAt?$AAe?$AA?9?$AAI?$AAN?$AA?$AA@ 000000018003d2f0     libucrt:lcidtoname_downlevel.obj
 0002:00004300       ??_C@_1M@CDCLMGHI@?$AAk?$AAn?$AA?9?$AAI?$AAN?$AA?$AA@ 000000018003d300     libucrt:lcidtoname_downlevel.obj
 0002:00004310       ??_C@_1M@MIODLDKF@?$AAm?$AAl?$AA?9?$AAI?$AAN?$AA?$AA@ 000000018003d310     libucrt:lcidtoname_downlevel.obj
 0002:00004320       ??_C@_1M@PBIEACPO@?$AAm?$AAr?$AA?9?$AAI?$AAN?$AA?$AA@ 000000018003d320     libucrt:lcidtoname_downlevel.obj
 0002:00004330       ??_C@_1M@NIDEAGPH@?$AAs?$AAa?$AA?9?$AAI?$AAN?$AA?$AA@ 000000018003d330     libucrt:lcidtoname_downlevel.obj
 0002:00004340       ??_C@_1M@FHIHCBIO@?$AAm?$AAn?$AA?9?$AAM?$AAN?$AA?$AA@ 000000018003d340     libucrt:lcidtoname_downlevel.obj
 0002:00004350       ??_C@_1M@JAIJPENP@?$AAc?$AAy?$AA?9?$AAG?$AAB?$AA?$AA@ 000000018003d350     libucrt:lcidtoname_downlevel.obj
 0002:00004360       ??_C@_1M@PHGFBEPN@?$AAg?$AAl?$AA?9?$AAE?$AAS?$AA?$AA@ 000000018003d360     libucrt:lcidtoname_downlevel.obj
 0002:00004370       ??_C@_1O@KPIPDNCP@?$AAk?$AAo?$AAk?$AA?9?$AAI?$AAN?$AA?$AA@ 000000018003d370     libucrt:lcidtoname_downlevel.obj
 0002:00004380       ??_C@_1O@KNHJLDJA@?$AAs?$AAy?$AAr?$AA?9?$AAS?$AAY?$AA?$AA@ 000000018003d380     libucrt:lcidtoname_downlevel.obj
 0002:00004390       ??_C@_1O@MKEKBLAH@?$AAd?$AAi?$AAv?$AA?9?$AAM?$AAV?$AA?$AA@ 000000018003d390     libucrt:lcidtoname_downlevel.obj
 0002:000043a0       ??_C@_1O@OHDCKDDF@?$AAq?$AAu?$AAz?$AA?9?$AAB?$AAO?$AA?$AA@ 000000018003d3a0     libucrt:lcidtoname_downlevel.obj
 0002:000043b0       ??_C@_1M@LEPJNLFD@?$AAn?$AAs?$AA?9?$AAZ?$AAA?$AA?$AA@ 000000018003d3b0     libucrt:lcidtoname_downlevel.obj
 0002:000043c0       ??_C@_1M@OMLEIIJB@?$AAm?$AAi?$AA?9?$AAN?$AAZ?$AA?$AA@ 000000018003d3c0     libucrt:lcidtoname_downlevel.obj
 0002:000043d0       ??_C@_1M@PMPEAILG@?$AAa?$AAr?$AA?9?$AAI?$AAQ?$AA?$AA@ 000000018003d3d0     libucrt:lcidtoname_downlevel.obj
 0002:000043e0       ??_C@_1M@CNKPNOEE@?$AAd?$AAe?$AA?9?$AAC?$AAH?$AA?$AA@ 000000018003d3e0     libucrt:lcidtoname_downlevel.obj
 0002:000043f0       ??_C@_1M@LKMGMLKO@?$AAe?$AAn?$AA?9?$AAG?$AAB?$AA?$AA@ 000000018003d3f0     libucrt:lcidtoname_downlevel.obj
 0002:00004400       ??_C@_1M@PGKJFFGL@?$AAe?$AAs?$AA?9?$AAM?$AAX?$AA?$AA@ 000000018003d400     libucrt:lcidtoname_downlevel.obj
 0002:00004410       ??_C@_1M@DNNANBDC@?$AAf?$AAr?$AA?9?$AAB?$AAE?$AA?$AA@ 000000018003d410     libucrt:lcidtoname_downlevel.obj
 0002:00004420       ??_C@_1M@HLGMDFHM@?$AAi?$AAt?$AA?9?$AAC?$AAH?$AA?$AA@ 000000018003d420     libucrt:lcidtoname_downlevel.obj
 0002:00004430       ??_C@_1M@CLLBGJH@?$AAn?$AAl?$AA?9?$AAB?$AAE?$AA?$AA@ 000000018003d430     libucrt:lcidtoname_downlevel.obj
 0002:00004440       ??_C@_1M@BODBOGLF@?$AAn?$AAn?$AA?9?$AAN?$AAO?$AA?$AA@ 000000018003d440     libucrt:lcidtoname_downlevel.obj
 0002:00004450       ??_C@_1M@HFFAHKAD@?$AAp?$AAt?$AA?9?$AAP?$AAT?$AA?$AA@ 000000018003d450     libucrt:lcidtoname_downlevel.obj
 0002:00004460       ??_C@_1BG@LNOAKHIE@?$AAs?$AAr?$AA?9?$AAS?$AAP?$AA?9?$AAL?$AAa?$AAt?$AAn?$AA?$AA@ 000000018003d460     libucrt:lcidtoname_downlevel.obj
 0002:00004478       ??_C@_1M@HBMHBGAK@?$AAs?$AAv?$AA?9?$AAF?$AAI?$AA?$AA@ 000000018003d478     libucrt:lcidtoname_downlevel.obj
 0002:00004488       ??_C@_1BG@DGCJGJBE@?$AAa?$AAz?$AA?9?$AAA?$AAZ?$AA?9?$AAC?$AAy?$AAr?$AAl?$AA?$AA@ 000000018003d488     libucrt:lcidtoname_downlevel.obj
 0002:000044a0       ??_C@_1M@KEJDAAHB@?$AAs?$AAe?$AA?9?$AAS?$AAE?$AA?$AA@ 000000018003d4a0     libucrt:lcidtoname_downlevel.obj
 0002:000044b0       ??_C@_1M@HEIBJJAD@?$AAm?$AAs?$AA?9?$AAB?$AAN?$AA?$AA@ 000000018003d4b0     libucrt:lcidtoname_downlevel.obj
 0002:000044c0       ??_C@_1BG@PBGJMCEM@?$AAu?$AAz?$AA?9?$AAU?$AAZ?$AA?9?$AAC?$AAy?$AAr?$AAl?$AA?$AA@ 000000018003d4c0     libucrt:lcidtoname_downlevel.obj
 0002:000044d8       ??_C@_1O@LAOBCMDF@?$AAq?$AAu?$AAz?$AA?9?$AAE?$AAC?$AA?$AA@ 000000018003d4d8     libucrt:lcidtoname_downlevel.obj
 0002:000044e8       ??_C@_1M@POEEMAIO@?$AAa?$AAr?$AA?9?$AAE?$AAG?$AA?$AA@ 000000018003d4e8     libucrt:lcidtoname_downlevel.obj
 0002:000044f8       ??_C@_1M@EFAKDEDL@?$AAz?$AAh?$AA?9?$AAH?$AAK?$AA?$AA@ 000000018003d4f8     libucrt:lcidtoname_downlevel.obj
 0002:00004508       ??_C@_1M@HKKIJHGI@?$AAd?$AAe?$AA?9?$AAA?$AAT?$AA?$AA@ 000000018003d508     libucrt:lcidtoname_downlevel.obj
 0002:00004518       ??_C@_1M@KBFBEHJF@?$AAe?$AAn?$AA?9?$AAA?$AAU?$AA?$AA@ 000000018003d518     libucrt:lcidtoname_downlevel.obj
 0002:00004528       ??_C@_1M@MNPLFAAH@?$AAe?$AAs?$AA?9?$AAE?$AAS?$AA?$AA@ 000000018003d528     libucrt:lcidtoname_downlevel.obj
 0002:00004538       ??_C@_1M@HJOOJFMA@?$AAf?$AAr?$AA?9?$AAC?$AAA?$AA?$AA@ 000000018003d538     libucrt:lcidtoname_downlevel.obj
 0002:00004548       ??_C@_1BG@JPOFPNAB@?$AAs?$AAr?$AA?9?$AAS?$AAP?$AA?9?$AAC?$AAy?$AAr?$AAl?$AA?$AA@ 000000018003d548     libucrt:lcidtoname_downlevel.obj
 0002:00004560       ??_C@_1M@LNFOCMOB@?$AAs?$AAe?$AA?9?$AAF?$AAI?$AA?$AA@ 000000018003d560     libucrt:lcidtoname_downlevel.obj
 0002:00004570       ??_C@_1O@MGJBOAMB@?$AAq?$AAu?$AAz?$AA?9?$AAP?$AAE?$AA?$AA@ 000000018003d570     libucrt:lcidtoname_downlevel.obj
 0002:00004580       ??_C@_1M@GJINLBOK@?$AAa?$AAr?$AA?9?$AAL?$AAY?$AA?$AA@ 000000018003d580     libucrt:lcidtoname_downlevel.obj
 0002:00004590       ??_C@_1M@GGMNHJNL@?$AAz?$AAh?$AA?9?$AAS?$AAG?$AA?$AA@ 000000018003d590     libucrt:lcidtoname_downlevel.obj
 0002:000045a0       ??_C@_1M@HOIKODND@?$AAd?$AAe?$AA?9?$AAL?$AAU?$AA?$AA@ 000000018003d5a0     libucrt:lcidtoname_downlevel.obj
 0002:000045b0       ??_C@_1M@DDOCCGFG@?$AAe?$AAn?$AA?9?$AAC?$AAA?$AA?$AA@ 000000018003d5b0     libucrt:lcidtoname_downlevel.obj
 0002:000045c0       ??_C@_1M@BNOEMJLF@?$AAe?$AAs?$AA?9?$AAG?$AAT?$AA?$AA@ 000000018003d5c0     libucrt:lcidtoname_downlevel.obj
 0002:000045d0       ??_C@_1M@EOGNKEK@?$AAf?$AAr?$AA?9?$AAC?$AAH?$AA?$AA@ 000000018003d5d0     libucrt:lcidtoname_downlevel.obj
 0002:000045e0       ??_C@_1M@FLIDJFHL@?$AAh?$AAr?$AA?9?$AAB?$AAA?$AA?$AA@ 000000018003d5e0     libucrt:lcidtoname_downlevel.obj
 0002:000045f0       ??_C@_1O@FMCELNAJ@?$AAs?$AAm?$AAj?$AA?9?$AAN?$AAO?$AA?$AA@ 000000018003d5f0     libucrt:lcidtoname_downlevel.obj
 0002:00004600       ??_C@_1M@JHGLJMGJ@?$AAa?$AAr?$AA?9?$AAD?$AAZ?$AA?$AA@ 000000018003d600     libucrt:lcidtoname_downlevel.obj
 0002:00004610       ??_C@_1M@JKKFDCNP@?$AAz?$AAh?$AA?9?$AAM?$AAO?$AA?$AA@ 000000018003d610     libucrt:lcidtoname_downlevel.obj
 0002:00004620       ??_C@_1M@GEEFALPE@?$AAd?$AAe?$AA?9?$AAL?$AAI?$AA?$AA@ 000000018003d620     libucrt:lcidtoname_downlevel.obj
 0002:00004630       ??_C@_1M@IGEOFBG@?$AAe?$AAn?$AA?9?$AAN?$AAZ?$AA?$AA@ 000000018003d630     libucrt:lcidtoname_downlevel.obj
 0002:00004640       ??_C@_1M@KDBONEHP@?$AAe?$AAs?$AA?9?$AAC?$AAR?$AA?$AA@ 000000018003d640     libucrt:lcidtoname_downlevel.obj
 0002:00004650       ??_C@_1M@FHMDOHNN@?$AAf?$AAr?$AA?9?$AAL?$AAU?$AA?$AA@ 000000018003d650     libucrt:lcidtoname_downlevel.obj
 0002:00004660       ??_C@_1BG@NFKKMAFG@?$AAb?$AAs?$AA?9?$AAB?$AAA?$AA?9?$AAL?$AAa?$AAt?$AAn?$AA?$AA@ 000000018003d660     libucrt:lcidtoname_downlevel.obj
 0002:00004678       ??_C@_1O@IMNBEMCI@?$AAs?$AAm?$AAj?$AA?9?$AAS?$AAE?$AA?$AA@ 000000018003d678     libucrt:lcidtoname_downlevel.obj
 0002:00004688       ??_C@_1M@DHHMBNDP@?$AAa?$AAr?$AA?9?$AAM?$AAA?$AA?$AA@ 000000018003d688     libucrt:lcidtoname_downlevel.obj
 0002:00004698       ??_C@_1M@BNBLJCGH@?$AAe?$AAn?$AA?9?$AAI?$AAE?$AA?$AA@ 000000018003d698     libucrt:lcidtoname_downlevel.obj
 0002:000046a8       ??_C@_1M@GEPAFMDL@?$AAe?$AAs?$AA?9?$AAP?$AAA?$AA?$AA@ 000000018003d6a8     libucrt:lcidtoname_downlevel.obj
 0002:000046b8       ??_C@_1M@OJONDMDL@?$AAf?$AAr?$AA?9?$AAM?$AAC?$AA?$AA@ 000000018003d6b8     libucrt:lcidtoname_downlevel.obj
 0002:000046c8       ??_C@_1BG@OBCNFJB@?$AAs?$AAr?$AA?9?$AAB?$AAA?$AA?9?$AAL?$AAa?$AAt?$AAn?$AA?$AA@ 000000018003d6c8     libucrt:lcidtoname_downlevel.obj
 0002:000046e0       ??_C@_1O@KEMEEGPO@?$AAs?$AAm?$AAa?$AA?9?$AAN?$AAO?$AA?$AA@ 000000018003d6e0     libucrt:lcidtoname_downlevel.obj
 0002:000046f0       ??_C@_1M@ELMGFODK@?$AAa?$AAr?$AA?9?$AAT?$AAN?$AA?$AA@ 000000018003d6f0     libucrt:lcidtoname_downlevel.obj
 0002:00004700       ??_C@_1M@BHDLHFAF@?$AAe?$AAn?$AA?9?$AAZ?$AAA?$AA?$AA@ 000000018003d700     libucrt:lcidtoname_downlevel.obj
 0002:00004710       ??_C@_1M@BMGIGLIF@?$AAe?$AAs?$AA?9?$AAD?$AAO?$AA?$AA@ 000000018003d710     libucrt:lcidtoname_downlevel.obj
 0002:00004720       ??_C@_1BG@CMBHIPBE@?$AAs?$AAr?$AA?9?$AAB?$AAA?$AA?9?$AAC?$AAy?$AAr?$AAl?$AA?$AA@ 000000018003d720     libucrt:lcidtoname_downlevel.obj
 0002:00004738       ??_C@_1O@HEDBLHNP@?$AAs?$AAm?$AAa?$AA?9?$AAS?$AAE?$AA?$AA@ 000000018003d738     libucrt:lcidtoname_downlevel.obj
 0002:00004748       ??_C@_1M@DAGCADIM@?$AAa?$AAr?$AA?9?$AAO?$AAM?$AA?$AA@ 000000018003d748     libucrt:lcidtoname_downlevel.obj
 0002:00004758       ??_C@_1M@FODLMICG@?$AAe?$AAn?$AA?9?$AAJ?$AAM?$AA?$AA@ 000000018003d758     libucrt:lcidtoname_downlevel.obj
 0002:00004768       ??_C@_1M@DNMLCIHB@?$AAe?$AAs?$AA?9?$AAV?$AAE?$AA?$AA@ 000000018003d768     libucrt:lcidtoname_downlevel.obj
 0002:00004778       ??_C@_1O@EOKHMKJK@?$AAs?$AAm?$AAs?$AA?9?$AAF?$AAI?$AA?$AA@ 000000018003d778     libucrt:lcidtoname_downlevel.obj
 0002:00004788       ??_C@_1M@CAFJMKOF@?$AAa?$AAr?$AA?9?$AAY?$AAE?$AA?$AA@ 000000018003d788     libucrt:lcidtoname_downlevel.obj
 0002:00004798       ??_C@_1M@CBFHIJLI@?$AAe?$AAn?$AA?9?$AAC?$AAB?$AA?$AA@ 000000018003d798     libucrt:lcidtoname_downlevel.obj
 0002:000047a8       ??_C@_1M@BGNFLDN@?$AAe?$AAs?$AA?9?$AAC?$AAO?$AA?$AA@ 000000018003d7a8     libucrt:lcidtoname_downlevel.obj
 0002:000047b8       ??_C@_1O@JMPHMAMC@?$AAs?$AAm?$AAn?$AA?9?$AAF?$AAI?$AA?$AA@ 000000018003d7b8     libucrt:lcidtoname_downlevel.obj
 0002:000047c8       ??_C@_1M@JLANABKE@?$AAa?$AAr?$AA?9?$AAS?$AAY?$AA?$AA@ 000000018003d7c8     libucrt:lcidtoname_downlevel.obj
 0002:000047d8       ??_C@_1M@HPKGCFGN@?$AAe?$AAn?$AA?9?$AAB?$AAZ?$AA?$AA@ 000000018003d7d8     libucrt:lcidtoname_downlevel.obj
 0002:000047e8       ??_C@_1M@OLJCMLGM@?$AAe?$AAs?$AA?9?$AAP?$AAE?$AA?$AA@ 000000018003d7e8     libucrt:lcidtoname_downlevel.obj
 0002:000047f8       ??_C@_1M@MKKGFKLE@?$AAa?$AAr?$AA?9?$AAJ?$AAO?$AA?$AA@ 000000018003d7f8     libucrt:lcidtoname_downlevel.obj
 0002:00004808       ??_C@_1M@EKPGLDNI@?$AAe?$AAn?$AA?9?$AAT?$AAT?$AA?$AA@ 000000018003d808     libucrt:lcidtoname_downlevel.obj
 0002:00004818       ??_C@_1M@OONGHFHE@?$AAe?$AAs?$AA?9?$AAA?$AAR?$AA?$AA@ 000000018003d818     libucrt:lcidtoname_downlevel.obj
 0002:00004828       ??_C@_1M@OOJFGBHE@?$AAa?$AAr?$AA?9?$AAL?$AAB?$AA?$AA@ 000000018003d828     libucrt:lcidtoname_downlevel.obj
 0002:00004838       ??_C@_1M@GCEJHNEG@?$AAe?$AAn?$AA?9?$AAZ?$AAW?$AA?$AA@ 000000018003d838     libucrt:lcidtoname_downlevel.obj
 0002:00004848       ??_C@_1M@JNOCAHJI@?$AAe?$AAs?$AA?9?$AAE?$AAC?$AA?$AA@ 000000018003d848     libucrt:lcidtoname_downlevel.obj
 0002:00004858       ??_C@_1M@JEFHPGGB@?$AAa?$AAr?$AA?9?$AAK?$AAW?$AA?$AA@ 000000018003d858     libucrt:lcidtoname_downlevel.obj
 0002:00004868       ??_C@_1M@MLKIBJOJ@?$AAe?$AAn?$AA?9?$AAP?$AAH?$AA?$AA@ 000000018003d868     libucrt:lcidtoname_downlevel.obj
 0002:00004878       ??_C@_1M@BDNIPEND@?$AAe?$AAs?$AA?9?$AAC?$AAL?$AA?$AA@ 000000018003d878     libucrt:lcidtoname_downlevel.obj
 0002:00004888       ??_C@_1M@MPNMEKBD@?$AAa?$AAr?$AA?9?$AAA?$AAE?$AA?$AA@ 000000018003d888     libucrt:lcidtoname_downlevel.obj
 0002:00004898       ??_C@_1M@KBJALCPI@?$AAe?$AAs?$AA?9?$AAU?$AAY?$AA?$AA@ 000000018003d898     libucrt:lcidtoname_downlevel.obj
 0002:000048a8       ??_C@_1M@LLCCOAGA@?$AAa?$AAr?$AA?9?$AAB?$AAH?$AA?$AA@ 000000018003d8a8     libucrt:lcidtoname_downlevel.obj
 0002:000048b8       ??_C@_1M@PBFNCDEL@?$AAe?$AAs?$AA?9?$AAP?$AAY?$AA?$AA@ 000000018003d8b8     libucrt:lcidtoname_downlevel.obj
 0002:000048c8       ??_C@_1M@EDGINPNP@?$AAa?$AAr?$AA?9?$AAQ?$AAA?$AA?$AA@ 000000018003d8c8     libucrt:lcidtoname_downlevel.obj
 0002:000048d8       ??_C@_1M@MKDBIIJI@?$AAe?$AAs?$AA?9?$AAB?$AAO?$AA?$AA@ 000000018003d8d8     libucrt:lcidtoname_downlevel.obj
 0002:000048e8       ??_C@_1M@CPKKEBLD@?$AAe?$AAs?$AA?9?$AAS?$AAV?$AA?$AA@ 000000018003d8e8     libucrt:lcidtoname_downlevel.obj
 0002:000048f8       ??_C@_1M@NDBGMMJL@?$AAe?$AAs?$AA?9?$AAH?$AAN?$AA?$AA@ 000000018003d8f8     libucrt:lcidtoname_downlevel.obj
 0002:00004908       ??_C@_1M@JIJIBHDP@?$AAe?$AAs?$AA?9?$AAN?$AAI?$AA?$AA@ 000000018003d908     libucrt:lcidtoname_downlevel.obj
 0002:00004918       ??_C@_1M@CGFMKEEK@?$AAe?$AAs?$AA?9?$AAP?$AAR?$AA?$AA@ 000000018003d918     libucrt:lcidtoname_downlevel.obj
 0002:00004928       ??_C@_1O@ICJHKIIK@?$AAz?$AAh?$AA?9?$AAC?$AAH?$AAT?$AA?$AA@ 000000018003d928     libucrt:lcidtoname_downlevel.obj
 0002:00004938       ??_C@_15CLNEJCE@?$AAs?$AAr?$AA?$AA@ 000000018003d938     libucrt:lcidtoname_downlevel.obj
 0002:00005780       ??_C@_1M@KAHEKEIG@?$AAa?$AAf?$AA?9?$AAz?$AAa?$AA?$AA@ 000000018003e780     libucrt:lcidtoname_downlevel.obj
 0002:00005790       ??_C@_1M@GIECOABL@?$AAa?$AAr?$AA?9?$AAa?$AAe?$AA?$AA@ 000000018003e790     libucrt:lcidtoname_downlevel.obj
 0002:000057a0       ??_C@_1M@BMLMEKGI@?$AAa?$AAr?$AA?9?$AAb?$AAh?$AA?$AA@ 000000018003e7a0     libucrt:lcidtoname_downlevel.obj
 0002:000057b0       ??_C@_1M@DAPFDGGB@?$AAa?$AAr?$AA?9?$AAd?$AAz?$AA?$AA@ 000000018003e7b0     libucrt:lcidtoname_downlevel.obj
 0002:000057c0       ??_C@_1M@FJNKGKIG@?$AAa?$AAr?$AA?9?$AAe?$AAg?$AA?$AA@ 000000018003e7c0     libucrt:lcidtoname_downlevel.obj
 0002:000057d0       ??_C@_1M@FLGKKCLO@?$AAa?$AAr?$AA?9?$AAi?$AAq?$AA?$AA@ 000000018003e7d0     libucrt:lcidtoname_downlevel.obj
 0002:000057e0       ??_C@_1M@GNDIPALM@?$AAa?$AAr?$AA?9?$AAj?$AAo?$AA?$AA@ 000000018003e7e0     libucrt:lcidtoname_downlevel.obj
 0002:000057f0       ??_C@_1M@DDMJFMGJ@?$AAa?$AAr?$AA?9?$AAk?$AAw?$AA?$AA@ 000000018003e7f0     libucrt:lcidtoname_downlevel.obj
 0002:00005800       ??_C@_1M@EJALMLHM@?$AAa?$AAr?$AA?9?$AAl?$AAb?$AA?$AA@ 000000018003e800     libucrt:lcidtoname_downlevel.obj
 0002:00005810       ??_C@_1M@MOBDBLOC@?$AAa?$AAr?$AA?9?$AAl?$AAy?$AA?$AA@ 000000018003e810     libucrt:lcidtoname_downlevel.obj
 0002:00005820       ??_C@_1M@JAOCLHDH@?$AAa?$AAr?$AA?9?$AAm?$AAa?$AA?$AA@ 000000018003e820     libucrt:lcidtoname_downlevel.obj
 0002:00005830       ??_C@_1M@JHPMKJIE@?$AAa?$AAr?$AA?9?$AAo?$AAm?$AA?$AA@ 000000018003e830     libucrt:lcidtoname_downlevel.obj
 0002:00005840       ??_C@_1M@OEPGHFNH@?$AAa?$AAr?$AA?9?$AAq?$AAa?$AA?$AA@ 000000018003e840     libucrt:lcidtoname_downlevel.obj
 0002:00005850       ??_C@_1M@KJDONENM@?$AAa?$AAr?$AA?9?$AAs?$AAa?$AA?$AA@ 000000018003e850     libucrt:lcidtoname_downlevel.obj
 0002:00005860       ??_C@_1M@DMJDKLKM@?$AAa?$AAr?$AA?9?$AAs?$AAy?$AA?$AA@ 000000018003e860     libucrt:lcidtoname_downlevel.obj
 0002:00005870       ??_C@_1M@OMFIPEDC@?$AAa?$AAr?$AA?9?$AAt?$AAn?$AA?$AA@ 000000018003e870     libucrt:lcidtoname_downlevel.obj
 0002:00005880       ??_C@_1M@IHMHGAON@?$AAa?$AAr?$AA?9?$AAy?$AAe?$AA?$AA@ 000000018003e880     libucrt:lcidtoname_downlevel.obj
 0002:00005890       ??_C@_1BG@KDCPGJGB@?$AAa?$AAz?$AA?9?$AAa?$AAz?$AA?9?$AAc?$AAy?$AAr?$AAl?$AA?$AA@ 000000018003e890     libucrt:lcidtoname_downlevel.obj
 0002:000058a8       ??_C@_1BG@IBCKDDOE@?$AAa?$AAz?$AA?9?$AAa?$AAz?$AA?9?$AAl?$AAa?$AAt?$AAn?$AA?$AA@ 000000018003e8a8     libucrt:lcidtoname_downlevel.obj
 0002:000058c0       ??_C@_1M@EGPFDCPD@?$AAb?$AAe?$AA?9?$AAb?$AAy?$AA?$AA@ 000000018003e8c0     libucrt:lcidtoname_downlevel.obj
 0002:000058d0       ??_C@_1M@PCMGMCGC@?$AAb?$AAg?$AA?9?$AAb?$AAg?$AA?$AA@ 000000018003e8d0     libucrt:lcidtoname_downlevel.obj
 0002:000058e0       ??_C@_1M@BJBMFGOB@?$AAb?$AAn?$AA?9?$AAi?$AAn?$AA?$AA@ 000000018003e8e0     libucrt:lcidtoname_downlevel.obj
 0002:000058f0       ??_C@_1BG@EAKMMACD@?$AAb?$AAs?$AA?9?$AAb?$AAa?$AA?9?$AAl?$AAa?$AAt?$AAn?$AA?$AA@ 000000018003e8f0     libucrt:lcidtoname_downlevel.obj
 0002:00005908       ??_C@_1M@KGADAODK@?$AAc?$AAa?$AA?9?$AAe?$AAs?$AA?$AA@ 000000018003e908     libucrt:lcidtoname_downlevel.obj
 0002:00005918       ??_C@_1M@COAJPDHI@?$AAc?$AAs?$AA?9?$AAc?$AAz?$AA?$AA@ 000000018003e918     libucrt:lcidtoname_downlevel.obj
 0002:00005928       ??_C@_1M@DHBHFONH@?$AAc?$AAy?$AA?9?$AAg?$AAb?$AA?$AA@ 000000018003e928     libucrt:lcidtoname_downlevel.obj
 0002:00005938       ??_C@_1M@IMGKELGA@?$AAd?$AAa?$AA?9?$AAd?$AAk?$AA?$AA@ 000000018003e938     libucrt:lcidtoname_downlevel.obj
 0002:00005948       ??_C@_1M@NNDGDNGA@?$AAd?$AAe?$AA?9?$AAa?$AAt?$AA?$AA@ 000000018003e948     libucrt:lcidtoname_downlevel.obj
 0002:00005958       ??_C@_1M@IKDBHEEM@?$AAd?$AAe?$AA?9?$AAc?$AAh?$AA?$AA@ 000000018003e958     libucrt:lcidtoname_downlevel.obj
 0002:00005968       ??_C@_1M@GFFOJMCJ@?$AAd?$AAe?$AA?9?$AAd?$AAe?$AA?$AA@ 000000018003e968     libucrt:lcidtoname_downlevel.obj
 0002:00005978       ??_C@_1M@MDNLKBPM@?$AAd?$AAe?$AA?9?$AAl?$AAi?$AA?$AA@ 000000018003e978     libucrt:lcidtoname_downlevel.obj
 0002:00005988       ??_C@_1M@NJBEEJNL@?$AAd?$AAe?$AA?9?$AAl?$AAu?$AA?$AA@ 000000018003e988     libucrt:lcidtoname_downlevel.obj
 0002:00005998       ??_C@_1O@GNNELBAP@?$AAd?$AAi?$AAv?$AA?9?$AAm?$AAv?$AA?$AA@ 000000018003e998     libucrt:lcidtoname_downlevel.obj
 0002:000059a8       ??_C@_1M@EJLEOGAE@?$AAe?$AAl?$AA?9?$AAg?$AAr?$AA?$AA@ 000000018003e9a8     libucrt:lcidtoname_downlevel.obj
 0002:000059b8       ??_C@_1M@GMPONJN@?$AAe?$AAn?$AA?9?$AAa?$AAu?$AA?$AA@ 000000018003e9b8     libucrt:lcidtoname_downlevel.obj
 0002:000059c8       ??_C@_1M@NIDIIPGF@?$AAe?$AAn?$AA?9?$AAb?$AAz?$AA?$AA@ 000000018003e9c8     libucrt:lcidtoname_downlevel.obj
 0002:000059d8       ??_C@_1M@JEHMIMFO@?$AAe?$AAn?$AA?9?$AAc?$AAa?$AA?$AA@ 000000018003e9d8     libucrt:lcidtoname_downlevel.obj
 0002:000059e8       ??_C@_1M@IGMJCDLA@?$AAe?$AAn?$AA?9?$AAc?$AAb?$AA?$AA@ 000000018003e9e8     libucrt:lcidtoname_downlevel.obj
 0002:000059f8       ??_C@_1M@BNFIGBKG@?$AAe?$AAn?$AA?9?$AAg?$AAb?$AA?$AA@ 000000018003e9f8     libucrt:lcidtoname_downlevel.obj
 0002:00005a08       ??_C@_1M@LKIFDIGP@?$AAe?$AAn?$AA?9?$AAi?$AAe?$AA?$AA@ 000000018003ea08     libucrt:lcidtoname_downlevel.obj
 0002:00005a18       ??_C@_1M@PJKFGCCO@?$AAe?$AAn?$AA?9?$AAj?$AAm?$AA?$AA@ 000000018003ea18     libucrt:lcidtoname_downlevel.obj
 0002:00005a28       ??_C@_1M@KPPKEPBO@?$AAe?$AAn?$AA?9?$AAn?$AAz?$AA?$AA@ 000000018003ea28     libucrt:lcidtoname_downlevel.obj
 0002:00005a38       ??_C@_1M@GMDGLDOB@?$AAe?$AAn?$AA?9?$AAp?$AAh?$AA?$AA@ 000000018003ea38     libucrt:lcidtoname_downlevel.obj
 0002:00005a48       ??_C@_1M@ONGIBJNA@?$AAe?$AAn?$AA?9?$AAt?$AAt?$AA?$AA@ 000000018003ea48     libucrt:lcidtoname_downlevel.obj
 0002:00005a58       ??_C@_1M@LLODPCMM@?$AAe?$AAn?$AA?9?$AAu?$AAs?$AA?$AA@ 000000018003ea58     libucrt:lcidtoname_downlevel.obj
 0002:00005a68       ??_C@_1M@LAKFNPAN@?$AAe?$AAn?$AA?9?$AAz?$AAa?$AA?$AA@ 000000018003ea68     libucrt:lcidtoname_downlevel.obj
 0002:00005a78       ??_C@_1M@MFNHNHEO@?$AAe?$AAn?$AA?9?$AAz?$AAw?$AA?$AA@ 000000018003ea78     libucrt:lcidtoname_downlevel.obj
 0002:00005a88       ??_C@_1M@EJEINPHM@?$AAe?$AAs?$AA?9?$AAa?$AAr?$AA?$AA@ 000000018003ea88     libucrt:lcidtoname_downlevel.obj
 0002:00005a98       ??_C@_1M@GNKPCCJA@?$AAe?$AAs?$AA?9?$AAb?$AAo?$AA?$AA@ 000000018003ea98     libucrt:lcidtoname_downlevel.obj
 0002:00005aa8       ??_C@_1M@LEEGFONL@?$AAe?$AAs?$AA?9?$AAc?$AAl?$AA?$AA@ 000000018003eaa8     libucrt:lcidtoname_downlevel.obj
 0002:00005ab8       ??_C@_1M@KGPDPBDF@?$AAe?$AAs?$AA?9?$AAc?$AAo?$AA?$AA@ 000000018003eab8     libucrt:lcidtoname_downlevel.obj
 0002:00005ac8       ??_C@_1M@EIAHOHH@?$AAe?$AAs?$AA?9?$AAc?$AAr?$AA?$AA@ 000000018003eac8     libucrt:lcidtoname_downlevel.obj
 0002:00005ad8       ??_C@_1M@LLPGMBIN@?$AAe?$AAs?$AA?9?$AAd?$AAo?$AA?$AA@ 000000018003ead8     libucrt:lcidtoname_downlevel.obj
 0002:00005ae8       ??_C@_1M@DKHMKNJA@?$AAe?$AAs?$AA?9?$AAe?$AAc?$AA?$AA@ 000000018003eae8     libucrt:lcidtoname_downlevel.obj
 0002:00005af8       ??_C@_1M@GKGFPKAP@?$AAe?$AAs?$AA?9?$AAe?$AAs?$AA?$AA@ 000000018003eaf8     libucrt:lcidtoname_downlevel.obj
 0002:00005b08       ??_C@_1M@LKHKGDLN@?$AAe?$AAs?$AA?9?$AAg?$AAt?$AA?$AA@ 000000018003eb08     libucrt:lcidtoname_downlevel.obj
 0002:00005b18       ??_C@_1M@HEIIGGJD@?$AAe?$AAs?$AA?9?$AAh?$AAn?$AA?$AA@ 000000018003eb18     libucrt:lcidtoname_downlevel.obj
 0002:00005b28       ??_C@_1M@FBDHPPGD@?$AAe?$AAs?$AA?9?$AAm?$AAx?$AA?$AA@ 000000018003eb28     libucrt:lcidtoname_downlevel.obj
 0002:00005b38       ??_C@_1M@DPAGLNDH@?$AAe?$AAs?$AA?9?$AAn?$AAi?$AA?$AA@ 000000018003eb38     libucrt:lcidtoname_downlevel.obj
 0002:00005b48       ??_C@_1M@MDGOPGDD@?$AAe?$AAs?$AA?9?$AAp?$AAa?$AA?$AA@ 000000018003eb48     libucrt:lcidtoname_downlevel.obj
 0002:00005b58       ??_C@_1M@EMAMGBGE@?$AAe?$AAs?$AA?9?$AAp?$AAe?$AA?$AA@ 000000018003eb58     libucrt:lcidtoname_downlevel.obj
 0002:00005b68       ??_C@_1M@IBMCAOEC@?$AAe?$AAs?$AA?9?$AAp?$AAr?$AA?$AA@ 000000018003eb68     libucrt:lcidtoname_downlevel.obj
 0002:00005b78       ??_C@_1M@FGMDIJED@?$AAe?$AAs?$AA?9?$AAp?$AAy?$AA?$AA@ 000000018003eb78     libucrt:lcidtoname_downlevel.obj
 0002:00005b88       ??_C@_1M@IIDEOLLL@?$AAe?$AAs?$AA?9?$AAs?$AAv?$AA?$AA@ 000000018003eb88     libucrt:lcidtoname_downlevel.obj
 0002:00005b98       ??_C@_1M@GAOBIPA@?$AAe?$AAs?$AA?9?$AAu?$AAy?$AA?$AA@ 000000018003eb98     libucrt:lcidtoname_downlevel.obj
 0002:00005ba8       ??_C@_1M@JKFFICHJ@?$AAe?$AAs?$AA?9?$AAv?$AAe?$AA?$AA@ 000000018003eba8     libucrt:lcidtoname_downlevel.obj
 0002:00005bb8       ??_C@_1M@PNMLOJDF@?$AAe?$AAt?$AA?9?$AAe?$AAe?$AA?$AA@ 000000018003ebb8     libucrt:lcidtoname_downlevel.obj
 0002:00005bc8       ??_C@_1M@GHHLIKEI@?$AAe?$AAu?$AA?9?$AAe?$AAs?$AA?$AA@ 000000018003ebc8     libucrt:lcidtoname_downlevel.obj
 0002:00005bd8       ??_C@_1M@PBNONODE@?$AAf?$AAa?$AA?9?$AAi?$AAr?$AA?$AA@ 000000018003ebd8     libucrt:lcidtoname_downlevel.obj
 0002:00005be8       ??_C@_1M@JEEHPMIL@?$AAf?$AAi?$AA?9?$AAf?$AAi?$AA?$AA@ 000000018003ebe8     libucrt:lcidtoname_downlevel.obj
 0002:00005bf8       ??_C@_1M@LMDCNDBA@?$AAf?$AAo?$AA?9?$AAf?$AAo?$AA?$AA@ 000000018003ebf8     libucrt:lcidtoname_downlevel.obj
 0002:00005c08       ??_C@_1M@JKEOHLDK@?$AAf?$AAr?$AA?9?$AAb?$AAe?$AA?$AA@ 000000018003ec08     libucrt:lcidtoname_downlevel.obj
 0002:00005c18       ??_C@_1M@NOHADPMI@?$AAf?$AAr?$AA?9?$AAc?$AAa?$AA?$AA@ 000000018003ec18     libucrt:lcidtoname_downlevel.obj
 0002:00005c28       ??_C@_1M@KDHIHAEC@?$AAf?$AAr?$AA?9?$AAc?$AAh?$AA?$AA@ 000000018003ec28     libucrt:lcidtoname_downlevel.obj
 0002:00005c38       ??_C@_1M@MMBBFGAK@?$AAf?$AAr?$AA?9?$AAf?$AAr?$AA?$AA@ 000000018003ec38     libucrt:lcidtoname_downlevel.obj
 0002:00005c48       ??_C@_1M@PAFNENNF@?$AAf?$AAr?$AA?9?$AAl?$AAu?$AA?$AA@ 000000018003ec48     libucrt:lcidtoname_downlevel.obj
 0002:00005c58       ??_C@_1M@EOHDJGDD@?$AAf?$AAr?$AA?9?$AAm?$AAc?$AA?$AA@ 000000018003ec58     libucrt:lcidtoname_downlevel.obj
 0002:00005c68       ??_C@_1M@FAPLLOPF@?$AAg?$AAl?$AA?9?$AAe?$AAs?$AA?$AA@ 000000018003ec68     libucrt:lcidtoname_downlevel.obj
 0002:00005c78       ??_C@_1M@FOPBFLOO@?$AAg?$AAu?$AA?9?$AAi?$AAn?$AA?$AA@ 000000018003ec78     libucrt:lcidtoname_downlevel.obj
 0002:00005c88       ??_C@_1M@KBMCINPM@?$AAh?$AAe?$AA?9?$AAi?$AAl?$AA?$AA@ 000000018003ec88     libucrt:lcidtoname_downlevel.obj
 0002:00005c98       ??_C@_1M@BBPHKFPJ@?$AAh?$AAi?$AA?9?$AAi?$AAn?$AA?$AA@ 000000018003ec98     libucrt:lcidtoname_downlevel.obj
 0002:00005ca8       ??_C@_1M@PMBNDPHD@?$AAh?$AAr?$AA?9?$AAb?$AAa?$AA?$AA@ 000000018003eca8     libucrt:lcidtoname_downlevel.obj
 0002:00005cb8       ??_C@_1M@BPCKOEGE@?$AAh?$AAr?$AA?9?$AAh?$AAr?$AA?$AA@ 000000018003ecb8     libucrt:lcidtoname_downlevel.obj
 0002:00005cc8       ??_C@_1M@GACBMHKE@?$AAh?$AAu?$AA?9?$AAh?$AAu?$AA?$AA@ 000000018003ecc8     libucrt:lcidtoname_downlevel.obj
 0002:00005cd8       ??_C@_1M@MILPAJJC@?$AAh?$AAy?$AA?9?$AAa?$AAm?$AA?$AA@ 000000018003ecd8     libucrt:lcidtoname_downlevel.obj
 0002:00005ce8       ??_C@_1M@BABBICEC@?$AAi?$AAd?$AA?9?$AAi?$AAd?$AA?$AA@ 000000018003ece8     libucrt:lcidtoname_downlevel.obj
 0002:00005cf8       ??_C@_1M@BIKNHHPF@?$AAi?$AAs?$AA?9?$AAi?$AAs?$AA?$AA@ 000000018003ecf8     libucrt:lcidtoname_downlevel.obj
 0002:00005d08       ??_C@_1M@NMPCJPHE@?$AAi?$AAt?$AA?9?$AAc?$AAh?$AA?$AA@ 000000018003ed08     libucrt:lcidtoname_downlevel.obj
 0002:00005d18       ??_C@_1M@GHKGFEDF@?$AAi?$AAt?$AA?9?$AAi?$AAt?$AA?$AA@ 000000018003ed18     libucrt:lcidtoname_downlevel.obj
 0002:00005d28       ??_C@_1M@NIEJCJJA@?$AAj?$AAa?$AA?9?$AAj?$AAp?$AA?$AA@ 000000018003ed28     libucrt:lcidtoname_downlevel.obj
 0002:00005d38       ??_C@_1M@JILFNBIM@?$AAk?$AAa?$AA?9?$AAg?$AAe?$AA?$AA@ 000000018003ed38     libucrt:lcidtoname_downlevel.obj
 0002:00005d48       ??_C@_1M@PACPMGPH@?$AAk?$AAk?$AA?9?$AAk?$AAz?$AA?$AA@ 000000018003ed48     libucrt:lcidtoname_downlevel.obj
 0002:00005d58       ??_C@_1M@IELFGMHA@?$AAk?$AAn?$AA?9?$AAi?$AAn?$AA?$AA@ 000000018003ed58     libucrt:lcidtoname_downlevel.obj
 0002:00005d68       ??_C@_1O@IBBJHCH@?$AAk?$AAo?$AAk?$AA?9?$AAi?$AAn?$AA?$AA@ 000000018003ed68     libucrt:lcidtoname_downlevel.obj
 0002:00005d78       ??_C@_1M@DMHAEOGC@?$AAk?$AAo?$AA?9?$AAk?$AAr?$AA?$AA@ 000000018003ed78     libucrt:lcidtoname_downlevel.obj
 0002:00005d88       ??_C@_1M@HBAHBIGA@?$AAk?$AAy?$AA?9?$AAk?$AAg?$AA?$AA@ 000000018003ed88     libucrt:lcidtoname_downlevel.obj
 0002:00005d98       ??_C@_1M@KPMILCJG@?$AAl?$AAt?$AA?9?$AAl?$AAt?$AA?$AA@ 000000018003ed98     libucrt:lcidtoname_downlevel.obj
 0002:00005da8       ??_C@_1M@BDEKKCA@?$AAl?$AAv?$AA?9?$AAl?$AAv?$AA?$AA@ 000000018003eda8     libucrt:lcidtoname_downlevel.obj
 0002:00005db8       ??_C@_1M@ELCKCCJJ@?$AAm?$AAi?$AA?9?$AAn?$AAz?$AA?$AA@ 000000018003edb8     libucrt:lcidtoname_downlevel.obj
 0002:00005dc8       ??_C@_1M@CBOOLAPA@?$AAm?$AAk?$AA?9?$AAm?$AAk?$AA?$AA@ 000000018003edc8     libucrt:lcidtoname_downlevel.obj
 0002:00005dd8       ??_C@_1M@GPHNBJKN@?$AAm?$AAl?$AA?9?$AAi?$AAn?$AA?$AA@ 000000018003edd8     libucrt:lcidtoname_downlevel.obj
 0002:00005de8       ??_C@_1M@PABJILIG@?$AAm?$AAn?$AA?9?$AAm?$AAn?$AA?$AA@ 000000018003ede8     libucrt:lcidtoname_downlevel.obj
 0002:00005df8       ??_C@_1M@FGBKKIPG@?$AAm?$AAr?$AA?9?$AAi?$AAn?$AA?$AA@ 000000018003edf8     libucrt:lcidtoname_downlevel.obj
 0002:00005e08       ??_C@_1M@NDBPDDAL@?$AAm?$AAs?$AA?9?$AAb?$AAn?$AA?$AA@ 000000018003ee08     libucrt:lcidtoname_downlevel.obj
 0002:00005e18       ??_C@_1M@OPIHOOPI@?$AAm?$AAs?$AA?9?$AAm?$AAy?$AA?$AA@ 000000018003ee18     libucrt:lcidtoname_downlevel.obj
 0002:00005e28       ??_C@_1M@PPDBCNFM@?$AAm?$AAt?$AA?9?$AAm?$AAt?$AA?$AA@ 000000018003ee28     libucrt:lcidtoname_downlevel.obj
 0002:00005e38       ??_C@_1M@KDJDKMDD@?$AAn?$AAb?$AA?9?$AAn?$AAo?$AA?$AA@ 000000018003ee38     libucrt:lcidtoname_downlevel.obj
 0002:00005e48       ??_C@_1M@KFCFLMJP@?$AAn?$AAl?$AA?9?$AAb?$AAe?$AA?$AA@ 000000018003ee48     libucrt:lcidtoname_downlevel.obj
 0002:00005e58       ??_C@_1M@KPOPDDGO@?$AAn?$AAl?$AA?9?$AAn?$AAl?$AA?$AA@ 000000018003ee58     libucrt:lcidtoname_downlevel.obj
 0002:00005e68       ??_C@_1M@LJKPEMLN@?$AAn?$AAn?$AA?9?$AAn?$AAo?$AA?$AA@ 000000018003ee68     libucrt:lcidtoname_downlevel.obj
 0002:00005e78       ??_C@_1M@BDGHHBFL@?$AAn?$AAs?$AA?9?$AAz?$AAa?$AA?$AA@ 000000018003ee78     libucrt:lcidtoname_downlevel.obj
 0002:00005e88       ??_C@_1M@IDEHOAP@?$AAp?$AAa?$AA?9?$AAi?$AAn?$AA?$AA@ 000000018003ee88     libucrt:lcidtoname_downlevel.obj
 0002:00005e98       ??_C@_1M@HDBKGOGH@?$AAp?$AAl?$AA?9?$AAp?$AAl?$AA?$AA@ 000000018003ee98     libucrt:lcidtoname_downlevel.obj
 0002:00005ea8       ??_C@_1M@LJLLCMEH@?$AAp?$AAt?$AA?9?$AAb?$AAr?$AA?$AA@ 000000018003eea8     libucrt:lcidtoname_downlevel.obj
 0002:00005eb8       ??_C@_1M@NCMONAAL@?$AAp?$AAt?$AA?9?$AAp?$AAt?$AA?$AA@ 000000018003eeb8     libucrt:lcidtoname_downlevel.obj
 0002:00005ec8       ??_C@_1O@EAKMAJDN@?$AAq?$AAu?$AAz?$AA?9?$AAb?$AAo?$AA?$AA@ 000000018003eec8     libucrt:lcidtoname_downlevel.obj
 0002:00005ed8       ??_C@_1O@BHHPIGDN@?$AAq?$AAu?$AAz?$AA?9?$AAe?$AAc?$AA?$AA@ 000000018003eed8     libucrt:lcidtoname_downlevel.obj
 0002:00005ee8       ??_C@_1O@GBAPEKMJ@?$AAq?$AAu?$AAz?$AA?9?$AAp?$AAe?$AA?$AA@ 000000018003eee8     libucrt:lcidtoname_downlevel.obj
 0002:00005ef8       ??_C@_1M@CLGLEFBO@?$AAr?$AAo?$AA?9?$AAr?$AAo?$AA?$AA@ 000000018003eef8     libucrt:lcidtoname_downlevel.obj
 0002:00005f08       ??_C@_1M@CEEDODME@?$AAr?$AAu?$AA?9?$AAr?$AAu?$AA?$AA@ 000000018003ef08     libucrt:lcidtoname_downlevel.obj
 0002:00005f18       ??_C@_1M@HPKKKMPP@?$AAs?$AAa?$AA?9?$AAi?$AAn?$AA?$AA@ 000000018003ef18     libucrt:lcidtoname_downlevel.obj
 0002:00005f28       ??_C@_1M@BKMAIGOJ@?$AAs?$AAe?$AA?9?$AAf?$AAi?$AA?$AA@ 000000018003ef28     libucrt:lcidtoname_downlevel.obj
 0002:00005f38       ??_C@_1M@NDPIFLFI@?$AAs?$AAe?$AA?9?$AAn?$AAo?$AA?$AA@ 000000018003ef38     libucrt:lcidtoname_downlevel.obj
 0002:00005f48       ??_C@_1M@DANKKHJ@?$AAs?$AAe?$AA?9?$AAs?$AAe?$AA?$AA@ 000000018003ef48     libucrt:lcidtoname_downlevel.obj
 0002:00005f58       ??_C@_1M@PNBLONPJ@?$AAs?$AAk?$AA?9?$AAs?$AAk?$AA?$AA@ 000000018003ef58     libucrt:lcidtoname_downlevel.obj
 0002:00005f68       ??_C@_1M@LFMODOAL@?$AAs?$AAl?$AA?9?$AAs?$AAi?$AA?$AA@ 000000018003ef68     libucrt:lcidtoname_downlevel.obj
 0002:00005f78       ??_C@_1O@DFKOMPG@?$AAs?$AAm?$AAa?$AA?9?$AAn?$AAo?$AA?$AA@ 000000018003ef78     libucrt:lcidtoname_downlevel.obj
 0002:00005f88       ??_C@_1O@NDKPBNNH@?$AAs?$AAm?$AAa?$AA?9?$AAs?$AAe?$AA?$AA@ 000000018003ef88     libucrt:lcidtoname_downlevel.obj
 0002:00005f98       ??_C@_1O@PLLKBHAB@?$AAs?$AAm?$AAj?$AA?9?$AAn?$AAo?$AA?$AA@ 000000018003ef98     libucrt:lcidtoname_downlevel.obj
 0002:00005fa8       ??_C@_1O@CLEPOGCA@?$AAs?$AAm?$AAj?$AA?9?$AAs?$AAe?$AA?$AA@ 000000018003efa8     libucrt:lcidtoname_downlevel.obj
 0002:00005fb8       ??_C@_1O@DLGJGKMK@?$AAs?$AAm?$AAn?$AA?9?$AAf?$AAi?$AA?$AA@ 000000018003efb8     libucrt:lcidtoname_downlevel.obj
 0002:00005fc8       ??_C@_1O@OJDJGAJC@?$AAs?$AAm?$AAs?$AA?9?$AAf?$AAi?$AA?$AA@ 000000018003efc8     libucrt:lcidtoname_downlevel.obj
 0002:00005fd8       ??_C@_1M@BOFOGHPB@?$AAs?$AAq?$AA?9?$AAa?$AAl?$AA?$AA@ 000000018003efd8     libucrt:lcidtoname_downlevel.obj
 0002:00005fe8       ??_C@_1BG@LJBBIPGB@?$AAs?$AAr?$AA?9?$AAb?$AAa?$AA?9?$AAc?$AAy?$AAr?$AAl?$AA?$AA@ 000000018003efe8     libucrt:lcidtoname_downlevel.obj
 0002:00006000       ??_C@_1BG@JLBENFOE@?$AAs?$AAr?$AA?9?$AAb?$AAa?$AA?9?$AAl?$AAa?$AAt?$AAn?$AA?$AA@ 000000018003f000     libucrt:lcidtoname_downlevel.obj
 0002:00006018       ??_C@_1BG@KODPNHE@?$AAs?$AAr?$AA?9?$AAs?$AAp?$AA?9?$AAc?$AAy?$AAr?$AAl?$AA?$AA@ 000000018003f018     libucrt:lcidtoname_downlevel.obj
 0002:00006030       ??_C@_1BG@CIOGKHPB@?$AAs?$AAr?$AA?9?$AAs?$AAp?$AA?9?$AAl?$AAa?$AAt?$AAn?$AA?$AA@ 000000018003f030     libucrt:lcidtoname_downlevel.obj
 0002:00006048       ??_C@_1M@NGFJLMAC@?$AAs?$AAv?$AA?9?$AAf?$AAi?$AA?$AA@ 000000018003f048     libucrt:lcidtoname_downlevel.obj
 0002:00006058       ??_C@_1M@MPJEJAJC@?$AAs?$AAv?$AA?9?$AAs?$AAe?$AA?$AA@ 000000018003f058     libucrt:lcidtoname_downlevel.obj
 0002:00006068       ??_C@_1M@MPNDHLFK@?$AAs?$AAw?$AA?9?$AAk?$AAe?$AA?$AA@ 000000018003f068     libucrt:lcidtoname_downlevel.obj
 0002:00006078       ??_C@_1O@KOHBJJI@?$AAs?$AAy?$AAr?$AA?9?$AAs?$AAy?$AA?$AA@ 000000018003f078     libucrt:lcidtoname_downlevel.obj
 0002:00006088       ??_C@_1M@LDCEFHA@?$AAt?$AAa?$AA?9?$AAi?$AAn?$AA?$AA@ 000000018003f088     libucrt:lcidtoname_downlevel.obj
 0002:00006098       ??_C@_1M@CNJOFAK@?$AAt?$AAe?$AA?9?$AAi?$AAn?$AA?$AA@ 000000018003f098     libucrt:lcidtoname_downlevel.obj
 0002:000060a8       ??_C@_1M@GNAECACD@?$AAt?$AAh?$AA?9?$AAt?$AAh?$AA?$AA@ 000000018003f0a8     libucrt:lcidtoname_downlevel.obj
 0002:000060b8       ??_C@_1M@CHBIHOJO@?$AAt?$AAn?$AA?9?$AAz?$AAa?$AA?$AA@ 000000018003f0b8     libucrt:lcidtoname_downlevel.obj
 0002:000060c8       ??_C@_1M@GCCMIGPJ@?$AAt?$AAr?$AA?9?$AAt?$AAr?$AA?$AA@ 000000018003f0c8     libucrt:lcidtoname_downlevel.obj
 0002:000060d8       ??_C@_1M@CELMCNBK@?$AAt?$AAt?$AA?9?$AAr?$AAu?$AA?$AA@ 000000018003f0d8     libucrt:lcidtoname_downlevel.obj
 0002:000060e8       ??_C@_1M@KLMCELGA@?$AAu?$AAk?$AA?9?$AAu?$AAa?$AA?$AA@ 000000018003f0e8     libucrt:lcidtoname_downlevel.obj
 0002:000060f8       ??_C@_1M@EPAJJAJF@?$AAu?$AAr?$AA?9?$AAp?$AAk?$AA?$AA@ 000000018003f0f8     libucrt:lcidtoname_downlevel.obj
 0002:00006108       ??_C@_1BG@GEGPMCDJ@?$AAu?$AAz?$AA?9?$AAu?$AAz?$AA?9?$AAc?$AAy?$AAr?$AAl?$AA?$AA@ 000000018003f108     libucrt:lcidtoname_downlevel.obj
 0002:00006120       ??_C@_1BG@EGGKJILM@?$AAu?$AAz?$AA?9?$AAu?$AAz?$AA?9?$AAl?$AAa?$AAt?$AAn?$AA?$AA@ 000000018003f120     libucrt:lcidtoname_downlevel.obj
 0002:00006138       ??_C@_1M@GFOCLFF@?$AAv?$AAi?$AA?9?$AAv?$AAn?$AA?$AA@ 000000018003f138     libucrt:lcidtoname_downlevel.obj
 0002:00006148       ??_C@_1M@CPAMEDFI@?$AAx?$AAh?$AA?9?$AAz?$AAa?$AA?$AA@ 000000018003f148     libucrt:lcidtoname_downlevel.obj
 0002:00006158       ??_C@_1O@EBKIFIGN@?$AAz?$AAh?$AA?9?$AAc?$AAh?$AAs?$AA?$AA@ 000000018003f158     libucrt:lcidtoname_downlevel.obj
 0002:00006168       ??_C@_1O@NMHPGANE@?$AAz?$AAh?$AA?9?$AAc?$AAh?$AAt?$AA?$AA@ 000000018003f168     libucrt:lcidtoname_downlevel.obj
 0002:00006178       ??_C@_1M@LPINJOMC@?$AAz?$AAh?$AA?9?$AAc?$AAn?$AA?$AA@ 000000018003f178     libucrt:lcidtoname_downlevel.obj
 0002:00006188       ??_C@_1M@OCJEJODD@?$AAz?$AAh?$AA?9?$AAh?$AAk?$AA?$AA@ 000000018003f188     libucrt:lcidtoname_downlevel.obj
 0002:00006198       ??_C@_1M@DNDLJINH@?$AAz?$AAh?$AA?9?$AAm?$AAo?$AA?$AA@ 000000018003f198     libucrt:lcidtoname_downlevel.obj
 0002:000061a8       ??_C@_1M@MBFDNDND@?$AAz?$AAh?$AA?9?$AAs?$AAg?$AA?$AA@ 000000018003f1a8     libucrt:lcidtoname_downlevel.obj
 0002:000061b8       ??_C@_1M@IMEPLEPE@?$AAz?$AAh?$AA?9?$AAt?$AAw?$AA?$AA@ 000000018003f1b8     libucrt:lcidtoname_downlevel.obj
 0002:000061c8       ??_C@_1M@BBGHNHJP@?$AAz?$AAu?$AA?9?$AAz?$AAa?$AA?$AA@ 000000018003f1c8     libucrt:lcidtoname_downlevel.obj
 0002:000061e0       ?large_power_data@?1??multiply_by_power_of_ten@__crt_strtox@@YA_NAEAUbig_integer@2@I@Z@4QBIB 000000018003f1e0     libucrt:cfout.obj
 0002:00006af0       ?large_power_indices@?1??multiply_by_power_of_ten@__crt_strtox@@YA_NAEAUbig_integer@2@I@Z@4QBUunpack_index@?1??12@YA_N0I@Z@B 000000018003faf0     libucrt:cfout.obj
 0002:00006b88       ?small_powers_of_ten@?6??multiply_by_power_of_ten@__crt_strtox@@YA_NAEAUbig_integer@2@I@Z@4QBIB 000000018003fb88     libucrt:cfout.obj
 0002:00006bac       ??_C@_01GBGANLPD@0?$AA@    000000018003fbac     libucrt:cfout.obj
 0002:00006bb0       ??_C@_05DNEBIAHO@1?$CDINF?$AA@ 000000018003fbb0     libucrt:cfout.obj
 0002:00006bb8       ??_C@_06IMKFLFPG@1?$CDQNAN?$AA@ 000000018003fbb8     libucrt:cfout.obj
 0002:00006bc0       ??_C@_06PGGFOGJG@1?$CDSNAN?$AA@ 000000018003fbc0     libucrt:cfout.obj
 0002:00006bc8       ??_C@_05PHHOCPM@1?$CDIND?$AA@ 000000018003fbc8     libucrt:cfout.obj
 0002:00006e20       ??_C@_1BA@BALFACEM@?$AAC?$AAO?$AAN?$AAO?$AAU?$AAT?$AA$?$AA?$AA@ 000000018003fe20     libucrt:initcon.obj
 0002:00006e30       __log10_256_lead           000000018003fe30     libucrt:log10_256_lead_tail_table.obj
 0002:00007640       __log10_256_tail           0000000180040640     libucrt:log10_256_lead_tail_table.obj
 0002:00007e50       __log_F_inv_qword          0000000180040e50     libucrt:log_f_inv_qword_table.obj
 0002:00008660       ??_C@_1BK@DBDEIDLH@?$AAK?$AAE?$AAR?$AAN?$AAE?$AAL?$AA3?$AA2?$AA?4?$AAD?$AAL?$AAL?$AA?$AA@ 0000000180041660     DelayImp:delayhlp.obj
 0002:00008680       ??_C@_0BI@OMNLIJDB@AcquireSRWLockExclusive?$AA@ 0000000180041680     DelayImp:delayhlp.obj
 0002:00008698       ??_C@_0BI@HMIEPCNJ@ReleaseSRWLockExclusive?$AA@ 0000000180041698     DelayImp:delayhlp.obj
 0002:000086b0       _load_config_used          00000001800416b0     LIBCMT:loadcfg.obj
 0002:00008748       ??_C@_0CK@JCPCLECK@external?5memory?5allocation?5limit@ 0000000180041748     binding.obj
 0002:00008780       ??_C@_1KM@EGPDMKIM@?$AAC?$AA?3?$AA?2?$AAU?$AAs?$AAe?$AAr?$AAs?$AA?2?$AAm?$AAi?$AAl?$AAz?$AAo?$AAl?$AAi?$AA?2?$AAD?$AAo?$AAc?$AAu?$AAm?$AAe?$AAn?$AAt?$AAs?$AA?2?$AAP?$AAr?$AAo?$AAj?$AAe@ 0000000180041780     binding.obj
 0002:00008830       ??_C@_1FM@LOELJOFK@?$AAs?$AAi?$AAz?$AAe?$AA?5?$AA?$DM?$AA?$DN?$AA?5?$AAi?$AAm?$AAp?$AA?3?$AA?3?$AAk?$AAM?$AAa?$AAx?$AAL?$AAe?$AAn?$AAg?$AAt?$AAh?$AA?5?$AA?$CG?$AA?$CG?$AA?5?$AA?$CC?$AAt?$AAo?$AAo?$AA?5@ 0000000180041830     binding.obj
 0002:0000888c       ??_C@_06HJNGGFGI@vendor?$AA@ 000000018004188c     binding.obj
 0002:00008898       ??_C@_08PAMBCCJ@channels?$AA@ 0000000180041898     binding.obj
 0002:000088a8       ??_C@_0L@FCPFAJBH@sampleRate?$AA@ 00000001800418a8     binding.obj
 0002:000088b8       ??_C@_08OMBIDMCD@bitDepth?$AA@ 00000001800418b8     binding.obj
 0002:000088c4       ??_C@_05KNFBNCOH@float?$AA@ 00000001800418c4     binding.obj
 0002:000088cc       ??_C@_06CPIODIKA@signed?$AA@ 00000001800418cc     binding.obj
 0002:000088d8       ??_C@_07CPCPJPKL@version?$AA@ 00000001800418d8     binding.obj
 0002:000088e0       ??_C@_0N@LAKPFGEC@bitrateUpper?$AA@ 00000001800418e0     binding.obj
 0002:000088f0       ??_C@_0P@BACKDJGM@bitrateNominal?$AA@ 00000001800418f0     binding.obj
 0002:00008900       ??_C@_0N@OLBBDNPL@bitrateLower?$AA@ 0000000180041900     binding.obj
 0002:00008910       ??_C@_0O@DIMIFMAE@bitrateWindow?$AA@ 0000000180041910     binding.obj
 0002:00008920       ??_C@_0BD@DOBOAEDD@sizeof_vorbis_info?$AA@ 0000000180041920     binding.obj
 0002:00008938       ??_C@_0BG@JKBMEKKG@sizeof_vorbis_comment?$AA@ 0000000180041938     binding.obj
 0002:00008950       ??_C@_0BI@MNFEIFAG@sizeof_vorbis_dsp_state?$AA@ 0000000180041950     binding.obj
 0002:00008968       ??_C@_0BE@FNPCNIDD@sizeof_vorbis_block?$AA@ 0000000180041968     binding.obj
 0002:00008980       ??_C@_0BC@JFKMBHLF@sizeof_ogg_packet?$AA@ 0000000180041980     binding.obj
 0002:00008998       ??_C@_08NAKNBADM@OV_FALSE?$AA@ 0000000180041998     binding.obj
 0002:000089a4       ??_C@_06MBGLBMJA@OV_EOF?$AA@ 00000001800419a4     binding.obj
 0002:000089b0       ??_C@_07IIMHACHP@OV_HOLE?$AA@ 00000001800419b0     binding.obj
 0002:000089b8       ??_C@_08KMIIGBF@OV_EREAD?$AA@ 00000001800419b8     binding.obj
 0002:000089c8       ??_C@_09PKPMDAA@OV_EFAULT?$AA@ 00000001800419c8     binding.obj
 0002:000089d8       ??_C@_08NHBELCG@OV_EIMPL?$AA@ 00000001800419d8     binding.obj
 0002:000089e8       ??_C@_09OENPECOA@OV_EINVAL?$AA@ 00000001800419e8     binding.obj
 0002:000089f8       ??_C@_0O@KNKILEL@OV_ENOTVORBIS?$AA@ 00000001800419f8     binding.obj
 0002:00008a08       ??_C@_0O@CAMPDPCC@OV_EBADHEADER?$AA@ 0000000180041a08     binding.obj
 0002:00008a18       ??_C@_0M@MCGDJOEC@OV_EVERSION?$AA@ 0000000180041a18     binding.obj
 0002:00008a28       ??_C@_0N@DDLJJBOE@OV_ENOTAUDIO?$AA@ 0000000180041a28     binding.obj
 0002:00008a38       ??_C@_0O@JLJGELCN@OV_EBADPACKET?$AA@ 0000000180041a38     binding.obj
 0002:00008a48       ??_C@_0M@IFFHPKCH@OV_EBADLINK?$AA@ 0000000180041a48     binding.obj
 0002:00008a58       ??_C@_0L@PFMLGFHH@OV_ENOSEEK?$AA@ 0000000180041a58     binding.obj
 0002:00008a68       ??_C@_0BB@NMNJJEKC@vorbis_info_init?$AA@ 0000000180041a68     binding.obj
 0002:00008a80       ??_C@_0BE@FJHLCKLH@vorbis_comment_init?$AA@ 0000000180041a80     binding.obj
 0002:00008a98       ??_C@_0BG@KNJIJGAJ@vorbis_synthesis_init?$AA@ 0000000180041a98     binding.obj
 0002:00008ab0       ??_C@_0BF@IAOHONPG@vorbis_analysis_init?$AA@ 0000000180041ab0     binding.obj
 0002:00008ac8       ??_C@_0BC@BKIJOCLE@vorbis_block_init?$AA@ 0000000180041ac8     binding.obj
 0002:00008ae0       ??_C@_0BH@KFCHJHHO@vorbis_encode_init_vbr?$AA@ 0000000180041ae0     binding.obj
 0002:00008af8       ??_C@_0BK@MOEMMLE@vorbis_analysis_headerout?$AA@ 0000000180041af8     binding.obj
 0002:00008b18       ??_C@_0BG@NABIDGEO@vorbis_analysis_write?$AA@ 0000000180041b18     binding.obj
 0002:00008b30       ??_C@_0BJ@NHANMFHK@vorbis_analysis_blockout?$AA@ 0000000180041b30     binding.obj
 0002:00008b50       ??_C@_0BE@CONLKHOE@vorbis_analysis_eos?$AA@ 0000000180041b50     binding.obj
 0002:00008b68       ??_C@_0BA@GEFNLHDC@vorbis_analysis?$AA@ 0000000180041b68     binding.obj
 0002:00008b78       ??_C@_0BI@JJLDKOPP@vorbis_bitrate_addblock?$AA@ 0000000180041b78     binding.obj
 0002:00008b90       ??_C@_0BL@OAPEDOCH@vorbis_bitrate_flushpacket?$AA@ 0000000180041b90     binding.obj
 0002:00008bb0       ??_C@_0BK@CJFHLONL@vorbis_synthesis_idheader?$AA@ 0000000180041bb0     binding.obj
 0002:00008bd0       ??_C@_0BK@MDNNDGMK@vorbis_synthesis_headerin?$AA@ 0000000180041bd0     binding.obj
 0002:00008bf0       ??_C@_0BB@KDHFLKCL@vorbis_synthesis?$AA@ 0000000180041bf0     binding.obj
 0002:00008c08       ??_C@_0BJ@EICNGOLM@vorbis_synthesis_blockin?$AA@ 0000000180041c08     binding.obj
 0002:00008c28       ??_C@_0BI@ONIHIKHE@vorbis_synthesis_pcmout?$AA@ 0000000180041c28     binding.obj
 0002:00008c40       ??_C@_0O@LCEKGCKB@comment_array?$AA@ 0000000180041c40     binding.obj
 0002:00008c50       ??_C@_0L@KCMMDEOL@get_format?$AA@ 0000000180041c50     binding.obj
 0002:00008c60       ??_C@_0BC@OMDPIAIO@?4?4?2src?2binding?4cc?$AA@ 0000000180041c60     binding.obj
 0002:00008c74       ??_C@_06EFKACOKC@vorbis?$AA@ 0000000180041c74     binding.obj
 0002:00008c80       ??_7AsyncWorker@Nan@@6B@   0000000180041c80     binding.obj
 0002:00008cb0       ??_7ExternalStringResourceBase@String@v8@@6B@ 0000000180041cb0     binding.obj
 0002:00008cc0       ??_7SynthesisIdheaderWorker@nodevorbis@@6B@ 0000000180041cc0     binding.obj
 0002:00008cf0       ??_7BitrateFlushpacketWorker@nodevorbis@@6B@ 0000000180041cf0     binding.obj
 0002:00008d20       ??_7ExternalOneByteStringResourceImpl@v8@@6B@ 0000000180041d20     binding.obj
 0002:00008d40       ??_7ExternalOneByteStringResource@String@v8@@6B@ 0000000180041d40     binding.obj
 0002:00008d40       ??_7ExternalStringResource@String@v8@@6B@ 0000000180041d40     binding.obj
 0002:00008d60       ??_7AnalysisWriteWorker@nodevorbis@@6B@ 0000000180041d60     binding.obj
 0002:00008d90       ??_7ExternalSourceStream@ScriptCompiler@v8@@6B@ 0000000180041d90     binding.obj
 0002:00008db0       ??_7AnalysisBlockoutWorker@nodevorbis@@6B@ 0000000180041db0     binding.obj
 0002:00008de0       ??_7SynthesisHeaderinWorker@nodevorbis@@6B@ 0000000180041de0     binding.obj
 0002:00008e10       ??_7Allocator@ArrayBuffer@v8@@6B@ 0000000180041e10     binding.obj
 0002:00008e30       ??_7Extension@v8@@6B@      0000000180041e30     binding.obj
 0002:00008e40       ?kNoColumnInfo@Message@v8@@2HB 0000000180041e40     binding.obj
 0002:00008e40       ?kNoScriptIdInfo@Message@v8@@2HB 0000000180041e40     binding.obj
 0002:00008e40       ?kNoLineNumberInfo@Message@v8@@2HB 0000000180041e40     binding.obj
 0002:00008e40       ?kNoScriptId@UnboundScript@v8@@2HB 0000000180041e40     binding.obj
 0002:00008e44       ?kMaxLength@String@v8@@2HB 0000000180041e44     binding.obj
 0002:00008e48       ?kInternalFieldCount@SharedArrayBuffer@v8@@2HB 0000000180041e48     binding.obj
 0002:00008e48       ?kInternalFieldCount@ArrayBuffer@v8@@2HB 0000000180041e48     binding.obj
 0002:00008e48       ?kInternalFieldCount@ArrayBufferView@v8@@2HB 0000000180041e48     binding.obj
 0002:00008e50       ??_7PersistentHandleVisitor@v8@@6B@ 0000000180041e50     binding.obj
 0002:00008e50       ??_7ExternalResourceVisitor@v8@@6B@ 0000000180041e50     binding.obj
 0002:00008e60       ??_C@_08HCOMDCCD@iojs?4exe?$AA@ 0000000180041e60     win_delay_load_hook.obj
 0002:00008e70       ??_C@_08JDDNMFDB@node?4exe?$AA@ 0000000180041e70     win_delay_load_hook.obj
 0002:00008e7c       ??_C@_01NEMOKFLO@?$DN?$AA@ 0000000180041e7c     libvorbis:info.obj
 0002:00008e80       ??_C@_0CM@NHBMDKAB@Xiph?4Org?5libVorbis?5I?520120203?5?$CIO@ 0000000180041e80     libvorbis:info.obj
 0002:00008eb0       ??_C@_0BJ@EJIKMOLF@Xiph?4Org?5libVorbis?51?43?43?$AA@ 0000000180041eb0     libvorbis:info.obj
 0002:00008ed0       _residue_P                 0000000180041ed0     libvorbis:registry.obj
 0002:00008ee8       _mapping_P                 0000000180041ee8     libvorbis:registry.obj
 0002:00008ef0       _floor_P                   0000000180041ef0     libvorbis:registry.obj
 0002:00016e20       floor0_exportbundle        000000018004fe20     libvorbis:floor0.obj
 0002:00016e58       mapping0_exportbundle      000000018004fe58     libvorbis:mapping0.obj
 0002:00016e80       residue2_exportbundle      000000018004fe80     libvorbis:res0.obj
 0002:00016ec0       residue0_exportbundle      000000018004fec0     libvorbis:res0.obj
 0002:00016f00       residue1_exportbundle      000000018004ff00     libvorbis:res0.obj
 0002:00016f40       floor1_exportbundle        000000018004ff40     libvorbis:floor1.obj
 0002:00182ac4       __real@329ee9ee            00000001801bbac4     libvorbis:floor0.obj
 0002:00182ac8       __real@3540a8c1            00000001801bbac8     libvorbis:mapping0.obj
 0002:00182acc       __real@38d1b717            00000001801bbacc     libvorbis:floor0.obj
 0002:00182ad0       __real@3a41fc8f            00000001801bbad0     libvorbis:floor0.obj
 0002:00182ad8       __real@3ddb7cdfd9d7bdbb    00000001801bbad8     libvorbis:lpc.obj
 0002:00182ae0       __real@3e112e0be826d695    00000001801bbae0     libvorbis:lpc.obj
 0002:00182ae8       __real@3e7ad7f29abcaf48    00000001801bbae8     libvorbisenc:vorbisenc.obj
 0002:00182af0       __real@3e800000            00000001801bbaf0     libvorbis:psy.obj
 0002:00182af4       __real@3ec3ef15            00000001801bbaf4     libvorbis:mdct.obj
 0002:00182af8       __real@3f000000            00000001801bbaf8     libvorbis:lsp.obj
 0002:00182b00       __real@3f33a92a30553261    00000001801bbb00     libvorbis:psy.obj
 0002:00182b08       __real@3f3504f3            00000001801bbb08     libvorbis:smallft.obj
 0002:00182b10       __real@3f50624dd2f1a9fc    00000001801bbb10     libvorbisenc:vorbisenc.obj
 0002:00182b18       __real@3f6c835e            00000001801bbb18     libvorbis:mdct.obj
 0002:00182b20       __real@3f747ae147ae147b    00000001801bbb20     libvorbis:psy.obj
 0002:00182b28       __real@3f7ff972            00000001801bbb28     libvorbisenc:vorbisenc.obj
 0002:00182b2c       __real@3f800000            00000001801bbb2c     libvorbis:smallft.obj
 0002:00182b30       __real@3fb0000000000000    00000001801bbb30     libvorbis:envelope.obj
 0002:00182b38       __real@3fb99999a0000000    00000001801bbb38     libvorbis:psy.obj
 0002:00182b40       __real@3fbd791c40000000    00000001801bbb40     libvorbis:lsp.obj
 0002:00182b48       __real@3fc0000000000000    00000001801bbb48     libvorbis:psy.obj
 0002:00182b50       __real@3fc999999999999a    00000001801bbb50     libvorbis:envelope.obj
 0002:00182b58       __real@3fd6147ae147ae14    00000001801bbb58     libvorbis:mapping0.obj
 0002:00182b60       __real@3fe0000000000000    00000001801bbb60     libvorbis:floor1.obj
 0002:00182b68       __real@3fe62e42a0000000    00000001801bbb68     libvorbis:psy.obj
 0002:00182b70       __real@3fe6666666666666    00000001801bbb70     libvorbis:envelope.obj
 0002:00182b78       __real@3feccccccccccccd    00000001801bbb78     libvorbisenc:vorbisenc.obj
 0002:00182b80       __real@3fefae147ae147ae    00000001801bbb80     libvorbis:lpc.obj
 0002:00182b88       __real@3ff0000000000000    00000001801bbb88     libvorbisenc:vorbisenc.obj
 0002:00182b90       __real@3ff000000006df38    00000001801bbb90     libvorbis:lpc.obj
 0002:00182b98       __real@3ff7154760000000    00000001801bbb98     libvorbis:psy.obj
 0002:00182ba0       __real@3fff000000000000    00000001801bbba0     libvorbis:psy.obj
 0002:00182ba8       __real@40000000            00000001801bbba8     libvorbis:lsp.obj
 0002:00182bb0       __real@4000000000000000    00000001801bbbb0     libvorbis:lsp.obj
 0002:00182bb8       __real@4000800000000000    00000001801bbbb8     libvorbis:psy.obj
 0002:00182bc0       __real@4001eb8520000000    00000001801bbbc0     libvorbis:floor0.obj
 0002:00182bc8       __real@400921fb60000000    00000001801bbbc8     libvorbis:envelope.obj
 0002:00182bd0       __real@4017dcf680000000    00000001801bbbd0     libvorbis:psy.obj
 0002:00182bd8       __real@4020000000000000    00000001801bbbd8     libvorbis:envelope.obj
 0002:00182be0       __real@4024000000000000    00000001801bbbe0     libvorbis:psy.obj
 0002:00182be8       __real@402a333340000000    00000001801bbbe8     libvorbis:floor0.obj
 0002:00182bf0       __real@402e000000000000    00000001801bbbf0     libvorbis:bitrate.obj
 0002:00182bf8       __real@403e000000000000    00000001801bbbf8     libvorbis:psy.obj
 0002:00182c00       __real@40490fdb            00000001801bbc00     libvorbis:lsp.obj
 0002:00182c08       __real@4059000000000000    00000001801bbc08     libvorbis:res0.obj
 0002:00182c10       __real@405fc00000000000    00000001801bbc10     libvorbis:envelope.obj
 0002:00182c18       __real@406f400000000000    00000001801bbc18     libvorbisenc:vorbisenc.obj
 0002:00182c20       __real@40800000            00000001801bbc20     libvorbis:lsp.obj
 0002:00182c28       __real@408f400000000000    00000001801bbc28     libvorbisenc:vorbisenc.obj
 0002:00182c30       __real@40c00000            00000001801bbc30     libvorbisenc:vorbisenc.obj
 0002:00182c34       __real@40c90fdb            00000001801bbc34     libvorbis:smallft.obj
 0002:00182c38       __real@40ea0ea1            00000001801bbc38     libvorbis:floor1.obj
 0002:00182c3c       __real@41000000            00000001801bbc3c     libvorbis:psy.obj
 0002:00182c40       __real@41800000            00000001801bbc40     libvorbis:psy.obj
 0002:00182c44       __real@430c0000            00000001801bbc44     libvorbis:psy.obj
 0002:00182c48       __real@443f2770            00000001801bbc48     libvorbis:mapping0.obj
 0002:00182c4c       __real@4479c000            00000001801bbc4c     libvorbis:psy.obj
 0002:00182c50       __real@447fe000            00000001801bbc50     libvorbis:floor1.obj
 0002:00182c54       __real@47c34f80            00000001801bbc54     libvorbis:envelope.obj
 0002:00182c58       __real@bf3504f3            00000001801bbc58     libvorbis:smallft.obj
 0002:00182c5c       __real@bf800000            00000001801bbc5c     libvorbis:psy.obj
 0002:00182c60       __real@bfe0000000000000    00000001801bbc60     libvorbis:mdct.obj
 0002:00182c68       __real@bff0000000000000    00000001801bbc68     libvorbisenc:vorbisenc.obj
 0002:00182c70       __real@c054000000000000    00000001801bbc70     libvorbisenc:vorbisenc.obj
 0002:00182c78       __real@c069000000000000    00000001801bbc78     libvorbisenc:vorbisenc.obj
 0002:00182c80       __real@c0f869f000000000    00000001801bbc80     libvorbisenc:vorbisenc.obj
 0002:00182c88       __real@c189999a            00000001801bbc88     libvorbis:psy.obj
 0002:00182c8c       __real@c1f00000            00000001801bbc8c     libvorbis:psy.obj
 0002:00182c90       __real@c3480000            00000001801bbc90     libvorbis:psy.obj
 0002:00182c94       __real@c61c3c00            00000001801bbc94     libvorbis:psy.obj
 0002:00182c98       __real@c7c34f80            00000001801bbc98     libvorbis:envelope.obj
 0002:00182ca0       __xmm@00000000000000d100000000000000d1 00000001801bbca0     libvorbis:floor1.obj
 0002:00182cb0       __xmm@00000001000000010000000100000001 00000001801bbcb0     libvorbis:sharedbook.obj
 0002:00182cc0       __xmm@00000003000000020000000100000000 00000001801bbcc0     libvorbis:floor1.obj
 0002:00182cd0       __xmm@00000080000000800000008000000080 00000001801bbcd0     libvorbis:envelope.obj
 0002:00182ce0       __xmm@00007fff00007fff00007fff00007fff 00000001801bbce0     libvorbis:floor1.obj
 0002:00182cf0       __xmm@00008000000080000000800000008000 00000001801bbcf0     libvorbis:floor1.obj
 0002:00182d00       __xmm@00010000000100000001000000010000 00000001801bbd00     libvorbis:floor1.obj
 0002:00182d10       __xmm@3ff00000000000003ff0000000000000 00000001801bbd10     libvorbis:envelope.obj
 0002:00182d20       __xmm@40000000000000004000000000000000 00000001801bbd20     libvorbis:lsp.obj
 0002:00182d30       __xmm@400921fb60000000400921fb60000000 00000001801bbd30     libvorbis:envelope.obj
 0002:00182d40       __xmm@403e000000000000403e000000000000 00000001801bbd40     libvorbis:psy.obj
 0002:00182d50       __xmm@40590000000000004059000000000000 00000001801bbd50     libvorbis:psy.obj
 0002:00182d60       __xmm@41200000412000004120000041200000 00000001801bbd60     libvorbis:psy.obj
 0002:00182d70       __xmm@7fffffffffffffff7fffffffffffffff 00000001801bbd70     libvorbis:psy.obj
 0002:00182d80       __xmm@80000000000000008000000000000000 00000001801bbd80     libvorbis:mdct.obj
 0002:00182d90       __xmm@80000000800000008000000080000000 00000001801bbd90     libvorbis:smallft.obj
 0002:00182da0       __xmm@ffffffffffffffffffffffffffffffff 00000001801bbda0     libvorbis:floor1.obj
 0002:00182db0       __real@3c7007887af0cbbc    00000001801bbdb0     libucrt:atan.obj
 0002:00182db8       __real@3c7a2b7f222f65e0    00000001801bbdb8     libucrt:atan.obj
 0002:00182dc0       __real@3c81a62633145c06    00000001801bbdc0     libucrt:atan.obj
 0002:00182dc8       __real@3c91a62633145c06    00000001801bbdc8     libucrt:atan.obj
 0002:00182dd0       __real@3f22a75ce41b9f87    00000001801bbdd0     libucrt:atan.obj
 0002:00182dd8       __real@3f9f2d2116f053f2    00000001801bbdd8     libucrt:atan.obj
 0002:00182de0       __real@3fa3f197f1e85ed9    00000001801bbde0     libucrt:atan.obj
 0002:00182de8       __real@3fcc3de43db425c0    00000001801bbde8     libucrt:atan.obj
 0002:00182df0       __real@3fd12bcb0a9169f3    00000001801bbdf0     libucrt:atan.obj
 0002:00182df8       __real@3fdb2cb05bf9beff    00000001801bbdf8     libucrt:atan.obj
 0002:00182e00       __real@3fdca6be4c993b3c    00000001801bbe00     libucrt:atan.obj
 0002:00182e08       __real@3fddac670561bb4f    00000001801bbe08     libucrt:atan.obj
 0002:00182e10       __real@3fe921fb54442d18    00000001801bbe10     libucrt:atan.obj
 0002:00182e18       __real@3fe9c1b08fda1eec    00000001801bbe18     libucrt:atan.obj
 0002:00182e20       __real@3fef730bd281f69b    00000001801bbe20     libucrt:atan.obj
 0002:00182e28       __real@3ff699c644c48d2e    00000001801bbe28     libucrt:atan.obj
 0002:00182e30       __real@3ff8000000000000    00000001801bbe30     libucrt:atan.obj
 0002:00182e38       __real@3ff921fb54442d18    00000001801bbe38     libucrt:atan.obj
 0002:00182e40       __real@3ffd372a17cdf5a0    00000001801bbe40     libucrt:atan.obj
 0002:00182e48       __real@43d0dc0000000000    00000001801bbe48     libucrt:atan.obj
 0002:00182e50       __real@bff921fb54442d18    00000001801bbe50     libucrt:atan.obj
 0002:001846e0       __Lcosarray                00000001801bd6e0     libucrt:lsincos_array.obj
 0002:00184740       __Lsinarray                00000001801bd740     libucrt:lsincos_array.obj
 0002:00184ac0       __two_to_jby64_table       00000001801bdac0     libucrt:two_to_jby64_table.obj
 0002:00184cc0       __two_to_jby64_head_table  00000001801bdcc0     libucrt:two_to_jby64_head_tail_table.obj
 0002:00184ec0       __two_to_jby64_tail_table  00000001801bdec0     libucrt:two_to_jby64_head_tail_table.obj
 0002:001850c0       __log_256_lead             00000001801be0c0     libucrt:log_256_lead_tail_table.obj
 0002:001858d0       __log_256_tail             00000001801be8d0     libucrt:log_256_lead_tail_table.obj
 0002:001860e0       __L_2_by_pi_bits           00000001801bf0e0     libucrt:l2_by_pi_bits.obj
 0002:001861d8       ??_R4exception@std@@6B@    00000001801bf1d8     LIBCMT:throw_bad_alloc.obj
 0002:00186200       ??_R3exception@std@@8      00000001801bf200     LIBCMT:throw_bad_alloc.obj
 0002:00186218       ??_R2exception@std@@8      00000001801bf218     LIBCMT:throw_bad_alloc.obj
 0002:00186228       ??_R1A@?0A@EA@exception@std@@8 00000001801bf228     LIBCMT:throw_bad_alloc.obj
 0002:00186250       ??_R4bad_alloc@std@@6B@    00000001801bf250     LIBCMT:throw_bad_alloc.obj
 0002:00186278       ??_R3bad_alloc@std@@8      00000001801bf278     LIBCMT:throw_bad_alloc.obj
 0002:00186290       ??_R2bad_alloc@std@@8      00000001801bf290     LIBCMT:throw_bad_alloc.obj
 0002:001862a8       ??_R1A@?0A@EA@bad_alloc@std@@8 00000001801bf2a8     LIBCMT:throw_bad_alloc.obj
 0002:001862d0       ??_R4bad_array_new_length@std@@6B@ 00000001801bf2d0     LIBCMT:throw_bad_alloc.obj
 0002:001862f8       ??_R3bad_array_new_length@std@@8 00000001801bf2f8     LIBCMT:throw_bad_alloc.obj
 0002:00186310       ??_R2bad_array_new_length@std@@8 00000001801bf310     LIBCMT:throw_bad_alloc.obj
 0002:00186330       ??_R1A@?0A@EA@bad_array_new_length@std@@8 00000001801bf330     LIBCMT:throw_bad_alloc.obj
 0002:00186358       ??_R4type_info@@6B@        00000001801bf358     LIBCMT:std_type_info_static.obj
 0002:00186380       ??_R3type_info@@8          00000001801bf380     LIBCMT:std_type_info_static.obj
 0002:00186398       ??_R2type_info@@8          00000001801bf398     LIBCMT:std_type_info_static.obj
 0002:001863a8       ??_R1A@?0A@EA@type_info@@8 00000001801bf3a8     LIBCMT:std_type_info_static.obj
 0002:001863d0       ?_TraceLoggingMetadata@?1??_TlgWrite@__vcrt_trace_logging_provider@@YAJPEBU_TlgProvider_t@2@PEFBXPEBU_GUID@@2IPEAU_EVENT_DATA_DESCRIPTOR@@@Z@4U_TraceLoggingMetadata_t@2@B 00000001801bf3d0     libvcruntime:telemetry.obj
 0002:00186483       ?_TraceLoggingMetadataEnd@?1??_TlgWrite@__vcrt_trace_logging_provider@@YAJPEBU_TlgProvider_t@2@PEFBXPEBU_GUID@@2IPEAU_EVENT_DATA_DESCRIPTOR@@@Z@4EB 00000001801bf483     libvcruntime:telemetry.obj
 0002:001868f0       __rtc_iaa                  00000001801bf8f0     LIBCMT:_initsect_.obj
 0002:001868f8       __rtc_izz                  00000001801bf8f8     LIBCMT:_initsect_.obj
 0002:00186900       __rtc_taa                  00000001801bf900     LIBCMT:_initsect_.obj
 0002:00186908       __rtc_tzz                  00000001801bf908     LIBCMT:_initsect_.obj
 0002:00189218       _TI2?AVbad_alloc@std@@     00000001801c2218     LIBCMT:throw_bad_alloc.obj
 0002:00189238       _CTA2?AVbad_alloc@std@@    00000001801c2238     LIBCMT:throw_bad_alloc.obj
 0002:00189250       _CT??_R0?AVbad_alloc@std@@@8??0bad_alloc@std@@QEAA@AEBV01@@Z24 00000001801c2250     LIBCMT:throw_bad_alloc.obj
 0002:00189278       _CT??_R0?AVexception@std@@@8??0exception@std@@QEAA@AEBV01@@Z24 00000001801c2278     LIBCMT:throw_bad_alloc.obj
 0002:001892a0       _TI3?AVbad_array_new_length@std@@ 00000001801c22a0     LIBCMT:throw_bad_alloc.obj
 0002:001892c0       _CTA3?AVbad_array_new_length@std@@ 00000001801c22c0     LIBCMT:throw_bad_alloc.obj
 0002:001892e0       _CT??_R0?AVbad_array_new_length@std@@@8??0bad_array_new_length@std@@QEAA@AEBV01@@Z24 00000001801c22e0     LIBCMT:throw_bad_alloc.obj
 0002:00189304       __DELAY_IMPORT_DESCRIPTOR_node_exe 00000001801c2304     node:node.exe
 0002:00189324       __NULL_DELAY_IMPORT_DESCRIPTOR 00000001801c2324     node:node.exe
 0002:001895d8       \177node_NULL_THUNK_DATA_DLN 00000001801c25d8     node:node.exe
 0002:0018ac80       \177node_NULL_THUNK_DATA_DLB 00000001801c3c80     node:node.exe
 0002:0018f708       __IMPORT_DESCRIPTOR_KERNEL32 00000001801c8708     kernel32:KERNEL32.dll
 0002:0018f71c       __IMPORT_DESCRIPTOR_ADVAPI32 00000001801c871c     advapi32:ADVAPI32.dll
 0002:0018f730       __IMPORT_DESCRIPTOR_ogg    00000001801c8730     ogg:ogg.node
 0002:0018f744       __NULL_IMPORT_DESCRIPTOR   00000001801c8744     kernel32:KERNEL32.dll
 0003:00000000       __security_cookie          00000001801ca000     LIBCMT:gs_cookie.obj
 0003:00000008       __security_cookie_complement 00000001801ca008     LIBCMT:gs_cookie.obj
 0003:00000010       __scrt_native_dllmain_reason 00000001801ca010     LIBCMT:utility.obj
 0003:00000018       __isa_available            00000001801ca018     LIBCMT:_cpu_disp_.obj
 0003:0000001c       __isa_enabled              00000001801ca01c     LIBCMT:_cpu_disp_.obj
 0003:00000020       __memcpy_nt_iters          00000001801ca020     LIBCMT:_cpu_disp_.obj
 0003:00000084       __abort_behavior           00000001801ca084     libucrt:abort.obj
 0003:00000090       _iob                       00000001801ca090     libucrt:_file.obj
 0003:000001a0       __acrt_initial_locale_data 00000001801ca1a0     libucrt:nlsdata.obj
 0003:000002f8       __acrt_initial_locale_pointers 00000001801ca2f8     libucrt:nlsdata.obj
 0003:00000308       __acrt_wide_c_locale_string 00000001801ca308     libucrt:nlsdata.obj
 0003:00000310       _pwctype                   00000001801ca310     libucrt:ctype.obj
 0003:00000320       __acrt_initial_multibyte_data 00000001801ca320     libucrt:mbctype.obj
 0003:00000548       __acrt_current_multibyte_data 00000001801ca548     libucrt:mbctype.obj
 0003:00000650       _mbctype                   00000001801ca650     libucrt:mbctype.obj
 0003:00000760       _mbcasemap                 00000001801ca760     libucrt:mbctype.obj
 0003:00000860       __badioinfo                00000001801ca860     libucrt:ioinit.obj
 0003:000008a0       __globallocalestatus       00000001801ca8a0     libucrt:glstatus.obj
 0003:000008b0       __acrt_lconv_c             00000001801ca8b0     libucrt:localeconv.obj
 0003:00000948       __acrt_lconv_static_decimal 00000001801ca948     libucrt:localeconv.obj
 0003:0000094c       __acrt_lconv_static_W_decimal 00000001801ca94c     libucrt:localeconv.obj
 0003:00000950       __dcrt_lowio_console_output_handle 00000001801ca950     libucrt:initcon.obj
 0003:00000960       _fltused                   00000001801ca960     LIBCMT:fltused.obj
 0003:000009b0       __pfnDliNotifyHook2        00000001801ca9b0     win_delay_load_hook.obj
 0003:000009f0       ??_R0?AVbad_alloc@std@@@8  00000001801ca9f0     LIBCMT:throw_bad_alloc.obj
 0003:00000a18       ??_R0?AVexception@std@@@8  00000001801caa18     LIBCMT:throw_bad_alloc.obj
 0003:00000a40       ??_R0?AVbad_array_new_length@std@@@8 00000001801caa40     LIBCMT:throw_bad_alloc.obj
 0003:00000a70       ??_R0?AVtype_info@@@8      00000001801caa70     LIBCMT:std_type_info_static.obj
 0003:00000a90       __imp_uv_queue_work        00000001801caa90     node:node.exe
 0003:00000a98       __imp_?Global@Context@v8@@QEAA?AV?$Local@VObject@v8@@@2@XZ 00000001801caa98     node:node.exe
 0003:00000aa0       __imp_?Value@External@v8@@QEBAPEAXXZ 00000001801caaa0     node:node.exe
 0003:00000aa8       __imp_?New@External@v8@@SA?AV?$Local@VExternal@v8@@@2@PEAVIsolate@2@PEAX@Z 00000001801caaa8     node:node.exe
 0003:00000ab0       __imp_?New@Integer@v8@@SA?AV?$Local@VInteger@v8@@@2@PEAVIsolate@2@H@Z 00000001801caab0     node:node.exe
 0003:00000ab8       __imp_?CollectAllGarbage@Isolate@v8@@AEAAXPEBD@Z 00000001801caab8     node:node.exe
 0003:00000ac0       __imp_?VisitHandlesForPartialDependence@Isolate@v8@@QEAAXPEAVPersistentHandleVisitor@2@@Z 00000001801caac0     node:node.exe
 0003:00000ac8       __imp_?VisitHandlesWithClassIds@Isolate@v8@@QEAAXPEAVPersistentHandleVisitor@2@@Z 00000001801caac8     node:node.exe
 0003:00000ad0       __imp_?VisitExternalResources@Isolate@v8@@QEAAXPEAVExternalResourceVisitor@2@@Z 00000001801caad0     node:node.exe
 0003:00000ad8       __imp_?RemoveMemoryAllocationCallback@Isolate@v8@@QEAAXP6AXW4ObjectSpace@2@W4AllocationAction@2@H@Z@Z 00000001801caad8     node:node.exe
 0003:00000ae0       __imp_?AddMemoryAllocationCallback@Isolate@v8@@QEAAXP6AXW4ObjectSpace@2@W4AllocationAction@2@H@Z01@Z 00000001801caae0     node:node.exe
 0003:00000ae8       __imp_?SetCaptureStackTraceForUncaughtExceptions@Isolate@v8@@QEAAX_NHW4StackTraceOptions@StackTrace@2@@Z 00000001801caae8     node:node.exe
 0003:00000af0       __imp_?SetFailedAccessCheckCallbackFunction@Isolate@v8@@QEAAXP6AXV?$Local@VObject@v8@@@2@W4AccessType@2@V?$Local@VValue@v8@@@2@@Z@Z 00000001801caaf0     node:node.exe
 0003:00000af8       __imp_?RemoveMessageListeners@Isolate@v8@@QEAAXP6AXV?$Local@VMessage@v8@@@2@V?$Local@VValue@v8@@@2@@Z@Z 00000001801caaf8     node:node.exe
 0003:00000b00       __imp_?AddMessageListener@Isolate@v8@@QEAA_NP6AXV?$Local@VMessage@v8@@@2@V?$Local@VValue@v8@@@2@@Z1@Z 00000001801cab00     node:node.exe
 0003:00000b08       __imp_?IsDead@Isolate@v8@@QEAA_NXZ 00000001801cab08     node:node.exe
 0003:00000b10       __imp_?SetAllowCodeGenerationFromStringsCallback@Isolate@v8@@QEAAXP6A_NV?$Local@VContext@v8@@@2@@Z@Z 00000001801cab10     node:node.exe
 0003:00000b18       __imp_?SetFatalErrorHandler@Isolate@v8@@QEAAXP6AXPEBD0@Z@Z 00000001801cab18     node:node.exe
 0003:00000b20       __imp_?CancelTerminateExecution@Isolate@v8@@QEAAXXZ 00000001801cab20     node:node.exe
 0003:00000b28       __imp_?IsExecutionTerminating@Isolate@v8@@QEAA_NXZ 00000001801cab28     node:node.exe
 0003:00000b30       __imp_?TerminateExecution@Isolate@v8@@QEAAXXZ 00000001801cab30     node:node.exe
 0003:00000b38       __imp_?RemoveGCEpilogueCallback@Isolate@v8@@QEAAXP6AXPEAV12@W4GCType@2@W4GCCallbackFlags@2@@Z@Z 00000001801cab38     node:node.exe
 0003:00000b40       __imp_?RemoveGCPrologueCallback@Isolate@v8@@QEAAXP6AXPEAV12@W4GCType@2@W4GCCallbackFlags@2@@Z@Z 00000001801cab40     node:node.exe
 0003:00000b48       __imp_?GetCurrentContext@Isolate@v8@@QEAA?AV?$Local@VContext@v8@@@2@XZ 00000001801cab48     node:node.exe
 0003:00000b50       __imp_?Exit@Isolate@v8@@QEAAXXZ 00000001801cab50     node:node.exe
 0003:00000b58       __imp_?Enter@Isolate@v8@@QEAAXXZ 00000001801cab58     node:node.exe
 0003:00000b60       __imp_?GetCurrent@Isolate@v8@@SAPEAV12@XZ 00000001801cab60     node:node.exe
 0003:00000b68       __imp_?ResetToBookmark@ExternalSourceStream@ScriptCompiler@v8@@UEAAXXZ 00000001801cab68     node:node.exe
 0003:00000b70       __imp_?SetBookmark@ExternalSourceStream@ScriptCompiler@v8@@UEAA_NXZ 00000001801cab70     node:node.exe
 0003:00000b78       __imp_?CreateHandle@HandleScope@v8@@KAPEAPEAVObject@internal@2@PEAVIsolate@42@PEAV342@@Z 00000001801cab78     node:node.exe
 0003:00000b80       __imp_?CreateHandle@HandleScope@v8@@CAPEAPEAVObject@internal@2@PEAVHeapObject@42@PEAV342@@Z 00000001801cab80     node:node.exe
 0003:00000b88       __imp_??1HandleScope@v8@@QEAA@XZ 00000001801cab88     node:node.exe
 0003:00000b90       __imp_??0HandleScope@v8@@QEAA@PEAVIsolate@1@@Z 00000001801cab90     node:node.exe
 0003:00000b98       __imp_?Set@Template@v8@@QEAAXV?$Local@VName@v8@@@2@V?$Local@VData@v8@@@2@W4PropertyAttribute@2@@Z 00000001801cab98     node:node.exe
 0003:00000ba0       __imp_?Error@Exception@v8@@SA?AV?$Local@VValue@v8@@@2@V?$Local@VString@v8@@@2@@Z 00000001801caba0     node:node.exe
 0003:00000ba8       __imp_?Initialize@Locker@v8@@AEAAXPEAVIsolate@2@@Z 00000001801caba8     node:node.exe
 0003:00000bb0       __imp_?New@Array@v8@@SA?AV?$Local@VArray@v8@@@2@PEAVIsolate@2@H@Z 00000001801cabb0     node:node.exe
 0003:00000bb8       __imp_?GetId@UnboundScript@v8@@QEAAHXZ 00000001801cabb8     node:node.exe
 0003:00000bc0       __imp_?Initialize@Unlocker@v8@@AEAAXPEAVIsolate@2@@Z 00000001801cabc0     node:node.exe
 0003:00000bc8       __imp_?GetFunction@FunctionTemplate@v8@@QEAA?AV?$MaybeLocal@VFunction@v8@@@2@V?$Local@VContext@v8@@@2@@Z 00000001801cabc8     node:node.exe
 0003:00000bd0       __imp_?New@FunctionTemplate@v8@@SA?AV?$Local@VFunctionTemplate@v8@@@2@PEAVIsolate@2@P6AXAEBV?$FunctionCallbackInfo@VValue@v8@@@2@@ZV?$Local@VValue@v8@@@2@V?$Local@VSignature@v8@@@2@H@Z 00000001801cabd0     node:node.exe
 0003:00000bd8       __imp_?ToLocalEmpty@V8@v8@@CAXXZ 00000001801cabd8     node:node.exe
 0003:00000be0       __imp_?DisposeGlobal@V8@v8@@CAXPEAPEAVObject@internal@2@@Z 00000001801cabe0     node:node.exe
 0003:00000be8       __imp_?GlobalizeReference@V8@v8@@CAPEAPEAVObject@internal@2@PEAVIsolate@42@PEAPEAV342@@Z 00000001801cabe8     node:node.exe
 0003:00000bf0       __imp_?Int32Value@Value@v8@@QEBAHXZ 00000001801cabf0     node:node.exe
 0003:00000bf8       __imp_?IntegerValue@Value@v8@@QEBA_JXZ 00000001801cabf8     node:node.exe
 0003:00000c00       __imp_?NumberValue@Value@v8@@QEBANXZ 00000001801cac00     node:node.exe
 0003:00000c08       __imp_?ToInt32@Value@v8@@QEBA?AV?$MaybeLocal@VInt32@v8@@@2@V?$Local@VContext@v8@@@2@@Z 00000001801cac08     node:node.exe
 0003:00000c10       __imp_?ToUint32@Value@v8@@QEBA?AV?$MaybeLocal@VUint32@v8@@@2@V?$Local@VContext@v8@@@2@@Z 00000001801cac10     node:node.exe
 0003:00000c18       __imp_?ToInteger@Value@v8@@QEBA?AV?$MaybeLocal@VInteger@v8@@@2@V?$Local@VContext@v8@@@2@@Z 00000001801cac18     node:node.exe
 0003:00000c20       __imp_?ToObject@Value@v8@@QEBA?AV?$MaybeLocal@VObject@v8@@@2@V?$Local@VContext@v8@@@2@@Z 00000001801cac20     node:node.exe
 0003:00000c28       __imp_?ToDetailString@Value@v8@@QEBA?AV?$MaybeLocal@VString@v8@@@2@V?$Local@VContext@v8@@@2@@Z 00000001801cac28     node:node.exe
 0003:00000c30       __imp_?ToString@Value@v8@@QEBA?AV?$MaybeLocal@VString@v8@@@2@V?$Local@VContext@v8@@@2@@Z 00000001801cac30     node:node.exe
 0003:00000c38       __imp_?ToNumber@Value@v8@@QEBA?AV?$MaybeLocal@VNumber@v8@@@2@V?$Local@VContext@v8@@@2@@Z 00000001801cac38     node:node.exe
 0003:00000c40       __imp_?ToBoolean@Value@v8@@QEBA?AV?$MaybeLocal@VBoolean@v8@@@2@V?$Local@VContext@v8@@@2@@Z 00000001801cac40     node:node.exe
 0003:00000c48       __imp_?Escape@EscapableHandleScope@v8@@AEAAPEAPEAVObject@internal@2@PEAPEAV342@@Z 00000001801cac48     node:node.exe
 0003:00000c50       __imp_??0EscapableHandleScope@v8@@QEAA@PEAVIsolate@1@@Z 00000001801cac50     node:node.exe
 0003:00000c58       __imp_?GetUnboundScript@Script@v8@@QEAA?AV?$Local@VUnboundScript@v8@@@2@XZ 00000001801cac58     node:node.exe
 0003:00000c60       __imp_?NewFromUtf8@String@v8@@SA?AV?$MaybeLocal@VString@v8@@@2@PEAVIsolate@2@PEBDW4NewStringType@2@H@Z 00000001801cac60     node:node.exe
 0003:00000c68       __imp_?New@Number@v8@@SA?AV?$Local@VNumber@v8@@@2@PEAVIsolate@2@N@Z 00000001801cac68     node:node.exe
 0003:00000c70       __imp_?SlowGetAlignedPointerFromInternalField@Object@v8@@AEAAPEAXH@Z 00000001801cac70     node:node.exe
 0003:00000c78       __imp_?SlowGetInternalField@Object@v8@@AEAA?AV?$Local@VValue@v8@@@2@H@Z 00000001801cac78     node:node.exe
 0003:00000c80       __imp_?New@Object@v8@@SA?AV?$Local@VObject@v8@@@2@PEAVIsolate@2@@Z 00000001801cac80     node:node.exe
 0003:00000c88       __imp_?SetInternalField@Object@v8@@QEAAXHV?$Local@VValue@v8@@@2@@Z 00000001801cac88     node:node.exe
 0003:00000c90       __imp_?InternalFieldCount@Object@v8@@QEAAHXZ 00000001801cac90     node:node.exe
 0003:00000c98       __imp_?Get@Object@v8@@QEAA?AV?$Local@VValue@v8@@@2@I@Z 00000001801cac98     node:node.exe
 0003:00000ca0       __imp_?ForceSet@Object@v8@@QEAA?AV?$Maybe@_N@2@V?$Local@VContext@v8@@@2@V?$Local@VValue@v8@@@2@1W4PropertyAttribute@2@@Z 00000001801caca0     node:node.exe
 0003:00000ca8       __imp_?Set@Object@v8@@QEAA_NV?$Local@VValue@v8@@@2@0@Z 00000001801caca8     node:node.exe
 0003:00000cb0       __imp_?Set@Object@v8@@QEAA?AV?$Maybe@_N@2@V?$Local@VContext@v8@@@2@V?$Local@VValue@v8@@@2@1@Z 00000001801cacb0     node:node.exe
 0003:00000cb8       __imp_?Set@Object@v8@@QEAA?AV?$Maybe@_N@2@V?$Local@VContext@v8@@@2@IV?$Local@VValue@v8@@@2@@Z 00000001801cacb8     node:node.exe
 0003:00000cc0       __imp_?SetName@Function@v8@@QEAAXV?$Local@VString@v8@@@2@@Z 00000001801cacc0     node:node.exe
 0003:00000cc8       __imp_?NewInstance@Function@v8@@QEBA?AV?$MaybeLocal@VObject@v8@@@2@V?$Local@VContext@v8@@@2@HQEAV?$Local@VValue@v8@@@2@@Z 00000001801cacc8     node:node.exe
 0003:00000cd0       __imp_?SetInternalFieldCount@ObjectTemplate@v8@@QEAAXH@Z 00000001801cacd0     node:node.exe
 0003:00000cd8       __imp_?SetHandler@ObjectTemplate@v8@@QEAAXAEBUIndexedPropertyHandlerConfiguration@2@@Z 00000001801cacd8     node:node.exe
 0003:00000ce0       __imp_?NewInstance@ObjectTemplate@v8@@QEAA?AV?$MaybeLocal@VObject@v8@@@2@V?$Local@VContext@v8@@@2@@Z 00000001801cace0     node:node.exe
 0003:00000ce8       __imp_?New@ObjectTemplate@v8@@SA?AV?$Local@VObjectTemplate@v8@@@2@PEAVIsolate@2@V?$Local@VFunctionTemplate@v8@@@2@@Z 00000001801cace8     node:node.exe
 0003:00000cf0       __imp_node_module_register 00000001801cacf0     node:node.exe
 0003:00000cf8       __imp_?HasInstance@Buffer@node@@YA_NV?$Local@VValue@v8@@@v8@@@Z 00000001801cacf8     node:node.exe
 0003:00000d00       __imp_?New@Buffer@node@@YA?AV?$MaybeLocal@VObject@v8@@@v8@@PEAVIsolate@4@_K@Z 00000001801cad00     node:node.exe
 0003:00000d08       __imp_?Data@Buffer@node@@YAPEADV?$Local@VObject@v8@@@v8@@@Z 00000001801cad08     node:node.exe
 0003:00000d10       __imp_?MakeCallback@node@@YA?AV?$Local@VValue@v8@@@v8@@PEAVIsolate@3@V?$Local@VObject@v8@@@3@V?$Local@VFunction@v8@@@3@HPEAV23@@Z 00000001801cad10     node:node.exe
 0003:00000d18       __imp_uv_default_loop      00000001801cad18     node:node.exe
 0003:00000d20       \177node_NULL_THUNK_DATA_DLA 00000001801cad20     node:node.exe
 0003:00000d30       __hmod__node_exe           00000001801cad30     node:node.exe
 0003:000012b0       __scrt_current_native_startup_state 00000001801cb2b0     LIBCMT:utility.obj
 0003:000012b8       __scrt_native_startup_lock 00000001801cb2b8     LIBCMT:utility.obj
 0003:00001300       ?__type_info_root_node@@3U__type_info_node@@A 00000001801cb300     LIBCMT:tncleanup.obj
 0003:00001310       ?_OptionsStorage@?1??__local_stdio_printf_options@@9@4_KA 00000001801cb310     LIBCMT:default_local_stdio_options.obj
 0003:00001318       ?_OptionsStorage@?1??__local_stdio_scanf_options@@9@4_KA 00000001801cb318     LIBCMT:default_local_stdio_options.obj
 0003:00001320       __scrt_debugger_hook_flag  00000001801cb320     LIBCMT:utility_desktop.obj
 0003:00001324       __favor                    00000001801cb324     LIBCMT:_cpu_disp_.obj
 0003:00001328       __pPurecall                00000001801cb328     libvcruntime:purevirt_data.obj
 0003:00001448       ?pArgList@UnDecorator@@0PEAVReplicator@@EA 00000001801cb448     libvcruntime:undname.obj
 0003:00001450       ?pZNameList@UnDecorator@@0PEAVReplicator@@EA 00000001801cb450     libvcruntime:undname.obj
 0003:00001458       ?pTemplateArgList@UnDecorator@@0PEAVReplicator@@EA 00000001801cb458     libvcruntime:undname.obj
 0003:00001460       ?gName@UnDecorator@@0PEBDEB 00000001801cb460     libvcruntime:undname.obj
 0003:00001468       ?name@UnDecorator@@0PEBDEB 00000001801cb468     libvcruntime:undname.obj
 0003:00001470       ?outputString@UnDecorator@@0PEADEA 00000001801cb470     libvcruntime:undname.obj
 0003:00001478       ?maxStringLength@UnDecorator@@0HA 00000001801cb478     libvcruntime:undname.obj
 0003:0000147c       ?disableFlags@UnDecorator@@0KA 00000001801cb47c     libvcruntime:undname.obj
 0003:00001480       ?fExplicitTemplateParams@UnDecorator@@0_NA 00000001801cb480     libvcruntime:undname.obj
 0003:00001481       ?fGetTemplateArgumentList@UnDecorator@@0_NA 00000001801cb481     libvcruntime:undname.obj
 0003:00001488       ?m_pGetParameter@UnDecorator@@0P6APEADJ@ZEA 00000001801cb488     libvcruntime:undname.obj
 0003:000015e8       _environ_table             00000001801cb5e8     libucrt:environment_initialization.obj
 0003:000015f0       _wenviron_table            00000001801cb5f0     libucrt:environment_initialization.obj
 0003:000015f8       __dcrt_initial_wide_environment 00000001801cb5f8     libucrt:environment_initialization.obj
 0003:00001600       __dcrt_initial_narrow_environment 00000001801cb600     libucrt:environment_initialization.obj
 0003:00001608       __acrt_atexit_table        00000001801cb608     libucrt:onexit.obj
 0003:00001620       __acrt_at_quick_exit_table 00000001801cb620     libucrt:onexit.obj
 0003:00001648       _nstream                   00000001801cb648     libucrt:_file.obj
 0003:00001650       __piob                     00000001801cb650     libucrt:_file.obj
 0003:00001658       _cflush                    00000001801cb658     libucrt:_file.obj
 0003:00001680       __acrt_locale_changed_data 00000001801cb680     libucrt:wsetlocale.obj
 0003:00001688       __acrt_current_locale_data 00000001801cb688     libucrt:nlsdata.obj
 0003:00001a44       __mbcodepage               00000001801cba44     libucrt:mbctype.obj
 0003:00001a48       __ismbcodepage             00000001801cba48     libucrt:mbctype.obj
 0003:00001a50       __mbulinfo                 00000001801cba50     libucrt:mbctype.obj
 0003:00001a60       __mblocalename             00000001801cba60     libucrt:mbctype.obj
 0003:00001a6c       __argc                     00000001801cba6c     libucrt:argv_data.obj
 0003:00001a70       __argv                     00000001801cba70     libucrt:argv_data.obj
 0003:00001a78       __wargv                    00000001801cba78     libucrt:argv_data.obj
 0003:00001a80       _acmdln                    00000001801cba80     libucrt:argv_data.obj
 0003:00001a88       _wcmdln                    00000001801cba88     libucrt:argv_data.obj
 0003:00001a90       _pgmptr                    00000001801cba90     libucrt:argv_data.obj
 0003:00001a98       __acrt_heap                00000001801cba98     libucrt:heap_handle.obj
 0003:00001aa0       __pioinfo                  00000001801cbaa0     libucrt:ioinit.obj
 0003:00001ea0       _nhandle                   00000001801cbea0     libucrt:ioinit.obj
 0003:00001eb0       __acrt_stdout_buffer       00000001801cbeb0     libucrt:_sftbuf.obj
 0003:00001eb8       __acrt_stderr_buffer       00000001801cbeb8     libucrt:_sftbuf.obj
 0003:00001ed0       __acrt_lconv_static_null   00000001801cbed0     libucrt:localeconv.obj
 0003:00001ed4       __acrt_lconv_static_W_null 00000001801cbed4     libucrt:localeconv.obj
 0003:00001ed8       __fma3_is_available        00000001801cbed8     libucrt:fma3_available.obj
 0003:00001edc       __use_fma3_lib             00000001801cbedc     libucrt:fma3_available.obj
 0003:00001ee0       ?DloadKernel32@@3PEAUHINSTANCE__@@EA 00000001801cbee0     DelayImp:delayhlp.obj
 0003:00001ee8       ?DloadAcquireSRWLockExclusive@@3P6AXPEA_K@ZEA 00000001801cbee8     DelayImp:delayhlp.obj
 0003:00001ef0       ?DloadReleaseSRWLockExclusive@@3P6AXPEA_K@ZEA 00000001801cbef0     DelayImp:delayhlp.obj
 0003:00001ef8       ?DloadSrwLock@@3_KA        00000001801cbef8     DelayImp:delayhlp.obj
 0003:00001f00       ?DloadSectionLockCount@@3KA 00000001801cbf00     DelayImp:delayhlp.obj
 0003:00001f04       ?DloadSectionOldProtection@@3KA 00000001801cbf04     DelayImp:delayhlp.obj
 0003:00001f08       ?DloadSectionCommitPermanent@@3KA 00000001801cbf08     DelayImp:delayhlp.obj
 0003:00001f10       __pfnDliFailureHook2       00000001801cbf10     DelayImp:delayhk1.obj
 0003:00001f18       __scrt_ucrt_dll_is_in_use  00000001801cbf18     <common>
 0003:00001f20       __dyn_tls_init_callback    00000001801cbf20     <common>
 0003:00001f28       _pDestructExceptionObject  00000001801cbf28     <common>

 entry point at        0001:00020c58

 Static symbols

 0000:ffe29000       .debug$S                   0000000180000000     kernel32:KERNEL32.dll
 0000:ffe29000       .debug$S                   0000000180000000     ogg:ogg.node
 0000:ffe29000       .debug$S                   0000000180000000     ogg:ogg.node
 0000:ffe29000       .debug$S                   0000000180000000     ogg:ogg.node
 0000:ffe29000       .debug$S                   0000000180000000     ogg:ogg.node
 0000:ffe29000       .debug$S                   0000000180000000     ogg:ogg.node
 0000:ffe29000       .debug$S                   0000000180000000     ogg:ogg.node
 0000:ffe29000       .debug$S                   0000000180000000     ogg:ogg.node
 0000:ffe29000       .debug$S                   0000000180000000     ogg:ogg.node
 0000:ffe29000       .debug$S                   0000000180000000     ogg:ogg.node
 0000:ffe29000       .debug$S                   0000000180000000     ogg:ogg.node
 0000:ffe29000       .debug$S                   0000000180000000     ogg:ogg.node
 0000:ffe29000       .debug$S                   0000000180000000     node:node.exe
 0000:ffe29000       .debug$S                   0000000180000000     node:node.exe
 0000:ffe29000       .debug$S                   0000000180000000     node:node.exe
 0000:ffe29000       .debug$S                   0000000180000000     node:node.exe
 0000:ffe29000       .debug$S                   0000000180000000     node:node.exe
 0000:ffe29000       .debug$S                   0000000180000000     node:node.exe
 0000:ffe29000       .debug$S                   0000000180000000     node:node.exe
 0000:ffe29000       .debug$S                   0000000180000000     node:node.exe
 0000:ffe29000       .debug$S                   0000000180000000     node:node.exe
 0000:ffe29000       .debug$S                   0000000180000000     node:node.exe
 0000:ffe29000       .debug$S                   0000000180000000     node:node.exe
 0000:ffe29000       .debug$S                   0000000180000000     node:node.exe
 0000:ffe29000       .debug$S                   0000000180000000     node:node.exe
 0000:ffe29000       .debug$S                   0000000180000000     node:node.exe
 0000:ffe29000       .debug$S                   0000000180000000     node:node.exe
 0000:ffe29000       .debug$S                   0000000180000000     node:node.exe
 0000:ffe29000       .debug$S                   0000000180000000     node:node.exe
 0000:ffe29000       .debug$S                   0000000180000000     node:node.exe
 0000:ffe29000       .debug$S                   0000000180000000     node:node.exe
 0000:ffe29000       .debug$S                   0000000180000000     node:node.exe
 0000:ffe29000       .debug$S                   0000000180000000     node:node.exe
 0000:ffe29000       .debug$S                   0000000180000000     node:node.exe
 0000:ffe29000       .debug$S                   0000000180000000     node:node.exe
 0000:ffe29000       .debug$S                   0000000180000000     node:node.exe
 0000:ffe29000       .debug$S                   0000000180000000     node:node.exe
 0000:ffe29000       .debug$S                   0000000180000000     node:node.exe
 0000:ffe29000       .debug$S                   0000000180000000     node:node.exe
 0000:ffe29000       .debug$S                   0000000180000000     node:node.exe
 0000:ffe29000       .debug$S                   0000000180000000     node:node.exe
 0000:ffe29000       .debug$S                   0000000180000000     node:node.exe
 0000:ffe29000       .debug$S                   0000000180000000     node:node.exe
 0000:ffe29000       .debug$S                   0000000180000000     node:node.exe
 0000:ffe29000       .debug$S                   0000000180000000     node:node.exe
 0000:ffe29000       .debug$S                   0000000180000000     node:node.exe
 0000:ffe29000       .debug$S                   0000000180000000     node:node.exe
 0000:ffe29000       .debug$S                   0000000180000000     node:node.exe
 0000:ffe29000       .debug$S                   0000000180000000     node:node.exe
 0000:ffe29000       .debug$S                   0000000180000000     node:node.exe
 0000:ffe29000       .debug$S                   0000000180000000     node:node.exe
 0000:ffe29000       .debug$S                   0000000180000000     node:node.exe
 0000:ffe29000       .debug$S                   0000000180000000     node:node.exe
 0000:ffe29000       .debug$S                   0000000180000000     node:node.exe
 0000:ffe29000       .debug$S                   0000000180000000     node:node.exe
 0000:ffe29000       .debug$S                   0000000180000000     node:node.exe
 0000:ffe29000       .debug$S                   0000000180000000     node:node.exe
 0000:ffe29000       .debug$S                   0000000180000000     node:node.exe
 0000:ffe29000       .debug$S                   0000000180000000     node:node.exe
 0000:ffe29000       .debug$S                   0000000180000000     node:node.exe
 0000:ffe29000       .debug$S                   0000000180000000     node:node.exe
 0000:ffe29000       .debug$S                   0000000180000000     node:node.exe
 0000:ffe29000       .debug$S                   0000000180000000     node:node.exe
 0000:ffe29000       .debug$S                   0000000180000000     node:node.exe
 0000:ffe29000       .debug$S                   0000000180000000     node:node.exe
 0000:ffe29000       .debug$S                   0000000180000000     node:node.exe
 0000:ffe29000       .debug$S                   0000000180000000     node:node.exe
 0000:ffe29000       .debug$S                   0000000180000000     node:node.exe
 0000:ffe29000       .debug$S                   0000000180000000     node:node.exe
 0000:ffe29000       .debug$S                   0000000180000000     node:node.exe
 0000:ffe29000       .debug$S                   0000000180000000     node:node.exe
 0000:ffe29000       .debug$S                   0000000180000000     node:node.exe
 0000:ffe29000       .debug$S                   0000000180000000     node:node.exe
 0000:ffe29000       .debug$S                   0000000180000000     node:node.exe
 0000:ffe29000       .debug$S                   0000000180000000     node:node.exe
 0000:ffe29000       .debug$S                   0000000180000000     node:node.exe
 0000:ffe29000       .debug$S                   0000000180000000     node:node.exe
 0000:ffe29000       .debug$S                   0000000180000000     node:node.exe
 0000:ffe29000       .debug$S                   0000000180000000     node:node.exe
 0000:ffe29000       .debug$S                   0000000180000000     node:node.exe
 0000:ffe29000       .debug$S                   0000000180000000     node:node.exe
 0000:ffe29000       .debug$S                   0000000180000000     node:node.exe
 0000:ffe29000       .debug$S                   0000000180000000     node:node.exe
 0000:ffe29000       .debug$S                   0000000180000000     node:node.exe
 0000:ffe29000       .debug$S                   0000000180000000     node:node.exe
 0000:ffe29000       .debug$S                   0000000180000000     node:node.exe
 0000:ffe29000       .debug$S                   0000000180000000     node:node.exe
 0000:ffe29000       .debug$S                   0000000180000000     node:node.exe
 0000:ffe29000       .debug$S                   0000000180000000     node:node.exe
 0000:ffe29000       .debug$S                   0000000180000000     node:node.exe
 0000:ffe29000       .debug$S                   0000000180000000     node:node.exe
 0000:ffe29000       .debug$S                   0000000180000000     node:node.exe
 0000:ffe29000       .debug$S                   0000000180000000     node:node.exe
 0000:ffe29000       .debug$S                   0000000180000000     node:node.exe
 0000:ffe29000       .debug$S                   0000000180000000     advapi32:ADVAPI32.dll
 0000:ffe29000       .debug$S                   0000000180000000     kernel32:KERNEL32.dll
 0000:ffe29000       .debug$S                   0000000180000000     kernel32:KERNEL32.dll
 0000:ffe29000       .debug$S                   0000000180000000     kernel32:KERNEL32.dll
 0000:ffe29000       .debug$S                   0000000180000000     kernel32:KERNEL32.dll
 0000:ffe29000       .debug$S                   0000000180000000     kernel32:KERNEL32.dll
 0000:ffe29000       .debug$S                   0000000180000000     kernel32:KERNEL32.dll
 0000:ffe29000       .debug$S                   0000000180000000     kernel32:KERNEL32.dll
 0000:ffe29000       .debug$S                   0000000180000000     kernel32:KERNEL32.dll
 0000:ffe29000       .debug$S                   0000000180000000     kernel32:KERNEL32.dll
 0000:ffe29000       .debug$S                   0000000180000000     kernel32:KERNEL32.dll
 0000:ffe29000       .debug$S                   0000000180000000     kernel32:KERNEL32.dll
 0000:ffe29000       .debug$S                   0000000180000000     kernel32:KERNEL32.dll
 0000:ffe29000       .debug$S                   0000000180000000     kernel32:KERNEL32.dll
 0000:ffe29000       .debug$S                   0000000180000000     kernel32:KERNEL32.dll
 0000:ffe29000       .debug$S                   0000000180000000     kernel32:KERNEL32.dll
 0000:ffe29000       .debug$S                   0000000180000000     kernel32:KERNEL32.dll
 0000:ffe29000       .debug$S                   0000000180000000     kernel32:KERNEL32.dll
 0000:ffe29000       .debug$S                   0000000180000000     kernel32:KERNEL32.dll
 0000:ffe29000       .debug$S                   0000000180000000     kernel32:KERNEL32.dll
 0000:ffe29000       .debug$S                   0000000180000000     kernel32:KERNEL32.dll
 0000:ffe29000       .debug$S                   0000000180000000     kernel32:KERNEL32.dll
 0000:ffe29000       .debug$S                   0000000180000000     kernel32:KERNEL32.dll
 0000:ffe29000       .debug$S                   0000000180000000     kernel32:KERNEL32.dll
 0000:ffe29000       .debug$S                   0000000180000000     kernel32:KERNEL32.dll
 0000:ffe29000       .debug$S                   0000000180000000     kernel32:KERNEL32.dll
 0000:ffe29000       .debug$S                   0000000180000000     kernel32:KERNEL32.dll
 0000:ffe29000       .debug$S                   0000000180000000     kernel32:KERNEL32.dll
 0000:ffe29000       .debug$S                   0000000180000000     kernel32:KERNEL32.dll
 0000:ffe29000       .debug$S                   0000000180000000     kernel32:KERNEL32.dll
 0000:ffe29000       .debug$S                   0000000180000000     kernel32:KERNEL32.dll
 0000:ffe29000       .debug$S                   0000000180000000     kernel32:KERNEL32.dll
 0000:ffe29000       .debug$S                   0000000180000000     kernel32:KERNEL32.dll
 0000:ffe29000       .debug$S                   0000000180000000     kernel32:KERNEL32.dll
 0000:ffe29000       .debug$S                   0000000180000000     kernel32:KERNEL32.dll
 0000:ffe29000       .debug$S                   0000000180000000     kernel32:KERNEL32.dll
 0000:ffe29000       .debug$S                   0000000180000000     kernel32:KERNEL32.dll
 0000:ffe29000       .debug$S                   0000000180000000     kernel32:KERNEL32.dll
 0000:ffe29000       .debug$S                   0000000180000000     kernel32:KERNEL32.dll
 0000:ffe29000       .debug$S                   0000000180000000     kernel32:KERNEL32.dll
 0000:ffe29000       .debug$S                   0000000180000000     kernel32:KERNEL32.dll
 0000:ffe29000       .debug$S                   0000000180000000     kernel32:KERNEL32.dll
 0000:ffe29000       .debug$S                   0000000180000000     kernel32:KERNEL32.dll
 0000:ffe29000       .debug$S                   0000000180000000     kernel32:KERNEL32.dll
 0000:ffe29000       .debug$S                   0000000180000000     kernel32:KERNEL32.dll
 0000:ffe29000       .debug$S                   0000000180000000     kernel32:KERNEL32.dll
 0000:ffe29000       .debug$S                   0000000180000000     kernel32:KERNEL32.dll
 0000:ffe29000       .debug$S                   0000000180000000     kernel32:KERNEL32.dll
 0000:ffe29000       .debug$S                   0000000180000000     kernel32:KERNEL32.dll
 0000:ffe29000       .debug$S                   0000000180000000     kernel32:KERNEL32.dll
 0000:ffe29000       .debug$S                   0000000180000000     kernel32:KERNEL32.dll
 0000:ffe29000       .debug$S                   0000000180000000     kernel32:KERNEL32.dll
 0000:ffe29000       .debug$S                   0000000180000000     kernel32:KERNEL32.dll
 0000:ffe29000       .debug$S                   0000000180000000     kernel32:KERNEL32.dll
 0000:ffe29000       .debug$S                   0000000180000000     kernel32:KERNEL32.dll
 0000:ffe29000       .debug$S                   0000000180000000     kernel32:KERNEL32.dll
 0000:ffe29000       .debug$S                   0000000180000000     kernel32:KERNEL32.dll
 0000:ffe29000       .debug$S                   0000000180000000     kernel32:KERNEL32.dll
 0000:ffe29000       .debug$S                   0000000180000000     kernel32:KERNEL32.dll
 0000:ffe29000       .debug$S                   0000000180000000     kernel32:KERNEL32.dll
 0000:ffe29000       .debug$S                   0000000180000000     kernel32:KERNEL32.dll
 0000:ffe29000       .debug$S                   0000000180000000     kernel32:KERNEL32.dll
 0000:ffe29000       .debug$S                   0000000180000000     kernel32:KERNEL32.dll
 0000:ffe29000       .debug$S                   0000000180000000     kernel32:KERNEL32.dll
 0000:ffe29000       .debug$S                   0000000180000000     kernel32:KERNEL32.dll
 0000:ffe29000       .debug$S                   0000000180000000     kernel32:KERNEL32.dll
 0000:ffe29000       .debug$S                   0000000180000000     kernel32:KERNEL32.dll
 0000:ffe29000       .debug$S                   0000000180000000     kernel32:KERNEL32.dll
 0000:ffe29000       .debug$S                   0000000180000000     kernel32:KERNEL32.dll
 0000:ffe29000       .debug$S                   0000000180000000     kernel32:KERNEL32.dll
 0000:ffe29000       .debug$S                   0000000180000000     kernel32:KERNEL32.dll
 0000:ffe29000       .debug$S                   0000000180000000     kernel32:KERNEL32.dll
 0000:ffe29000       .debug$S                   0000000180000000     kernel32:KERNEL32.dll
 0000:ffe29000       .debug$S                   0000000180000000     kernel32:KERNEL32.dll
 0000:ffe29000       .debug$S                   0000000180000000     kernel32:KERNEL32.dll
 0000:ffe29000       .debug$S                   0000000180000000     kernel32:KERNEL32.dll
 0000:ffe29000       .debug$S                   0000000180000000     kernel32:KERNEL32.dll
 0000:ffe29000       .debug$S                   0000000180000000     kernel32:KERNEL32.dll
 0000:ffe29000       .debug$S                   0000000180000000     kernel32:KERNEL32.dll
 0000:ffe29000       .debug$S                   0000000180000000     kernel32:KERNEL32.dll
 0000:ffe29000       .debug$S                   0000000180000000     kernel32:KERNEL32.dll
 0000:ffe29000       .debug$S                   0000000180000000     kernel32:KERNEL32.dll
 0000:ffe29000       .debug$S                   0000000180000000     vorbis.exp
 0000:ffe29000       .debug$S                   0000000180000000     kernel32:KERNEL32.dll
 0000:ffe29000       .debug$S                   0000000180000000     kernel32:KERNEL32.dll
 0000:ffe29000       .debug$S                   0000000180000000     kernel32:KERNEL32.dll
 0000:ffe29000       .debug$S                   0000000180000000     kernel32:KERNEL32.dll
 0000:ffe29000       .debug$S                   0000000180000000     kernel32:KERNEL32.dll
 0000:ffe29000       .debug$S                   0000000180000000     kernel32:KERNEL32.dll
 0000:ffe29000       .debug$S                   0000000180000000     kernel32:KERNEL32.dll
 0000:ffe29000       .debug$S                   0000000180000000     kernel32:KERNEL32.dll
 0000:ffe29000       .debug$S                   0000000180000000     kernel32:KERNEL32.dll
 0001:00001410       ?FunctionCallbackWrapper@imp@Nan@@YAXAEBV?$FunctionCallbackInfo@VValue@v8@@@v8@@@Z 0000000180002410 f   binding.obj
 0001:00006230       _register_vorbis           0000000180007230 f   binding.obj
 0001:00006240       load_exe_hook              0000000180007240 f   win_delay_load_hook.obj
 0001:00006450       _vds_shared_init           0000000180007450 f   libvorbis:block.obj
 0001:00006e90       _preextrapolate_helper     0000000180007e90 f   libvorbis:block.obj
 0001:00008000       _v_readstring              0000000180009000 f   libvorbis:info.obj
 0001:00008390       _vorbis_unpack_info        0000000180009390 f   libvorbis:info.obj
 0001:000084c0       _vorbis_unpack_comment     00000001800094c0 f   libvorbis:info.obj
 0001:00008660       _vorbis_unpack_books       0000000180009660 f   libvorbis:info.obj
 0001:00008bc0       _vorbis_pack_info          0000000180009bc0 f   libvorbis:info.obj
 0001:00008d00       _vorbis_pack_comment       0000000180009d00 f   libvorbis:info.obj
 0001:00008e70       _vorbis_pack_books         0000000180009e70 f   libvorbis:info.obj
 0001:0000ac20       sort32a                    000000018000bc20 f   libvorbis:sharedbook.obj
 0001:0000b750       _ve_amp                    000000018000c750 f   libvorbis:envelope.obj
 0001:0000c260       setup_tone_curves          000000018000d260 f   libvorbis:psy.obj
 0001:0000db60       seed_loop                  000000018000eb60 f   libvorbis:psy.obj
 0001:0000de60       seed_chase                 000000018000ee60 f   libvorbis:psy.obj
 0001:0000e070       max_seeds                  000000018000f070 f   libvorbis:psy.obj
 0001:0000e1c0       bark_noise_hybridmp        000000018000f1c0 f   libvorbis:psy.obj
 0001:0000f820       apsort                     0000000180010820 f   libvorbis:psy.obj
 0001:0000f850       noise_normalize            0000000180010850 f   libvorbis:psy.obj
 0001:00010e50       mdct_butterfly_8           0000000180011e50 f   libvorbis:mdct.obj
 0001:00010f30       mdct_butterfly_16          0000000180011f30 f   libvorbis:mdct.obj
 0001:00011080       mdct_butterfly_32          0000000180012080 f   libvorbis:mdct.obj
 0001:00011370       mdct_butterfly_first       0000000180012370 f   libvorbis:mdct.obj
 0001:00011560       mdct_butterfly_generic     0000000180012560 f   libvorbis:mdct.obj
 0001:00011750       mdct_butterflies           0000000180012750 f   libvorbis:mdct.obj
 0001:00011840       mdct_bitreverse            0000000180012840 f   libvorbis:mdct.obj
 0001:00012200       drfti1                     0000000180013200 f   libvorbis:smallft.obj
 0001:000124a0       dradf2                     00000001800134a0 f   libvorbis:smallft.obj
 0001:00012850       dradf4                     0000000180013850 f   libvorbis:smallft.obj
 0001:000132a0       dradfg                     00000001800142a0 f   libvorbis:smallft.obj
 0001:00014c40       drftf1                     0000000180015c40 f   libvorbis:smallft.obj
 0001:00015890       decode_packed_entry_number 0000000180016890 f   libvorbis:codebook.obj
 0001:00015e18       $LN40                      0000000180016e18     libvorbis:codebook.obj
 0001:00016340       floor0_free_info           0000000180017340 f   libvorbis:floor0.obj
 0001:00016370       floor0_free_look           0000000180017370 f   libvorbis:floor0.obj
 0001:000163e0       floor0_unpack              00000001800173e0 f   libvorbis:floor0.obj
 0001:00016520       floor0_map_lazy_init       0000000180017520 f   libvorbis:floor0.obj
 0001:000167a0       floor0_look                00000001800177a0 f   libvorbis:floor0.obj
 0001:000167f0       floor0_inverse1            00000001800177f0 f   libvorbis:floor0.obj
 0001:00016960       floor0_inverse2            0000000180017960 f   libvorbis:floor0.obj
 0001:00016a20       mapping0_free_info         0000000180017a20 f   libvorbis:mapping0.obj
 0001:00016a50       mapping0_pack              0000000180017a50 f   libvorbis:mapping0.obj
 0001:00016c10       mapping0_unpack            0000000180017c10 f   libvorbis:mapping0.obj
 0001:00016e60       mapping0_forward           0000000180017e60 f   libvorbis:mapping0.obj
 0001:000180a0       mapping0_inverse           00000001800190a0 f   libvorbis:mapping0.obj
 0001:00018d60       local_book_besterror       0000000180019d60 f   libvorbis:res0.obj
 0001:00019200       _encodepart                000000018001a200 f   libvorbis:res0.obj
 0001:000192c0       _01forward                 000000018001a2c0 f   libvorbis:res0.obj
 0001:00019660       _01inverse                 000000018001a660 f   libvorbis:res0.obj
 0001:0001a5a0       floor1_free_info           000000018001b5a0 f   libvorbis:floor1.obj
 0001:0001a5d0       floor1_free_look           000000018001b5d0 f   libvorbis:floor1.obj
 0001:0001a600       floor1_pack                000000018001b600 f   libvorbis:floor1.obj
 0001:0001a800       icomp                      000000018001b800 f   libvorbis:floor1.obj
 0001:0001a810       floor1_unpack              000000018001b810 f   libvorbis:floor1.obj
 0001:0001ac40       floor1_look                000000018001bc40 f   libvorbis:floor1.obj
 0001:0001afc0       render_line                000000018001bfc0 f   libvorbis:floor1.obj
 0001:0001b1d0       accumulate_fit             000000018001c1d0 f   libvorbis:floor1.obj
 0001:0001b6c0       fit_line                   000000018001c6c0 f   libvorbis:floor1.obj
 0001:0001bd60       inspect_error              000000018001cd60 f   libvorbis:floor1.obj
 0001:0001cf80       floor1_inverse1            000000018001df80 f   libvorbis:floor1.obj
 0001:0001d300       floor1_inverse2            000000018001e300 f   libvorbis:floor1.obj
 0001:0001d840       vorbis_encode_floor_setup  000000018001e840 f   libvorbisenc:vorbisenc.obj
 0001:0001da40       vorbis_encode_global_psych_setup 000000018001ea40 f   libvorbisenc:vorbisenc.obj
 0001:0001dd00       vorbis_encode_global_stereo 000000018001ed00 f   libvorbisenc:vorbisenc.obj
 0001:0001e740       vorbis_encode_psyset_setup 000000018001f740 f   libvorbisenc:vorbisenc.obj
 0001:0001e860       vorbis_encode_tonemask_setup 000000018001f860 f   libvorbisenc:vorbisenc.obj
 0001:0001eb60       vorbis_encode_compand_setup 000000018001fb60 f   libvorbisenc:vorbisenc.obj
 0001:0001ede0       vorbis_encode_noisebias_setup 000000018001fde0 f   libvorbisenc:vorbisenc.obj
 0001:0001f0c0       vorbis_encode_residue_setup 00000001800200c0 f   libvorbisenc:vorbisenc.obj
 0001:0001f5f0       vorbis_encode_map_n_res_setup 00000001800205f0 f   libvorbisenc:vorbisenc.obj
 0001:0001f7f0       get_setup_template         00000001800207f0 f   libvorbisenc:vorbisenc.obj
 0001:00020190       vorbis_encode_setup_setting 0000000180021190 f   libvorbisenc:vorbisenc.obj
 0001:00020860       $$000000                   0000000180021860     LIBCMT:_amdsecgs_.obj
 0001:000208e8       ?dllmain_crt_dispatch@@YAHQEAUHINSTANCE__@@KQEAX@Z 00000001800218e8 f   LIBCMT:dll_dllmain.obj
 0001:00020938       ?dllmain_crt_process_attach@@YAHQEAUHINSTANCE__@@QEAX@Z 0000000180021938 f   LIBCMT:dll_dllmain.obj
 0001:00020a64       ?dllmain_crt_process_detach@@YAH_N@Z 0000000180021a64 f   LIBCMT:dll_dllmain.obj
 0001:00020ae8       ?dllmain_dispatch@@YAHQEAUHINSTANCE__@@KQEAX@Z 0000000180021ae8 f   LIBCMT:dll_dllmain.obj
 0001:00020c04       ?dllmain_raw@@YAHQEAUHINSTANCE__@@KQEAX@Z 0000000180021c04 f   LIBCMT:dll_dllmain.obj
 0001:00020e50       capture_current_context    0000000180021e50 f   LIBCMT:gs_report.obj
 0001:00020ec0       capture_previous_context   0000000180021ec0 f   LIBCMT:gs_report.obj
 0001:000219f0       $$000000                   00000001800229f0     libvcruntime:memcpy.obj
 0001:00021a97       MoveSmall                  0000000180022a97     libvcruntime:memcpy.obj
 0001:00021e38       _TlgDefineProvider_annotation__Tlg_Microsoft_CRTProviderProv 0000000180022e38 f   libvcruntime:telemetry.obj
 0001:00022500       $$000000                   0000000180023500     libvcruntime:memset.obj
 0001:000225ec       MsetTab                    00000001800235ec     libvcruntime:memset.obj
 0001:000226d4       ?try_get_function@@YAPEAXW4function_id@?A0x49c8dc86@@QEBDQEBW4module_id@2@2@Z 00000001800236d4 f   libvcruntime:winapi_downlevel.obj
 0001:00022cf0       $$000000                   0000000180023cf0     libvcruntime:_jmpuwind_.obj
 0001:00022f70       ??$common_assert_to_message_box@_W@@YAXQEB_W0IQEAX@Z 0000000180023f70 f   libucrt:assert.obj
 0001:00023034       ??$common_assert_to_message_box_build_string@_W@@YAXQEA_W_KQEB_W2IQEAX@Z 0000000180024034 f   libucrt:assert.obj
 0001:00023808       ??$common_assert_to_stderr@_W@@YAXQEB_W0I@Z 0000000180024808 f   libucrt:assert.obj
 0001:00023978       ?get_assert_format@@YAPEB_W_W@Z 0000000180024978 f   libucrt:assert.obj
 0001:00023c84       ?internal_isupper_l@@YA_NHQEAU__crt_locale_pointers@@@Z 0000000180024c84 f   libucrt:tolower_toupper.obj
 0001:00023e40       ?shortsort@@YAXPEAD0_KP6AHPEBX2@Z@Z 0000000180024e40 f   libucrt:qsort.obj
 0001:000243b8       ?atexit_exception_filter@@YAHK@Z 00000001800253b8 f   libucrt:exit.obj
 0001:000243c4       ?common_exit@@YAXHW4_crt_exit_cleanup_mode@@W4_crt_exit_return_mode@@@Z 00000001800253c4 f   libucrt:exit.obj
 0001:00024530       ?exit_or_terminate_process@@YAXI@Z 0000000180025530 f   libucrt:exit.obj
 0001:0002457c       ?try_cor_exit_process@@YAXI@Z 000000018002557c f   libucrt:exit.obj
 0001:00024904       ??$parse_command_line@D@@YAXPEADPEAPEAD0PEA_K2@Z 0000000180025904 f   libucrt:argv_parsing.obj
 0001:00024c9c       ??$common_initialize_environment_nolock@D@@YAHXZ 0000000180025c9c f   libucrt:environment_initialization.obj
 0001:00024d08       ??$create_environment@D@@YAQEAPEADQEAD@Z 0000000180025d08 f   libucrt:environment_initialization.obj
 0001:00024e04       ??$free_environment@D@@YAXQEAPEAD@Z 0000000180025e04 f   libucrt:environment_initialization.obj
 0001:00024e04       ??$free_environment@_W@@YAXQEAPEA_W@Z 0000000180025e04 f   libucrt:environment_initialization.obj
 0001:00024e48       ??$uninitialize_environment_internal@D@@YAXAEAPEAPEAD@Z 0000000180025e48 f   libucrt:environment_initialization.obj
 0001:00024e64       ??$uninitialize_environment_internal@_W@@YAXAEAPEAPEA_W@Z 0000000180025e64 f   libucrt:environment_initialization.obj
 0001:0002509c       ??R<lambda_4e60a939b0d047cfe11ddc22648dfba9>@@QEBAHXZ 000000018002609c f   libucrt:onexit.obj
 0001:0002534c       initialize_global_variables 000000018002634c f   libucrt:initialization.obj
 0001:00025360       initialize_c               0000000180026360 f   libucrt:initialization.obj
 0001:00025384       initialize_global_state_isolation 0000000180026384 f   libucrt:initialization.obj
 0001:00025384       initialize_environment     0000000180026384 f   libucrt:initialization.obj
 0001:00025384       uninitialize_c             0000000180026384 f   libucrt:initialization.obj
 0001:00025384       uninitialize_global_state_isolation 0000000180026384 f   libucrt:initialization.obj
 0001:00025384       report_memory_leaks        0000000180026384 f   libucrt:initialization.obj
 0001:00025388       uninitialize_environment   0000000180026388 f   libucrt:initialization.obj
 0001:00025398       initialize_pointers        0000000180026398 f   libucrt:initialization.obj
 0001:000253ec       uninitialize_vcruntime     00000001800263ec f   libucrt:initialization.obj
 0001:000253f4       uninitialize_allocated_memory 00000001800263f4 f   libucrt:initialization.obj
 0001:00025ac0       ??R<lambda_dd75445284c072d0bd3768540cc698fa>@@QEBAHXZ 0000000180026ac0 f   libucrt:output.obj
 0001:000281e4       ??$common_xtox@K_W@@YAHKQEA_W_KI_N@Z 00000001800291e4 f   libucrt:xtoa.obj
 0001:00028290       ??$common_xtox_s@K_W@@YAHKQEA_W_KI_N@Z 0000000180029290 f   libucrt:xtoa.obj
 0001:00028554       ??$message_box_wait_thread@_W@@YAKQEAX@Z 0000000180029554 f   libucrt:crtmbox.obj
 0001:00028910       common_flush_all           0000000180029910 f   libucrt:fflush.obj
 0001:00028a78       ??R<lambda_b721fa326cdb32351d23dfa67958c160>@@QEBAHXZ 0000000180029a78 f   libucrt:setvbuf.obj
 0001:00029064       ?construct_ptd_array@@YAXQEAU__acrt_ptd@@@Z 000000018002a064 f   libucrt:per_thread_data.obj
 0001:00029134       ?destroy_fls@@YAXPEAX@Z    000000018002a134 f   libucrt:per_thread_data.obj
 0001:00029154       ?destroy_ptd_array@@YAXQEAU__acrt_ptd@@@Z 000000018002a154 f   libucrt:per_thread_data.obj
 0001:0002924c       ?replace_current_thread_locale_nolock@@YAXQEAU__acrt_ptd@@QEAU__crt_locale_data@@@Z 000000018002a24c f   libucrt:per_thread_data.obj
 0001:0002974c       ?__acrt_LCMapStringA_stat@@YAHPEAU__crt_locale_pointers@@PEB_WKPEBDHPEADHHH@Z 000000018002a74c f   libucrt:lcmapstringa.obj
 0001:0002a6d0       ?try_get_function@@YAPEAXW4function_id@?A0x63058377@@QEBDQEBW4module_id@2@2@Z 000000018002b6d0 f   libucrt:winapi_thunks.obj
 0001:0002aefc       ?<helper_func_cdecl>@<lambda_2feae5270eb4d0d5532525f423405775>@@CAHPEBX0@Z 000000018002befc f   libucrt:argv_wildcards.obj
 0001:0002af10       ??$common_expand_argv_wildcards@D@@YAHQEAPEADQEAPEAPEAD@Z 000000018002bf10 f   libucrt:argv_wildcards.obj
 0001:0002b11c       ??$copy_and_add_argument_to_buffer@D@@YAHQEBD0_KAEAV?$argument_list@D@?A0xca0879c4@@@Z 000000018002c11c f   libucrt:argv_wildcards.obj
 0001:0002b22c       ??$expand_argument_wildcards@D@@YAHQEAD0AEAV?$argument_list@D@?A0xca0879c4@@@Z 000000018002c22c f   libucrt:argv_wildcards.obj
 0001:0002b4e0       ??R<lambda_ad1ced32f4ac17aa236e5ef05d6b3b7c>@@QEBAXXZ 000000018002c4e0 f   libucrt:mbctype.obj
 0001:0002b6f8       ?getSystemCP@@YAHH@Z       000000018002c6f8 f   libucrt:mbctype.obj
 0001:0002b778       ?setSBCS@@YAXPEAU__crt_multibyte_data@@@Z 000000018002c778 f   libucrt:mbctype.obj
 0001:0002b808       ?setSBUpLow@@YAXPEAU__crt_multibyte_data@@@Z 000000018002c808 f   libucrt:mbctype.obj
 0001:0002b9ec       ?setmbcp_internal@@YAHH_N@Z 000000018002c9ec f   libucrt:mbctype.obj
 0001:0002bf34       ?x_ismbbtype_l@@YAHPEAU__crt_locale_pointers@@IHH@Z 000000018002cf34 f   libucrt:ismbbyte.obj
 0001:0002c1b4       ?initialize_inherited_file_handles_nolock@@YAXXZ 000000018002d1b4 f   libucrt:ioinit.obj
 0001:0002c2a0       ?initialize_stdio_handles_nolock@@YAXXZ 000000018002d2a0 f   libucrt:ioinit.obj
 0001:0002cc78       ?fp_format_a@@YAHQEBNPEAD_KQEAD2H_NIQEAU__crt_locale_pointers@@@Z 000000018002dc78 f   libucrt:cvt.obj
 0001:0002cfd8       ?fp_format_e@@YAHQEBNQEAD_K12H_NIQEAU__crt_locale_pointers@@@Z 000000018002dfd8 f   libucrt:cvt.obj
 0001:0002d0a8       ?fp_format_e_internal@@YAHQEAD_KH_NIQEAU_strflt@@2QEAU__crt_locale_pointers@@@Z 000000018002e0a8 f   libucrt:cvt.obj
 0001:0002d284       ?fp_format_f_internal@@YAHQEAD_KHQEAU_strflt@@_NQEAU__crt_locale_pointers@@@Z 000000018002e284 f   libucrt:cvt.obj
 0001:0002d3cc       ?fp_format_g@@YAHQEBNQEAD_K12H_NIQEAU__crt_locale_pointers@@@Z 000000018002e3cc f   libucrt:cvt.obj
 0001:0002d504       ?fp_format_nan_or_infinity@@YAHW4__acrt_fp_class@@_NPEAD_K1@Z 000000018002e504 f   libucrt:cvt.obj
 0001:0002dce4       ?write_double_translated_ansi_nolock@@YA?AUwrite_result@?A0x9c548279@@HQEBDI@Z 000000018002ece4 f   libucrt:write.obj
 0001:0002deec       ?write_text_ansi_nolock@@YA?AUwrite_result@?A0x9c548279@@HQEBDI@Z 000000018002eeec f   libucrt:write.obj
 0001:0002dff4       ?write_text_utf16le_nolock@@YA?AUwrite_result@?A0x9c548279@@HQEBDI@Z 000000018002eff4 f   libucrt:write.obj
 0001:0002e110       ?write_text_utf8_nolock@@YA?AUwrite_result@?A0x9c548279@@HQEBDI@Z 000000018002f110 f   libucrt:write.obj
 0001:0002ebd8       ?free_crt_array_internal@@YAXQEAPEBX_K@Z 000000018002fbd8 f   libucrt:inittime.obj
 0001:0002ef10       $$000000                   000000018002ff10     libucrt:fpsr.obj
 0001:0002ef70       ?GetTableIndexFromLocaleName@@YAHPEB_W@Z 000000018002ff70 f   libucrt:lcidtoname_downlevel.obj
 0001:0002f280       ?initialize_multibyte@@YAHXZ 0000000180030280 f   libucrt:multibyte_initializer.obj
 0001:00030f4c       memcpy_s                   0000000180031f4c f   libucrt:cfout.obj
 0001:00030fd4       ??$write_buffer_nolock@D@@YA_NDV__crt_stdio_stream@@@Z 0000000180031fd4 f   libucrt:_flsbuf.obj
 0001:000310d8       ??$write_buffer_nolock@_W@@YA_N_WV__crt_stdio_stream@@@Z 00000001800320d8 f   libucrt:_flsbuf.obj
 0001:000314a8       ??$common_lseek@_J@@YA_JH_JH@Z 00000001800324a8 f   libucrt:lseek.obj
 0001:00031598       ??$common_lseek_nolock@_J@@YA_JH_JH@Z 0000000180032598 f   libucrt:lseek.obj
 0001:00031820       $$000000                   0000000180032820     libucrt:log10.obj
 0001:000321d4       common_control87           00000001800331d4 f   libucrt:ieee.obj
 0001:0003246c       _call_matherr              000000018003346c f   libucrt:libm_error.obj
 0001:000324d4       _exception_enabled         00000001800334d4 f   libucrt:libm_error.obj
 0001:00032790       _log_special_common        0000000180033790 f   libucrt:log_special.obj
 0001:00033050       $$000000                   0000000180034050     LIBCMT:_chkstk_.obj
 0001:000330c0       $$000000                   00000001800340c0     libvcruntime:memcmp.obj
 0001:000332e0       $$000000                   00000001800342e0     LIBCMT:_svml_dcos2_dispatch_.obj
 0001:000332f0       $$000000                   00000001800342f0     LIBCMT:_svml_dsin2_dispatch_.obj
 0001:00033300       $$000000                   0000000180034300     LIBCMT:_svml_dcos2_sse2_.obj
 0001:00033300       __static_scalar_cos        0000000180034300 f   LIBCMT:_svml_dcos2_sse2_.obj
 0001:00033ca0       __static_scalar_sin        0000000180034ca0 f   LIBCMT:_svml_dsin2_sse2_.obj
 0001:00033ca0       $$000000                   0000000180034ca0     LIBCMT:_svml_dsin2_sse2_.obj
 0001:00034870       $$000000                   0000000180035870     libucrt:cos.obj
 0001:00034df0       $$000000                   0000000180035df0     libucrt:exp.obj
 0001:000352a0       $$000000                   00000001800362a0     libucrt:log.obj
 0001:000357d0       $$000000                   00000001800367d0     libucrt:pow.obj
 0001:00036e70       $$000000                   0000000180037e70     libucrt:sin.obj
 0001:000374b0       $$000000                   00000001800384b0     libucrt:remainder_piby2_forasm.obj
 0001:00037800       $$000000                   0000000180038800     libucrt:remainder_piby2_forfma3.obj
 0001:00037a90       _sincos_special            0000000180038a90 f   libucrt:sincos_special.obj
 0001:00037d10       $$000000                   0000000180038d10     LIBCMT:_guard_dispatch_.obj
 0001:00037d30       ?fin$0@?0??dllmain_crt_process_attach@@YAHQEAUHINSTANCE__@@QEAX@Z@4HA 0000000180038d30 f   LIBCMT:dll_dllmain.obj
 0001:00037d47       ?fin$0@?0??dllmain_crt_process_detach@@YAH_N@Z@4HA 0000000180038d47 f   LIBCMT:dll_dllmain.obj
 0001:00037d63       ?filt$0@?0??dllmain_dispatch@@YAHQEAUHINSTANCE__@@KQEAX@Z@4HA 0000000180038d63 f   LIBCMT:dll_dllmain.obj
 0001:00037d99       __scrt_is_nonwritable_in_current_image$filt$0 0000000180038d99 f   LIBCMT:utility.obj
 0001:00037db1       ?filt$0@?0??common_exit@@YAXHW4_crt_exit_cleanup_mode@@W4_crt_exit_return_mode@@@Z@4HA 0000000180038db1 f   libucrt:exit.obj
 0001:00037dcc       ?fin$1@?0??common_exit@@YAXHW4_crt_exit_cleanup_mode@@W4_crt_exit_return_mode@@@Z@4HA 0000000180038dcc f   libucrt:exit.obj
 0001:00037de5       _query_new_handler$fin$0   0000000180038de5 f   libucrt:new_handler.obj
 0001:00037dfb       ?fin$0@?0???$?RV<lambda_e24bbb7b643b32fcea6fa61b31d4c984>@@AEAV<lambda_275893d493268fdec8709772e3fcec0e>@@V<lambda_9d71df4d7cf3f480f8d633942495c3b0>@@@?$__crt_seh_guarded_call@H@@QEAAH$$QEAV<lambda_e24bbb7b643b32fcea6fa61b31d4c984>@@AEAV<lambda_275893d493268fdec8709772e3fcec0e>@@$$QEAV<lambda_9d71df4d7cf3f480f8d633942495c3b0>@@@Z@4HA 0000000180038dfb f   libucrt:onexit.obj
 0001:00037e18       common_flush_all$fin$0     0000000180038e18 f   libucrt:fflush.obj
 0001:00037e32       common_flush_all$fin$1     0000000180038e32 f   libucrt:fflush.obj
 0001:00037e4b       ?fin$0@?0???$?RV<lambda_7b91131dde12e1c3dfc74ff76b3f2eac>@@AEAV<lambda_dd75445284c072d0bd3768540cc698fa>@@V<lambda_16bc4ecb55b4718497c16bceaea2ceaf>@@@?$__crt_seh_guarded_call@H@@QEAAH$$QEAV<lambda_7b91131dde12e1c3dfc74ff76b3f2eac>@@AEAV<lambda_dd75445284c072d0bd3768540cc698fa>@@$$QEAV<lambda_16bc4ecb55b4718497c16bceaea2ceaf>@@@Z@4HA 0000000180038e4b f   libucrt:output.obj
 0001:00037e4b       ?fin$0@?0???$?RV<lambda_7a5ef57ff966f610505f1d28a3d40618>@@AEAV<lambda_b721fa326cdb32351d23dfa67958c160>@@V<lambda_5e0fb27672408a07956fe59e48ccb2aa>@@@?$__crt_seh_guarded_call@H@@QEAAH$$QEAV<lambda_7a5ef57ff966f610505f1d28a3d40618>@@AEAV<lambda_b721fa326cdb32351d23dfa67958c160>@@$$QEAV<lambda_5e0fb27672408a07956fe59e48ccb2aa>@@@Z@4HA 0000000180038e4b f   libucrt:setvbuf.obj
 0001:00037e66       raise$fin$0                0000000180038e66 f   libucrt:signal.obj
 0001:00037e8a       ?fin$0@?0???$?RV<lambda_5e887d1dcbef67a5eb4283622ba103bf>@@AEAV<lambda_4466841279450cc726390878d4a41900>@@V<lambda_341c25c0346d94847f1f3c463c57e077>@@@?$__crt_seh_guarded_call@X@@QEAAX$$QEAV<lambda_5e887d1dcbef67a5eb4283622ba103bf>@@AEAV<lambda_4466841279450cc726390878d4a41900>@@$$QEAV<lambda_341c25c0346d94847f1f3c463c57e077>@@@Z@4HA 0000000180038e8a f   libucrt:per_thread_data.obj
 0001:00037e8a       ?fin$0@?0???$?RV<lambda_b8c45f8f788dd370798f47cfe8ac3a86>@@AEAV<lambda_4e60a939b0d047cfe11ddc22648dfba9>@@V<lambda_332c3edc96d0294ec56c57d38c1cdfd5>@@@?$__crt_seh_guarded_call@H@@QEAAH$$QEAV<lambda_b8c45f8f788dd370798f47cfe8ac3a86>@@AEAV<lambda_4e60a939b0d047cfe11ddc22648dfba9>@@$$QEAV<lambda_332c3edc96d0294ec56c57d38c1cdfd5>@@@Z@4HA 0000000180038e8a f   libucrt:onexit.obj
 0001:00037e8a       ?fin$0@?0???$?RV<lambda_72d1df2b273a38828b1ce30cbf4cdab5>@@AEAV<lambda_876a65b173b8412d3a47c70a915b0cf4>@@V<lambda_41932305e351933ebe8f8be3ed8bb5dc>@@@?$__crt_seh_guarded_call@X@@QEAAX$$QEAV<lambda_72d1df2b273a38828b1ce30cbf4cdab5>@@AEAV<lambda_876a65b173b8412d3a47c70a915b0cf4>@@$$QEAV<lambda_41932305e351933ebe8f8be3ed8bb5dc>@@@Z@4HA 0000000180038e8a f   libucrt:per_thread_data.obj
 0001:00037e8a       ?fin$0@?0???$?RV<lambda_c36588078e9f5dfd39652860aa6b3aaf>@@AEAV<lambda_ec61778202f4f5fc7e7711acc23c3bca>@@V<lambda_dc9d2797ccde5d239b4a0efae8ebd7db>@@@?$__crt_seh_guarded_call@P6AXH@Z@@QEAAP6AXH@Z$$QEAV<lambda_c36588078e9f5dfd39652860aa6b3aaf>@@AEAV<lambda_ec61778202f4f5fc7e7711acc23c3bca>@@$$QEAV<lambda_dc9d2797ccde5d239b4a0efae8ebd7db>@@@Z@4HA 0000000180038e8a f   libucrt:signal.obj
 0001:00037e8a       ?fin$0@?0???$?RV<lambda_46352004c1216016012b18bd6f87e700>@@AEAV<lambda_3bd07e1a1191394380780325891bf33f>@@V<lambda_334532d3f185bcaa59b5be82d7d22bff>@@@?$__crt_seh_guarded_call@X@@QEAAX$$QEAV<lambda_46352004c1216016012b18bd6f87e700>@@AEAV<lambda_3bd07e1a1191394380780325891bf33f>@@$$QEAV<lambda_334532d3f185bcaa59b5be82d7d22bff>@@@Z@4HA 0000000180038e8a f   libucrt:per_thread_data.obj
 0001:00037e8a       ?fin$0@?0???$?RV<lambda_99476a1ad63dd22509b5d3e65b0ffc95>@@AEAV<lambda_ad1ced32f4ac17aa236e5ef05d6b3b7c>@@V<lambda_f7424dd8d45958661754dc4f2697e9c3>@@@?$__crt_seh_guarded_call@X@@QEAAX$$QEAV<lambda_99476a1ad63dd22509b5d3e65b0ffc95>@@AEAV<lambda_ad1ced32f4ac17aa236e5ef05d6b3b7c>@@$$QEAV<lambda_f7424dd8d45958661754dc4f2697e9c3>@@@Z@4HA 0000000180038e8a f   libucrt:mbctype.obj
 0001:00037e8a       ?fin$0@?0???$?RV<lambda_fb3a7dec4e47f37f22dae91bb15c9095>@@AEAV<lambda_698284760c8add0bfb0756c19673e34b>@@V<lambda_dfb8eca1e75fef3034a8fb18dd509707>@@@?$__crt_seh_guarded_call@X@@QEAAX$$QEAV<lambda_fb3a7dec4e47f37f22dae91bb15c9095>@@AEAV<lambda_698284760c8add0bfb0756c19673e34b>@@$$QEAV<lambda_dfb8eca1e75fef3034a8fb18dd509707>@@@Z@4HA 0000000180038e8a f   libucrt:per_thread_data.obj
 0001:00037ea4       _ctrlfp$filt$0             0000000180038ea4 f   libucrt:fpctrl.obj
 0001:00037ea4       common_control87$filt$0    0000000180038ea4 f   libucrt:ieee.obj
 0001:00037ed0       __acrt_update_thread_multibyte_data$fin$0 0000000180038ed0 f   libucrt:mbctype.obj
 0001:00037ee9       _fcloseall$fin$0           0000000180038ee9 f   libucrt:closeall.obj
 0001:00037f02       __acrt_update_thread_locale_data$fin$0 0000000180038f02 f   libucrt:locale_refcounting.obj
 0001:00037f02       __acrt_uninitialize_locale$fin$0 0000000180038f02 f   libucrt:wsetlocale.obj
 0001:00037f1b       __acrt_lowio_ensure_fh_exists$fin$0 0000000180038f1b f   libucrt:osfinfo.obj
 0001:00037f1b       __acrt_initialize_lowio$fin$0 0000000180038f1b f   libucrt:ioinit.obj
 0001:00037f34       fflush$fin$0               0000000180038f34 f   libucrt:fflush.obj
 0001:00037f34       fclose$fin$0               0000000180038f34 f   libucrt:fclose.obj
 0001:00037f4c       ?fin$0@?0???$common_lseek@_J@@YA_JH_JH@Z@4HA 0000000180038f4c f   libucrt:lseek.obj
 0001:00037f4c       _write$fin$0               0000000180038f4c f   libucrt:write.obj
 0001:00037f63       ?fin$0@?0???$?RV<lambda_bfedae4ebbf01fab1bb6dcc6a9e276e0>@@AEAV<lambda_2fe9b910cf3cbf4a0ab98a02ba45b3ec>@@V<lambda_237c231691f317818eb88cc1d5d642d6>@@@?$__crt_seh_guarded_call@H@@QEAAH$$QEAV<lambda_bfedae4ebbf01fab1bb6dcc6a9e276e0>@@AEAV<lambda_2fe9b910cf3cbf4a0ab98a02ba45b3ec>@@$$QEAV<lambda_237c231691f317818eb88cc1d5d642d6>@@@Z@4HA 0000000180038f63 f   libucrt:close.obj
 0001:00037f63       ?fin$0@?0???$?RV<lambda_b521505b218e5242e90febf6bfebc422>@@AEAV<lambda_6978c1fb23f02e42e1d9e99668cc68aa>@@V<lambda_314360699dd331753a4119843814e9a7>@@@?$__crt_seh_guarded_call@H@@QEAAH$$QEAV<lambda_b521505b218e5242e90febf6bfebc422>@@AEAV<lambda_6978c1fb23f02e42e1d9e99668cc68aa>@@$$QEAV<lambda_314360699dd331753a4119843814e9a7>@@@Z@4HA 0000000180038f63 f   libucrt:commit.obj
 0001:00037f80       _IsNonwritableInCurrentImage$filt$0 0000000180038f80 f   LIBCMT:pesect.obj
 0002:00000378       GS_ExceptionPointers       0000000180039378     LIBCMT:gs_report.obj
 0002:00000450       ?ExceptionTemplate@?1??_CxxThrowException@@9@4UEHExceptionRecord@@B 0000000180039450     libvcruntime:throw.obj
 0002:00000490       ?module_names@?A0x49c8dc86@@3QBQEB_WB 0000000180039490     libvcruntime:winapi_downlevel.obj
 0002:0000055c       ?candidate_modules@?1??try_get_EventRegister@@YAP6AKPEBU_GUID@@P6AX0KE_K1PEAU_EVENT_FILTER_DESCRIPTOR@@PEAX@Z3PEA_K@ZXZ@4QBW4module_id@?A0x49c8dc86@@B 000000018003955c     libvcruntime:winapi_downlevel.obj
 0002:00000570       ?candidate_modules@?1??try_get_EventSetInformation@@YAP6AK_KW4_EVENT_INFO_CLASS@@PEAXK@ZXZ@4QBW4module_id@?A0x49c8dc86@@B 0000000180039570     libvcruntime:winapi_downlevel.obj
 0002:0000058c       ?candidate_modules@?1??try_get_EventUnregister@@YAP6AK_K@ZXZ@4QBW4module_id@?A0x49c8dc86@@B 000000018003958c     libvcruntime:winapi_downlevel.obj
 0002:000005a0       ?candidate_modules@?1??try_get_EventWriteTransfer@@YAP6AK_KPEBU_EVENT_DESCRIPTOR@@PEBU_GUID@@2KPEAU_EVENT_DATA_DESCRIPTOR@@@ZXZ@4QBW4module_id@?A0x49c8dc86@@B 00000001800395a0     libvcruntime:winapi_downlevel.obj
 0002:000005c0       ?candidate_modules@?1??try_get_FlsAlloc@@YAP6AKP6AXPEAX@Z@ZXZ@4QBW4module_id@?A0x49c8dc86@@B 00000001800395c0     libvcruntime:winapi_downlevel.obj
 0002:000005d8       ?candidate_modules@?1??try_get_FlsFree@@YAP6AHK@ZXZ@4QBW4module_id@?A0x49c8dc86@@B 00000001800395d8     libvcruntime:winapi_downlevel.obj
 0002:000005e8       ?candidate_modules@?1??try_get_FlsGetValue@@YAP6APEAXK@ZXZ@4QBW4module_id@?A0x49c8dc86@@B 00000001800395e8     libvcruntime:winapi_downlevel.obj
 0002:00000600       ?candidate_modules@?1??try_get_FlsSetValue@@YAP6AHKPEAX@ZXZ@4QBW4module_id@?A0x49c8dc86@@B 0000000180039600     libvcruntime:winapi_downlevel.obj
 0002:00000618       ?candidate_modules@?1??try_get_InitializeCriticalSectionEx@@YAP6AHPEAU_RTL_CRITICAL_SECTION@@KK@ZXZ@4QBW4module_id@?A0x49c8dc86@@B 0000000180039618     libvcruntime:winapi_downlevel.obj
 0002:00000640       ?tokenTable@@3QBQEBDB      0000000180039640     libvcruntime:undname.obj
 0002:000006b0       ?nameTable@@3QBQEBDB       00000001800396b0     libvcruntime:undname.obj
 0002:00000938       ?rttiTable@@3QBQEBDB       0000000180039938     libvcruntime:undname.obj
 0002:000013a0       __acrt_initializers        000000018003a3a0     libucrt:initialization.obj
 0002:00001510       errtable                   000000018003a510     libucrt:errno.obj
 0002:00002520       ?_names@?1??_get_fname@@9@9 000000018003b520     libucrt:fpexcept.obj
 0002:000027c0       module_names               000000018003b7c0     libucrt:winapi_thunks.obj
 0002:00002cf0       ?candidate_modules@?1??try_get_FlsAlloc@@YAP6AKP6AXPEAX@Z@ZXZ@4QBW4module_id@?A0x63058377@@B 000000018003bcf0     libucrt:winapi_thunks.obj
 0002:00002cf8       ?candidate_modules@?1??try_get_FlsFree@@YAP6AHK@ZXZ@4QBW4module_id@?A0x63058377@@B 000000018003bcf8     libucrt:winapi_thunks.obj
 0002:00002d00       ?candidate_modules@?1??try_get_FlsGetValue@@YAP6APEAXK@ZXZ@4QBW4module_id@?A0x63058377@@B 000000018003bd00     libucrt:winapi_thunks.obj
 0002:00002d08       ?candidate_modules@?1??try_get_FlsSetValue@@YAP6AHKPEAX@ZXZ@4QBW4module_id@?A0x63058377@@B 000000018003bd08     libucrt:winapi_thunks.obj
 0002:00002d10       ?candidate_modules@?1??try_get_GetActiveWindow@@YAP6APEAUHWND__@@XZXZ@4QBW4module_id@?A0x63058377@@B 000000018003bd10     libucrt:winapi_thunks.obj
 0002:00002d28       ?candidate_modules@?1??try_get_GetCurrentPackageId@@YAP6AJPEAIPEAE@ZXZ@4QBW4module_id@?A0x63058377@@B 000000018003bd28     libucrt:winapi_thunks.obj
 0002:00002d48       ?candidate_modules@?1??try_get_GetLastActivePopup@@YAP6APEAUHWND__@@PEAU2@@ZXZ@4QBW4module_id@?A0x63058377@@B 000000018003bd48     libucrt:winapi_thunks.obj
 0002:00002d68       ?candidate_modules@?1??try_get_GetProcessWindowStation@@YAP6APEAUHWINSTA__@@XZXZ@4QBW4module_id@?A0x63058377@@B 000000018003bd68     libucrt:winapi_thunks.obj
 0002:00002d88       ?candidate_modules@?1??try_get_GetUserObjectInformationW@@YAP6AHPEAXH0KPEAK@ZXZ@4QBW4module_id@?A0x63058377@@B 000000018003bd88     libucrt:winapi_thunks.obj
 0002:00002db0       ?candidate_modules@?1??try_get_InitializeCriticalSectionEx@@YAP6AHPEAU_RTL_CRITICAL_SECTION@@KK@ZXZ@4QBW4module_id@?A0x63058377@@B 000000018003bdb0     libucrt:winapi_thunks.obj
 0002:00002db8       ?candidate_modules@?1??try_get_LCMapStringEx@@YAP6AHPEB_WK0HPEA_WHPEAU_nlsversioninfo@@PEAX_J@ZXZ@4QBW4module_id@?A0x63058377@@B 000000018003bdb8     libucrt:winapi_thunks.obj
 0002:00002dd0       ?candidate_modules@?1??try_get_LocaleNameToLCID@@YAP6AKPEB_WK@ZXZ@4QBW4module_id@?A0x63058377@@B 000000018003bdd0     libucrt:winapi_thunks.obj
 0002:00002df0       ?candidate_modules@?1??try_get_MessageBoxA@@YAP6AHPEAUHWND__@@PEBD1I@ZXZ@4QBW4module_id@?A0x63058377@@B 000000018003bdf0     libucrt:winapi_thunks.obj
 0002:00002e08       ?candidate_modules@?1??try_get_MessageBoxW@@YAP6AHPEAUHWND__@@PEB_W1I@ZXZ@4QBW4module_id@?A0x63058377@@B 000000018003be08     libucrt:winapi_thunks.obj
 0002:00002e20       _mb_locale_names           000000018003be20     libucrt:mbctype.obj
 0002:00002ee0       __real@433fffffffffffff    000000018003bee0     libucrt:fpsr.obj
 0002:00002ee8       __real@c33fffffffffffff    000000018003bee8     libucrt:fpsr.obj
 0002:00002ef0       LcidToLocaleNameTable      000000018003bef0     libucrt:lcidtoname_downlevel.obj
 0002:00004940       LocaleNameToIndexTable     000000018003d940     libucrt:lcidtoname_downlevel.obj
 0002:00006bd0       __real_ninf                000000018003fbd0     libucrt:log10.obj
 0002:00006be0       __real_inf                 000000018003fbe0     libucrt:log10.obj
 0002:00006bf0       __real_neg_qnan            000000018003fbf0     libucrt:log10.obj
 0002:00006c00       __real_qnanbit             000000018003fc00     libucrt:log10.obj
 0002:00006c10       __int_1023                 000000018003fc10     libucrt:log10.obj
 0002:00006c20       __mask_001                 000000018003fc20     libucrt:log10.obj
 0002:00006c30       __mask_mant                000000018003fc30     libucrt:log10.obj
 0002:00006c40       __mask_mant_top8           000000018003fc40     libucrt:log10.obj
 0002:00006c50       __mask_mant9               000000018003fc50     libucrt:log10.obj
 0002:00006c60       __real_log10_e             000000018003fc60     libucrt:log10.obj
 0002:00006c70       __real_log10_e_lead        000000018003fc70     libucrt:log10.obj
 0002:00006c80       __real_log10_e_tail        000000018003fc80     libucrt:log10.obj
 0002:00006c90       __real_log10_2_lead        000000018003fc90     libucrt:log10.obj
 0002:00006ca0       __real_log10_2_tail        000000018003fca0     libucrt:log10.obj
 0002:00006cb0       __real_two                 000000018003fcb0     libucrt:log10.obj
 0002:00006cc0       __real_one                 000000018003fcc0     libucrt:log10.obj
 0002:00006cd0       __real_half                000000018003fcd0     libucrt:log10.obj
 0002:00006ce0       __mask_100                 000000018003fce0     libucrt:log10.obj
 0002:00006cf0       __real_1_over_512          000000018003fcf0     libucrt:log10.obj
 0002:00006d00       __real_1_over_2            000000018003fd00     libucrt:log10.obj
 0002:00006d10       __real_1_over_3            000000018003fd10     libucrt:log10.obj
 0002:00006d20       __real_1_over_4            000000018003fd20     libucrt:log10.obj
 0002:00006d30       __real_1_over_5            000000018003fd30     libucrt:log10.obj
 0002:00006d40       __real_1_over_6            000000018003fd40     libucrt:log10.obj
 0002:00006d50       __real_neg_1023            000000018003fd50     libucrt:log10.obj
 0002:00006d60       __mask_2045                000000018003fd60     libucrt:log10.obj
 0002:00006d70       __real_threshold           000000018003fd70     libucrt:log10.obj
 0002:00006d80       __real_near_one_lt         000000018003fd80     libucrt:log10.obj
 0002:00006d90       __real_near_one_gt         000000018003fd90     libucrt:log10.obj
 0002:00006da0       __real_min_norm            000000018003fda0     libucrt:log10.obj
 0002:00006db0       __real_notsign             000000018003fdb0     libucrt:log10.obj
 0002:00006dc0       __real_ca1                 000000018003fdc0     libucrt:log10.obj
 0002:00006dd0       __real_ca2                 000000018003fdd0     libucrt:log10.obj
 0002:00006de0       __real_ca3                 000000018003fde0     libucrt:log10.obj
 0002:00006df0       __real_ca4                 000000018003fdf0     libucrt:log10.obj
 0002:00006e00       __mask_lower               000000018003fe00     libucrt:log10.obj
 0002:00006e10       __flag_x_zero              000000018003fe10     libucrt:log10.obj
 0002:00006e14       __flag_x_neg               000000018003fe14     libucrt:log10.obj
 0002:00006e18       __flag_x_nan               000000018003fe18     libucrt:log10.obj
 0002:00008f00       FLOOR1_fromdB_LOOKUP       0000000180041f00     libvorbis:psy.obj
 0002:00009300       stereo_threshholds         0000000180042300     libvorbis:psy.obj
 0002:00009348       ?taui@?1??dradb3@@9@9      0000000180042348     libvorbis:smallft.obj
 0002:0000934c       ?taur@?1??dradb3@@9@9      000000018004234c     libvorbis:smallft.obj
 0002:00009350       ATH                        0000000180042350     libvorbis:psy.obj
 0002:000094b0       tonemasks                  00000001800424b0     libvorbis:psy.obj
 0002:0000edf0       stereo_threshholds_limited 0000000180047df0     libvorbis:psy.obj
 0002:0000ee38       ?tpi@?1??dradfg@@9@9       0000000180047e38     libvorbis:smallft.obj
 0002:0000ee3c       ?hsqt2@?1??dradf4@@9@9     0000000180047e3c     libvorbis:smallft.obj
 0002:0000ee40       ?ntryh@?1??drfti1@@9@9     0000000180047e40     libvorbis:smallft.obj
 0002:0000ee50       ?tpi@?1??drfti1@@9@9       0000000180047e50     libvorbis:smallft.obj
 0002:0000ee54       ?sqrt2@?1??dradb4@@9@9     0000000180047e54     libvorbis:smallft.obj
 0002:0000ee58       ?tpi@?1??dradbg@@9@9       0000000180047e58     libvorbis:smallft.obj
 0002:0000ee60       vwin64                     0000000180047e60     libvorbis:window.obj
 0002:0000eee0       vwin128                    0000000180047ee0     libvorbis:window.obj
 0002:0000efe0       vwin512                    0000000180047fe0     libvorbis:window.obj
 0002:0000f3e0       vwin8192                   00000001800483e0     libvorbis:window.obj
 0002:000133e0       vwin4096                   000000018004c3e0     libvorbis:window.obj
 0002:000153e0       vwin1024                   000000018004e3e0     libvorbis:window.obj
 0002:00015be0       vwin2048                   000000018004ebe0     libvorbis:window.obj
 0002:00016be0       vwin                       000000018004fbe0     libvorbis:window.obj
 0002:00016c20       vwin256                    000000018004fc20     libvorbis:window.obj
 0002:00016f78       _vq_quantlist__44u1__p6_0  000000018004ff78     libvorbisenc:vorbisenc.obj
 0002:00016fb0       FLOOR1_fromdB_LOOKUP       000000018004ffb0     libvorbis:floor1.obj
 0002:000173b0       rate_mapping_32_un         00000001800503b0     libvorbisenc:vorbisenc.obj
 0002:00017410       _vq_quantlist__44u8_p6_1   0000000180050410     libvorbisenc:vorbisenc.obj
 0002:00017428       _44p3_p7_3                 0000000180050428     libvorbisenc:vorbisenc.obj
 0002:00017460       _floor_128x17_books        0000000180050460     libvorbisenc:vorbisenc.obj
 0002:000174c0       _res_44u_4                 00000001800504c0     libvorbisenc:vorbisenc.obj
 0002:00017530       _vq_lengthlist__44c5_s_p5_0 0000000180050530     libvorbisenc:vorbisenc.obj
 0002:00017678       _vq_quantlist__44cn1_sm_p1_0 0000000180050678     libvorbisenc:vorbisenc.obj
 0002:00017688       _8c0_s_p9_0                0000000180050688     libvorbisenc:vorbisenc.obj
 0002:000176c0       _huff_lengthlist_line_2048x27_class1 00000001800506c0     libvorbisenc:vorbisenc.obj
 0002:00017700       _resbook_44u_2             0000000180050700     libvorbisenc:vorbisenc.obj
 0002:00017880       _44p8_p7_3                 0000000180050880     libvorbisenc:vorbisenc.obj
 0002:000178b8       _44u7__p4_0                00000001800508b8     libvorbisenc:vorbisenc.obj
 0002:000178f0       _vq_quantlist__44p3_p7_3   00000001800508f0     libvorbisenc:vorbisenc.obj
 0002:00017958       _44c6_s_p9_1               0000000180050958     libvorbisenc:vorbisenc.obj
 0002:00017990       _vq_lengthlist__44u6__p4_0 0000000180050990     libvorbisenc:vorbisenc.obj
 0002:00018358       _44c0_s_p8_2               0000000180051358     libvorbisenc:vorbisenc.obj
 0002:00018390       _vq_lengthlist__44u3__p4_0 0000000180051390     libvorbisenc:vorbisenc.obj
 0002:00018d58       _16c2_s_p8_0               0000000180051d58     libvorbisenc:vorbisenc.obj
 0002:00018d90       _huff_lengthlist_line_128x17_3sub1 0000000180051d90     libvorbisenc:vorbisenc.obj
 0002:00018dd8       _vq_quantlist__44p0_p3_1   0000000180051dd8     libvorbisenc:vorbisenc.obj
 0002:00018df0       _vq_lengthlist__44p5_p1_0  0000000180051df0     libvorbisenc:vorbisenc.obj
 0002:000191c0       _vq_quantlist__44p9_p7_1   00000001800521c0     libvorbisenc:vorbisenc.obj
 0002:000191d8       _44u0__p7_1                00000001800521d8     libvorbisenc:vorbisenc.obj
 0002:00019210       _huff_lengthlist__44u8__short 0000000180052210     libvorbisenc:vorbisenc.obj
 0002:000193a0       _vq_lengthlist__44u0__p3_0 00000001800523a0     libvorbisenc:vorbisenc.obj
 0002:00019d68       _vq_quantlist__44p3_p4_1   0000000180052d68     libvorbisenc:vorbisenc.obj
 0002:00019d80       _vq_lengthlist__44p8_p7_1  0000000180052d80     libvorbisenc:vorbisenc.obj
 0002:0001ce58       _vq_quantlist__44c7_s_p6_0 0000000180055e58     libvorbisenc:vorbisenc.obj
 0002:0001ce90       _vq_lengthlist__44u8_p7_1  0000000180055e90     libvorbisenc:vorbisenc.obj
 0002:0001d078       _vq_quantlist__44c0_s_p1_0 0000000180056078     libvorbisenc:vorbisenc.obj
 0002:0001d088       _44u8_p8_1                 0000000180056088     libvorbisenc:vorbisenc.obj
 0002:0001d0c0       _vq_quantlist__44p0_p6_2   00000001800560c0     libvorbisenc:vorbisenc.obj
 0002:0001d128       _16c1_s_p9_0               0000000180056128     libvorbisenc:vorbisenc.obj
 0002:0001d160       _psy_compand_44            0000000180056160     libvorbisenc:vorbisenc.obj
 0002:0001d520       _res_44s_n1                0000000180056520     libvorbisenc:vorbisenc.obj
 0002:0001d590       _vq_quantlist__44p5_p4_0   0000000180056590     libvorbisenc:vorbisenc.obj
 0002:0001d5a0       _vq_quantlist__44p8_p5_1   00000001800565a0     libvorbisenc:vorbisenc.obj
 0002:0001d5c0       _vq_lengthlist__44p7_p1_0  00000001800565c0     libvorbisenc:vorbisenc.obj
 0002:0001d990       _huff_lengthlist__44c2_s_long 0000000180056990     libvorbisenc:vorbisenc.obj
 0002:0001db20       _vq_quantlist__44p7_p1_0   0000000180056b20     libvorbisenc:vorbisenc.obj
 0002:0001db30       _huff_book_line_128x11_class3 0000000180056b30     libvorbisenc:vorbisenc.obj
 0002:0001db68       _huff_book__8c0_s_single   0000000180056b68     libvorbisenc:vorbisenc.obj
 0002:0001dba0       quality_mapping_44         0000000180056ba0     libvorbisenc:vorbisenc.obj
 0002:0001dc00       _vq_lengthlist__44cn1_s_p6_1 0000000180056c00     libvorbisenc:vorbisenc.obj
 0002:0001dde8       _44c6_s_p7_1               0000000180056de8     libvorbisenc:vorbisenc.obj
 0002:0001de20       _vq_quantlist__44p1_p2_0   0000000180056e20     libvorbisenc:vorbisenc.obj
 0002:0001de30       _huff_book_line_128x7_0sub3 0000000180056e30     libvorbisenc:vorbisenc.obj
 0002:0001de68       _44u8_p8_0                 0000000180056e68     libvorbisenc:vorbisenc.obj
 0002:0001dea0       _vq_quantlist__8c0_s_p7_1  0000000180056ea0     libvorbisenc:vorbisenc.obj
 0002:0001ded0       _huff_lengthlist_line_128x7_0sub2 0000000180056ed0     libvorbisenc:vorbisenc.obj
 0002:0001df38       _vq_quantlist__44u8_p7_0   0000000180056f38     libvorbisenc:vorbisenc.obj
 0002:0001df70       _44c9_s_p5_0               0000000180056f70     libvorbisenc:vorbisenc.obj
 0002:0001dfa8       _44c8_s_p9_1               0000000180056fa8     libvorbisenc:vorbisenc.obj
 0002:0001dfe0       _vq_quantlist__16c0_s_p4_0 0000000180056fe0     libvorbisenc:vorbisenc.obj
 0002:0001e008       _vq_quantlist__44un1__p7_2 0000000180057008     libvorbisenc:vorbisenc.obj
 0002:0001e040       _huff_lengthlist_line_2048x27_2sub0 0000000180057040     libvorbisenc:vorbisenc.obj
 0002:0001e0c0       _huff_lengthlist_line_128x11_3sub3 00000001800570c0     libvorbisenc:vorbisenc.obj
 0002:0001e2c0       _vq_quantlist__44c3_s_p9_1 00000001800572c0     libvorbisenc:vorbisenc.obj
 0002:0001e300       _44p5_p7_3                 0000000180057300     libvorbisenc:vorbisenc.obj
 0002:0001e338       _44c0_sm_p7_0              0000000180057338     libvorbisenc:vorbisenc.obj
 0002:0001e370       _vq_lengthlist__44u5__p6_0 0000000180057370     libvorbisenc:vorbisenc.obj
 0002:0001e4b8       _vq_quantlist__44c2_s_p8_1 00000001800574b8     libvorbisenc:vorbisenc.obj
 0002:0001e4d0       _vq_lengthlist__8u0__p7_2  00000001800574d0     libvorbisenc:vorbisenc.obj
 0002:0001ebb8       _44p8_p5_1                 0000000180057bb8     libvorbisenc:vorbisenc.obj
 0002:0001ebf0       _vq_lengthlist__44c5_s_p1_0 0000000180057bf0     libvorbisenc:vorbisenc.obj
 0002:00025278       _vq_quantlist__44u9_p8_0   000000018005e278     libvorbisenc:vorbisenc.obj
 0002:000252b8       _44cn1_s_p8_2              000000018005e2b8     libvorbisenc:vorbisenc.obj
 0002:000252f0       _vq_lengthlist__44c0_s_p4_0 000000018005e2f0     libvorbisenc:vorbisenc.obj
 0002:00025438       _huff_book_line_2048x27_4sub3 000000018005e438     libvorbisenc:vorbisenc.obj
 0002:00025470       _residue_44_hi_un          000000018005e470     libvorbisenc:vorbisenc.obj
 0002:00025f88       _44c4_s_p4_0               000000018005ef88     libvorbisenc:vorbisenc.obj
 0002:00025fc0       _vq_lengthlist__44u9_p9_2  000000018005efc0     libvorbisenc:vorbisenc.obj
 0002:00026088       _vq_quantlist__44c3_s_p9_0 000000018005f088     libvorbisenc:vorbisenc.obj
 0002:000260c0       _vq_lengthlist__16u2_p6_0  000000018005f0c0     libvorbisenc:vorbisenc.obj
 0002:00026368       _44p5_p5_1                 000000018005f368     libvorbisenc:vorbisenc.obj
 0002:000263a0       _vq_quantlist__44c8_s_p7_0 000000018005f3a0     libvorbisenc:vorbisenc.obj
 0002:000263d8       _8c0_s_p8_0                000000018005f3d8     libvorbisenc:vorbisenc.obj
 0002:00026410       _vq_lengthlist__44u6__p5_0 000000018005f410     libvorbisenc:vorbisenc.obj
 0002:00026558       _vq_quantlist__8u1__p4_0   000000018005f558     libvorbisenc:vorbisenc.obj
 0002:00026570       _vq_lengthlist__44p2_p3_0  000000018005f570     libvorbisenc:vorbisenc.obj
 0002:00026940       _res_44p51_8               000000018005f940     libvorbisenc:vorbisenc.obj
 0002:000269e8       _vq_quantlist__8c0_s_p1_0  000000018005f9e8     libvorbisenc:vorbisenc.obj
 0002:000269f8       _8u1__p5_0                 000000018005f9f8     libvorbisenc:vorbisenc.obj
 0002:00026a30       _vq_lengthlist__44p0_p6_0  000000018005fa30     libvorbisenc:vorbisenc.obj
 0002:00026e00       _vq_lengthlist__44c5_s_p3_0 000000018005fe00     libvorbisenc:vorbisenc.obj
 0002:000277c8       _vq_quantlist__44p5_p4_1   00000001800607c8     libvorbisenc:vorbisenc.obj
 0002:000277e0       _vq_lengthlist__44c2_s_p7_1 00000001800607e0     libvorbisenc:vorbisenc.obj
 0002:000279c8       _huff_book_line_2048x27_3sub2 00000001800609c8     libvorbisenc:vorbisenc.obj
 0002:00027a00       _vq_lengthlist__44c1_s_p7_1 0000000180060a00     libvorbisenc:vorbisenc.obj
 0002:00027a68       _vq_quantlist__44p2_p3_0   0000000180060a68     libvorbisenc:vorbisenc.obj
 0002:00027a78       _huff_book__44p5_lfe       0000000180060a78     libvorbisenc:vorbisenc.obj
 0002:00027ab0       _vq_lengthlist__44p8_p5_0  0000000180060ab0     libvorbisenc:vorbisenc.obj
 0002:0002ab88       _44u6__p8_1                0000000180063b88     libvorbisenc:vorbisenc.obj
 0002:0002abc0       _huff_lengthlist__44p7_short 0000000180063bc0     libvorbisenc:vorbisenc.obj
 0002:0002acc0       _vq_lengthlist__44c3_s_p1_0 0000000180063cc0     libvorbisenc:vorbisenc.obj
 0002:00031348       _vq_quantlist__44pn1_p3_1  000000018006a348     libvorbisenc:vorbisenc.obj
 0002:00031360       _vq_lengthlist__44p3_p7_3  000000018006a360     libvorbisenc:vorbisenc.obj
 0002:000313c8       _44p3_p3_1                 000000018006a3c8     libvorbisenc:vorbisenc.obj
 0002:00031400       _vq_lengthlist__44u6__p3_0 000000018006a400     libvorbisenc:vorbisenc.obj
 0002:00031dc8       _vq_quantlist__44u1__p3_0  000000018006adc8     libvorbisenc:vorbisenc.obj
 0002:00031de0       _vq_lengthlist__8c1_s_p1_0 000000018006ade0     libvorbisenc:vorbisenc.obj
 0002:00038468       _8u1__p1_0                 0000000180071468     libvorbisenc:vorbisenc.obj
 0002:000384a0       _vq_lengthlist__44c8_s_p9_0 00000001800714a0     libvorbisenc:vorbisenc.obj
 0002:00038928       _44c2_s_p1_0               0000000180071928     libvorbisenc:vorbisenc.obj
 0002:00038960       _vq_quantlist__16c0_s_p9_2 0000000180071960     libvorbisenc:vorbisenc.obj
 0002:000389b8       _vq_quantlist__16u1__p7_1  00000001800719b8     libvorbisenc:vorbisenc.obj
 0002:000389e8       _huff_book_line_2048x27_1sub1 00000001800719e8     libvorbisenc:vorbisenc.obj
 0002:00038a20       _resbook_44p_n1            0000000180071a20     libvorbisenc:vorbisenc.obj
 0002:00038ba0       _huff_lengthlist__44c5_s_long 0000000180071ba0     libvorbisenc:vorbisenc.obj
 0002:00038d30       _44u9_p5_1                 0000000180071d30     libvorbisenc:vorbisenc.obj
 0002:00038d68       _huff_book_line_128x11_1sub1 0000000180071d68     libvorbisenc:vorbisenc.obj
 0002:00038da0       _vq_lengthlist__44p8_p7_2  0000000180071da0     libvorbisenc:vorbisenc.obj
 0002:00038e08       _vq_quantlist__44un1__p4_0 0000000180071e08     libvorbisenc:vorbisenc.obj
 0002:00038e20       _vq_lengthlist__44u5__p4_0 0000000180071e20     libvorbisenc:vorbisenc.obj
 0002:000397e8       _44c3_s_p8_0               00000001800727e8     libvorbisenc:vorbisenc.obj
 0002:00039820       _vq_lengthlist__16u1__p3_0 0000000180072820     libvorbisenc:vorbisenc.obj
 0002:0003a1e8       _44u8_p2_0                 00000001800731e8     libvorbisenc:vorbisenc.obj
 0002:0003a220       _44u6__p6_0                0000000180073220     libvorbisenc:vorbisenc.obj
 0002:0003a258       _44p7_l0_0                 0000000180073258     libvorbisenc:vorbisenc.obj
 0002:0003a290       _huff_lengthlist__16u1__long 0000000180073290     libvorbisenc:vorbisenc.obj
 0002:0003a420       _vq_quantlist__44p2_p5_1   0000000180073420     libvorbisenc:vorbisenc.obj
 0002:0003a440       _huff_lengthlist__44p0_short 0000000180073440     libvorbisenc:vorbisenc.obj
 0002:0003a508       _vq_quantlist__44u6__p8_0  0000000180073508     libvorbisenc:vorbisenc.obj
 0002:0003a538       _vq_quantlist__16u1__p4_0  0000000180073538     libvorbisenc:vorbisenc.obj
 0002:0003a550       _vq_lengthlist__44p6_p2_0  0000000180073550     libvorbisenc:vorbisenc.obj
 0002:0003d628       _huff_book_line_128x4_class0 0000000180076628     libvorbisenc:vorbisenc.obj
 0002:0003d660       _44p2_p7_0                 0000000180076660     libvorbisenc:vorbisenc.obj
 0002:0003d698       _vq_quantlist__44u5__p9_1  0000000180076698     libvorbisenc:vorbisenc.obj
 0002:0003d6d8       _44u5__p7_1                00000001800766d8     libvorbisenc:vorbisenc.obj
 0002:0003d710       _vq_lengthlist__16c0_s_p6_0 0000000180076710     libvorbisenc:vorbisenc.obj
 0002:0003db98       _44pn1_p6_2                0000000180076b98     libvorbisenc:vorbisenc.obj
 0002:0003dbd0       _huff_lengthlist_line_1024x27_3sub1 0000000180076bd0     libvorbisenc:vorbisenc.obj
 0002:0003dc18       _44p4_p5_1                 0000000180076c18     libvorbisenc:vorbisenc.obj
 0002:0003dc50       _vq_lengthlist__44p0_p3_1  0000000180076c50     libvorbisenc:vorbisenc.obj
 0002:00040d28       _vq_quantlist__44p3_l0_0   0000000180079d28     libvorbisenc:vorbisenc.obj
 0002:00040d60       _vq_lengthlist__44p8_p7_0  0000000180079d60     libvorbisenc:vorbisenc.obj
 0002:00041130       _vq_lengthlist__44p5_p7_0  000000018007a130     libvorbisenc:vorbisenc.obj
 0002:00041500       _vq_lengthlist__8c1_s_p8_1 000000018007a500     libvorbisenc:vorbisenc.obj
 0002:00041568       _huff_book__44c1_s_long    000000018007a568     libvorbisenc:vorbisenc.obj
 0002:000415a0       _vq_lengthlist__44p7_p7_3  000000018007a5a0     libvorbisenc:vorbisenc.obj
 0002:00041608       _44p5_p5_0                 000000018007a608     libvorbisenc:vorbisenc.obj
 0002:00041640       _vq_lengthlist__44u5__p7_0 000000018007a640     libvorbisenc:vorbisenc.obj
 0002:00041788       _vq_quantlist__44p6_p7_1   000000018007a788     libvorbisenc:vorbisenc.obj
 0002:00041798       _44p4_l0_0                 000000018007a798     libvorbisenc:vorbisenc.obj
 0002:000417d0       _vq_lengthlist__44c7_s_p5_0 000000018007a7d0     libvorbisenc:vorbisenc.obj
 0002:00041918       _vq_quantlist__16u2_p7_1   000000018007a918     libvorbisenc:vorbisenc.obj
 0002:00041948       _huff_book_line_2048x27_0sub0 000000018007a948     libvorbisenc:vorbisenc.obj
 0002:00041980       _vq_lengthlist__44cn1_s_p3_0 000000018007a980     libvorbisenc:vorbisenc.obj
 0002:00041ac8       _vq_quantlist__44u1__p2_0  000000018007aac8     libvorbisenc:vorbisenc.obj
 0002:00041ad8       _huff_book__44pn1_short    000000018007aad8     libvorbisenc:vorbisenc.obj
 0002:00041b10       _vq_lengthlist__44u7__p8_1 000000018007ab10     libvorbisenc:vorbisenc.obj
 0002:00041cf8       _8u0__p7_1                 000000018007acf8     libvorbisenc:vorbisenc.obj
 0002:00041d30       _vq_lengthlist__44c4_s_p2_0 000000018007ad30     libvorbisenc:vorbisenc.obj
 0002:000426f8       _44p7_p6_0                 000000018007b6f8     libvorbisenc:vorbisenc.obj
 0002:00042730       _vq_lengthlist__44un1__p6_0 000000018007b730     libvorbisenc:vorbisenc.obj
 0002:000429d8       _huff_book__16u0__single   000000018007b9d8     libvorbisenc:vorbisenc.obj
 0002:00042a10       _vq_lengthlist__44p1_l0_1  000000018007ba10     libvorbisenc:vorbisenc.obj
 0002:00042a78       _44p4_p7_0                 000000018007ba78     libvorbisenc:vorbisenc.obj
 0002:00042ab0       _noise_thresh_11           000000018007bab0     libvorbisenc:vorbisenc.obj
 0002:00042ac8       _44u6__p2_0                000000018007bac8     libvorbisenc:vorbisenc.obj
 0002:00042b00       _huff_lengthlist_line_512x17_2sub2 000000018007bb00     libvorbisenc:vorbisenc.obj
 0002:00042bc8       _vq_quantlist__44p3_p3_0   000000018007bbc8     libvorbisenc:vorbisenc.obj
 0002:00042bd8       _huff_book_line_128x11_class2 000000018007bbd8     libvorbisenc:vorbisenc.obj
 0002:00042c10       _vq_lengthlist__44c0_sm_p4_0 000000018007bc10     libvorbisenc:vorbisenc.obj
 0002:00042d58       _vq_quantlist__44c9_s_p7_1 000000018007bd58     libvorbisenc:vorbisenc.obj
 0002:00042d88       _floor_mapping_44a         000000018007bd88     libvorbisenc:vorbisenc.obj
 0002:00042db8       _psy_lowpass_8             000000018007bdb8     libvorbisenc:vorbisenc.obj
 0002:00042dd0       _resbook_44sm_0            000000018007bdd0     libvorbisenc:vorbisenc.obj
 0002:00042f50       _vq_lengthlist__44c3_s_p9_1 000000018007bf50     libvorbisenc:vorbisenc.obj
 0002:000432d8       _44u9_p9_2                 000000018007c2d8     libvorbisenc:vorbisenc.obj
 0002:00043310       _huff_lengthlist__44u7__long 000000018007c310     libvorbisenc:vorbisenc.obj
 0002:000434a0       _44pn1_p2_0                000000018007c4a0     libvorbisenc:vorbisenc.obj
 0002:000434d8       _44c2_s_p9_0               000000018007c4d8     libvorbisenc:vorbisenc.obj
 0002:00043510       _vq_lengthlist__44p5_p4_1  000000018007c510     libvorbisenc:vorbisenc.obj
 0002:000465e8       _44p7_l1_0                 000000018007f5e8     libvorbisenc:vorbisenc.obj
 0002:00046620       _huff_lengthlist_line_1024x27_2sub1 000000018007f620     libvorbisenc:vorbisenc.obj
 0002:00046820       _vq_lengthlist__44c0_s_p7_0 000000018007f820     libvorbisenc:vorbisenc.obj
 0002:00046ac8       _44c3_s_p6_0               000000018007fac8     libvorbisenc:vorbisenc.obj
 0002:00046b00       _vq_lengthlist__8c0_s_p8_0 000000018007fb00     libvorbisenc:vorbisenc.obj
 0002:00046da8       _vq_lengthlist__44p9_p5_1  000000018007fda8     libvorbisenc:vorbisenc.obj
 0002:00046dc8       _44p2_p5_1                 000000018007fdc8     libvorbisenc:vorbisenc.obj
 0002:00046e00       _44p6_p7_1                 000000018007fe00     libvorbisenc:vorbisenc.obj
 0002:00046e38       _vq_quantlist__44c6_s_p7_0 000000018007fe38     libvorbisenc:vorbisenc.obj
 0002:00046e70       _psy_noiseguards_8         000000018007fe70     libvorbisenc:vorbisenc.obj
 0002:00046e88       _44u7__p9_0                000000018007fe88     libvorbisenc:vorbisenc.obj
 0002:00046ec0       _resbook_44u_9             000000018007fec0     libvorbisenc:vorbisenc.obj
 0002:00047040       _vq_lengthlist__44u2__p6_0 0000000180080040     libvorbisenc:vorbisenc.obj
 0002:000472e8       _vq_quantlist__44p7_p3_1   00000001800802e8     libvorbisenc:vorbisenc.obj
 0002:000472f8       _vq_quantlist__44p7_p3_0   00000001800802f8     libvorbisenc:vorbisenc.obj
 0002:00047308       _huff_book_line_128x17_1sub0 0000000180080308     libvorbisenc:vorbisenc.obj
 0002:00047340       _vq_lengthlist__44p0_p1_0  0000000180080340     libvorbisenc:vorbisenc.obj
 0002:00047710       _44c8_s_p9_2               0000000180080710     libvorbisenc:vorbisenc.obj
 0002:00047748       blocksize_16_long          0000000180080748     libvorbisenc:vorbisenc.obj
 0002:00047758       _16c1_s_p8_0               0000000180080758     libvorbisenc:vorbisenc.obj
 0002:00047790       _vq_lengthlist__44u3__p7_1 0000000180080790     libvorbisenc:vorbisenc.obj
 0002:00047b18       _44u6__p1_0                0000000180080b18     libvorbisenc:vorbisenc.obj
 0002:00047b50       _vq_lengthlist__44c9_s_p1_0 0000000180080b50     libvorbisenc:vorbisenc.obj
 0002:00047c98       _vq_quantlist__8c1_s_p5_0  0000000180080c98     libvorbisenc:vorbisenc.obj
 0002:00047cc0       _vq_lengthlist__16u1__p7_0 0000000180080cc0     libvorbisenc:vorbisenc.obj
 0002:00047e08       _44p4_l0_1                 0000000180080e08     libvorbisenc:vorbisenc.obj
 0002:00047e40       _vq_quantlist__44p9_p4_1   0000000180080e40     libvorbisenc:vorbisenc.obj
 0002:00047e58       _vq_quantlist__44c1_s_p3_0 0000000180080e58     libvorbisenc:vorbisenc.obj
 0002:00047e80       _vq_lengthlist__44cn1_sm_p5_0 0000000180080e80     libvorbisenc:vorbisenc.obj
 0002:00048308       _vq_quantlist__44pn1_p5_1  0000000180081308     libvorbisenc:vorbisenc.obj
 0002:00048318       _vq_quantlist__44c7_s_p7_0 0000000180081318     libvorbisenc:vorbisenc.obj
 0002:00048350       _psy_noisebias_trans       0000000180081350     libvorbisenc:vorbisenc.obj
 0002:00048ce0       _vq_lengthlist__44u9_p3_0  0000000180081ce0     libvorbisenc:vorbisenc.obj
 0002:00048e28       _44u7__p2_0                0000000180081e28     libvorbisenc:vorbisenc.obj
 0002:00048e60       _vq_lengthlist__44un1__p7_1 0000000180081e60     libvorbisenc:vorbisenc.obj
 0002:00049108       _vq_quantlist__44u0__p6_0  0000000180082108     libvorbisenc:vorbisenc.obj
 0002:00049140       _resbook_44p_2             0000000180082140     libvorbisenc:vorbisenc.obj
 0002:000492c0       _vq_lengthlist__44c3_s_p6_0 00000001800822c0     libvorbisenc:vorbisenc.obj
 0002:00049748       _vq_quantlist__44pn1_p4_0  0000000180082748     libvorbisenc:vorbisenc.obj
 0002:00049760       _huff_lengthlist__44c2_s_short 0000000180082760     libvorbisenc:vorbisenc.obj
 0002:000498f0       _vq_lengthlist__44u1__p7_2 00000001800828f0     libvorbisenc:vorbisenc.obj
 0002:00049b98       _44p5_p3_1                 0000000180082b98     libvorbisenc:vorbisenc.obj
 0002:00049bd0       _res_44p51_4               0000000180082bd0     libvorbisenc:vorbisenc.obj
 0002:00049c78       _huff_book_line_128x17_3sub2 0000000180082c78     libvorbisenc:vorbisenc.obj
 0002:00049cb0       _huff_lengthlist__44p2_short 0000000180082cb0     libvorbisenc:vorbisenc.obj
 0002:00049db0       _vq_lengthlist__44u5__p9_2 0000000180082db0     libvorbisenc:vorbisenc.obj
 0002:0004a238       _huff_book_line_256x4low_0sub0 0000000180083238     libvorbisenc:vorbisenc.obj
 0002:0004a270       _huff_lengthlist__44u0__short 0000000180083270     libvorbisenc:vorbisenc.obj
 0002:0004a370       _huff_book_line_2048x27_class1 0000000180083370     libvorbisenc:vorbisenc.obj
 0002:0004a3a8       _vq_lengthlist__44pn1_p4_1 00000001800833a8     libvorbisenc:vorbisenc.obj
 0002:0004a3c8       _44p2_p4_1                 00000001800833c8     libvorbisenc:vorbisenc.obj
 0002:0004a400       _huff_book_line_2048x27_1sub0 0000000180083400     libvorbisenc:vorbisenc.obj
 0002:0004a438       _vq_quantlist__44p2_p7_0   0000000180083438     libvorbisenc:vorbisenc.obj
 0002:0004a448       _44p9_l0_1                 0000000180083448     libvorbisenc:vorbisenc.obj
 0002:0004a480       _vq_quantlist__44c5_s_p7_0 0000000180083480     libvorbisenc:vorbisenc.obj
 0002:0004a490       _vq_quantlist__44p2_p3_1   0000000180083490     libvorbisenc:vorbisenc.obj
 0002:0004a4a0       _vq_quantlist__44u6__p1_0  00000001800834a0     libvorbisenc:vorbisenc.obj
 0002:0004a4b0       _44c1_s_p8_2               00000001800834b0     libvorbisenc:vorbisenc.obj
 0002:0004a4e8       _16u2_p5_0                 00000001800834e8     libvorbisenc:vorbisenc.obj
 0002:0004a520       _44p9_p7_3                 0000000180083520     libvorbisenc:vorbisenc.obj
 0002:0004a558       _8u0__p2_0                 0000000180083558     libvorbisenc:vorbisenc.obj
 0002:0004a590       _vq_lengthlist__44c1_s_p6_0 0000000180083590     libvorbisenc:vorbisenc.obj
 0002:0004a6d8       _huff_book__44p0_lfe       00000001800836d8     libvorbisenc:vorbisenc.obj
 0002:0004a710       _44c9_s_p6_1               0000000180083710     libvorbisenc:vorbisenc.obj
 0002:0004a748       _huff_book_line_128x4_0sub1 0000000180083748     libvorbisenc:vorbisenc.obj
 0002:0004a780       _vq_lengthlist__44c6_s_p5_0 0000000180083780     libvorbisenc:vorbisenc.obj
 0002:0004a8c8       _44p4_p7_1                 00000001800838c8     libvorbisenc:vorbisenc.obj
 0002:0004a900       _resbook_44sm_1            0000000180083900     libvorbisenc:vorbisenc.obj
 0002:0004aa80       _vq_lengthlist__44u7__p9_1 0000000180083a80     libvorbisenc:vorbisenc.obj
 0002:0004ad28       _vq_quantlist__44u7__p1_0  0000000180083d28     libvorbisenc:vorbisenc.obj
 0002:0004ad38       _44c4_s_p8_1               0000000180083d38     libvorbisenc:vorbisenc.obj
 0002:0004ad70       _huff_lengthlist_line_128x11_1sub1 0000000180083d70     libvorbisenc:vorbisenc.obj
 0002:0004af70       _vq_quantlist__44c8_s_p7_1 0000000180083f70     libvorbisenc:vorbisenc.obj
 0002:0004afa0       _vq_lengthlist__44c8_s_p4_0 0000000180083fa0     libvorbisenc:vorbisenc.obj
 0002:0004b428       _vq_quantlist__44u2__p4_0  0000000180084428     libvorbisenc:vorbisenc.obj
 0002:0004b440       _vq_lengthlist__44c1_s_p4_0 0000000180084440     libvorbisenc:vorbisenc.obj
 0002:0004b588       _huff_book__44cn1_s_long   0000000180084588     libvorbisenc:vorbisenc.obj
 0002:0004b5c0       _vq_lengthlist__44c5_s_p9_2 00000001800845c0     libvorbisenc:vorbisenc.obj
 0002:0004bca8       _huff_lengthlist__44p2_lfe 0000000180084ca8     libvorbisenc:vorbisenc.obj
 0002:0004bcb8       _huff_book_line_1024x27_4sub2 0000000180084cb8     libvorbisenc:vorbisenc.obj
 0002:0004bcf0       _vq_lengthlist__44u1__p3_0 0000000180084cf0     libvorbisenc:vorbisenc.obj
 0002:0004c6b8       _vq_quantlist__44p8_p6_0   00000001800856b8     libvorbisenc:vorbisenc.obj
 0002:0004c6c8       _huff_lengthlist_line_512x17_class1 00000001800856c8     libvorbisenc:vorbisenc.obj
 0002:0004c6e8       _vq_quantlist__44p2_p5_0   00000001800856e8     libvorbisenc:vorbisenc.obj
 0002:0004c700       _huff_lengthlist__44p2_long 0000000180085700     libvorbisenc:vorbisenc.obj
 0002:0004c800       _noise_part_long_44        0000000180085800     libvorbisenc:vorbisenc.obj
 0002:0004c830       _huff_lengthlist_line_256x4low_class0 0000000180085830     libvorbisenc:vorbisenc.obj
 0002:0004cc30       _vq_lengthlist__44u7__p3_0 0000000180085c30     libvorbisenc:vorbisenc.obj
 0002:0004d5f8       _vq_quantlist__44c2_s_p7_0 00000001800865f8     libvorbisenc:vorbisenc.obj
 0002:0004d608       _vq_quantlist__16u1__p3_0  0000000180086608     libvorbisenc:vorbisenc.obj
 0002:0004d620       _vq_quantlist__16u2_p9_2   0000000180086620     libvorbisenc:vorbisenc.obj
 0002:0004d6e8       _huff_book_line_128x17_2sub1 00000001800866e8     libvorbisenc:vorbisenc.obj
 0002:0004d720       _huff_lengthlist__44p8_short 0000000180086720     libvorbisenc:vorbisenc.obj
 0002:0004d820       _44u0__p7_0                0000000180086820     libvorbisenc:vorbisenc.obj
 0002:0004d858       _vq_lengthlist__44p2_l1_0  0000000180086858     libvorbisenc:vorbisenc.obj
 0002:0004d880       _vq_lengthlist__44u6__p8_1 0000000180086880     libvorbisenc:vorbisenc.obj
 0002:0004da68       _44c5_s_p9_1               0000000180086a68     libvorbisenc:vorbisenc.obj
 0002:0004daa0       _huff_lengthlist__44c7_s_short 0000000180086aa0     libvorbisenc:vorbisenc.obj
 0002:0004dc30       _vq_quantlist__44p0_p5_1   0000000180086c30     libvorbisenc:vorbisenc.obj
 0002:0004dc40       _vq_lengthlist__44p0_l1_0  0000000180086c40     libvorbisenc:vorbisenc.obj
 0002:0004dc68       _huff_book_line_128x11_2sub2 0000000180086c68     libvorbisenc:vorbisenc.obj
 0002:0004dca0       _vq_quantlist__44u4__p7_2  0000000180086ca0     libvorbisenc:vorbisenc.obj
 0002:0004dce8       _44pn1_p2_1                0000000180086ce8     libvorbisenc:vorbisenc.obj
 0002:0004dd20       _vq_lengthlist__44p3_p5_0  0000000180086d20     libvorbisenc:vorbisenc.obj
 0002:00050df8       _44p8_p2_0                 0000000180089df8     libvorbisenc:vorbisenc.obj
 0002:00050e30       _vq_lengthlist__44p0_p5_1  0000000180089e30     libvorbisenc:vorbisenc.obj
 0002:00051200       _vq_lengthlist__44p6_l0_0  000000018008a200     libvorbisenc:vorbisenc.obj
 0002:000514a8       _8u0__p1_0                 000000018008a4a8     libvorbisenc:vorbisenc.obj
 0002:000514e0       _vq_lengthlist__44u4__p3_0 000000018008a4e0     libvorbisenc:vorbisenc.obj
 0002:00051ea8       _44p6_l1_0                 000000018008aea8     libvorbisenc:vorbisenc.obj
 0002:00051ee0       _vq_lengthlist__44c1_s_p2_0 000000018008aee0     libvorbisenc:vorbisenc.obj
 0002:000528a8       _8u1__p8_0                 000000018008b8a8     libvorbisenc:vorbisenc.obj
 0002:000528e0       _resbook_44p_1             000000018008b8e0     libvorbisenc:vorbisenc.obj
 0002:00052a60       _vq_lengthlist__44p7_p5_0  000000018008ba60     libvorbisenc:vorbisenc.obj
 0002:00055b38       _vq_quantlist__44u9_p5_1   000000018008eb38     libvorbisenc:vorbisenc.obj
 0002:00055b68       _vq_quantlist__44p8_p7_0   000000018008eb68     libvorbisenc:vorbisenc.obj
 0002:00055b78       _44c6_s_p1_0               000000018008eb78     libvorbisenc:vorbisenc.obj
 0002:00055bb0       _huff_lengthlist_line_128x11_2sub1 000000018008ebb0     libvorbisenc:vorbisenc.obj
 0002:00055bf8       _huff_book__44p6_long      000000018008ebf8     libvorbisenc:vorbisenc.obj
 0002:00055c30       _vq_lengthlist__44u1__p6_0 000000018008ec30     libvorbisenc:vorbisenc.obj
 0002:00055ed8       _44c6_s_p9_0               000000018008eed8     libvorbisenc:vorbisenc.obj
 0002:00055f10       _huff_lengthlist__44c7_s_long 000000018008ef10     libvorbisenc:vorbisenc.obj
 0002:000560a0       _huff_lengthlist_line_128x11_1sub0 000000018008f0a0     libvorbisenc:vorbisenc.obj
 0002:00056120       _vq_lengthlist__16u2_p6_1  000000018008f120     libvorbisenc:vorbisenc.obj
 0002:00056188       _huff_book__44u0__long     000000018008f188     libvorbisenc:vorbisenc.obj
 0002:000561c0       _8u0__p6_0                 000000018008f1c0     libvorbisenc:vorbisenc.obj
 0002:000561f8       _vq_quantlist__44p4_l0_1   000000018008f1f8     libvorbisenc:vorbisenc.obj
 0002:00056210       _vq_quantlist__44c2_s_p8_0 000000018008f210     libvorbisenc:vorbisenc.obj
 0002:00056248       _16u1__p1_0                000000018008f248     libvorbisenc:vorbisenc.obj
 0002:00056280       _vq_quantlist__16u0__p7_2  000000018008f280     libvorbisenc:vorbisenc.obj
 0002:000562d8       _vq_quantlist__44p7_l1_0   000000018008f2d8     libvorbisenc:vorbisenc.obj
 0002:000562f0       _vq_lengthlist__44c7_s_p1_0 000000018008f2f0     libvorbisenc:vorbisenc.obj
 0002:00056438       _44pn1_l0_1                000000018008f438     libvorbisenc:vorbisenc.obj
 0002:00056470       _huff_lengthlist_line_2048x27_1sub0 000000018008f470     libvorbisenc:vorbisenc.obj
 0002:000564f0       _resbook_44p_3             000000018008f4f0     libvorbisenc:vorbisenc.obj
 0002:00056670       _noise_start_long_44       000000018008f670     libvorbisenc:vorbisenc.obj
 0002:000566a0       _vq_quantlist__44p1_p6_1   000000018008f6a0     libvorbisenc:vorbisenc.obj
 0002:00056708       _vq_quantlist__44p6_l0_1   000000018008f708     libvorbisenc:vorbisenc.obj
 0002:00056720       _vq_quantlist__44cn1_sm_p7_1 000000018008f720     libvorbisenc:vorbisenc.obj
 0002:00056738       _vq_quantlist__44p6_p5_1   000000018008f738     libvorbisenc:vorbisenc.obj
 0002:00056758       _vq_quantlist__44c3_s_p1_0 000000018008f758     libvorbisenc:vorbisenc.obj
 0002:00056768       _44c8_s_p5_0               000000018008f768     libvorbisenc:vorbisenc.obj
 0002:000567a0       _vq_lengthlist__44p6_p7_0  000000018008f7a0     libvorbisenc:vorbisenc.obj
 0002:00056b70       _huff_lengthlist__44p8_lfe 000000018008fb70     libvorbisenc:vorbisenc.obj
 0002:00056b80       _44u6__p8_0                000000018008fb80     libvorbisenc:vorbisenc.obj
 0002:00056bb8       _vq_quantlist__16c2_s_p1_0 000000018008fbb8     libvorbisenc:vorbisenc.obj
 0002:00056bc8       _huff_book_line_1024x27_1sub0 000000018008fbc8     libvorbisenc:vorbisenc.obj
 0002:00056c00       _vq_lengthlist__44c5_s_p9_0 000000018008fc00     libvorbisenc:vorbisenc.obj
 0002:00056f88       _44p2_p5_0                 000000018008ff88     libvorbisenc:vorbisenc.obj
 0002:00056fc0       _vq_lengthlist__44c9_s_p7_1 000000018008ffc0     libvorbisenc:vorbisenc.obj
 0002:000571a8       _vq_quantlist__44p3_l0_1   00000001800901a8     libvorbisenc:vorbisenc.obj
 0002:000571c0       _vq_lengthlist__44u8_p7_0  00000001800901c0     libvorbisenc:vorbisenc.obj
 0002:00057468       _16c1_s_p4_0               0000000180090468     libvorbisenc:vorbisenc.obj
 0002:000574a0       _vq_lengthlist__16u1__p1_0 00000001800904a0     libvorbisenc:vorbisenc.obj
 0002:000575e8       _vq_quantlist__44u2__p1_0  00000001800905e8     libvorbisenc:vorbisenc.obj
 0002:000575f8       _vq_quantlist__44u6__p9_1  00000001800905f8     libvorbisenc:vorbisenc.obj
 0002:00057638       _44u2__p7_2                0000000180090638     libvorbisenc:vorbisenc.obj
 0002:00057670       _resbook_44p_l5            0000000180090670     libvorbisenc:vorbisenc.obj
 0002:000577f0       _44u5__p5_0                00000001800907f0     libvorbisenc:vorbisenc.obj
 0002:00057828       _vq_quantlist__44cn1_sm_p8_0 0000000180090828     libvorbisenc:vorbisenc.obj
 0002:00057850       _vq_lengthlist__44u9_p1_0  0000000180090850     libvorbisenc:vorbisenc.obj
 0002:00057998       _vq_quantlist__44c9_s_p6_0 0000000180090998     libvorbisenc:vorbisenc.obj
 0002:000579d0       _vq_lengthlist__44u6__p9_2 00000001800909d0     libvorbisenc:vorbisenc.obj
 0002:00057e58       _huff_book_line_2048x27_4sub2 0000000180090e58     libvorbisenc:vorbisenc.obj
 0002:00057e90       _vq_lengthlist__44c2_s_p7_0 0000000180090e90     libvorbisenc:vorbisenc.obj
 0002:00057fd8       _44u3__p6_1                0000000180090fd8     libvorbisenc:vorbisenc.obj
 0002:00058010       _vq_lengthlist__44u7__p8_0 0000000180091010     libvorbisenc:vorbisenc.obj
 0002:000581f8       _huff_book_line_256x4low_0sub2 00000001800911f8     libvorbisenc:vorbisenc.obj
 0002:00058230       _vq_lengthlist__44c7_s_p2_0 0000000180091230     libvorbisenc:vorbisenc.obj
 0002:00058bf8       _vq_quantlist__44u3__p3_0  0000000180091bf8     libvorbisenc:vorbisenc.obj
 0002:00058c10       _vq_lengthlist__44c9_s_p3_0 0000000180091c10     libvorbisenc:vorbisenc.obj
 0002:00058d58       _vq_quantlist__44c5_s_p9_0 0000000180091d58     libvorbisenc:vorbisenc.obj
 0002:00058d98       _44c7_s_p6_1               0000000180091d98     libvorbisenc:vorbisenc.obj
 0002:00058dd0       _vq_lengthlist__44p1_l0_0  0000000180091dd0     libvorbisenc:vorbisenc.obj
 0002:00059078       _huff_book__44u8__short    0000000180092078     libvorbisenc:vorbisenc.obj
 0002:000590b0       ve_setup_16_uncoupled      00000001800920b0     libvorbisenc:vorbisenc.obj
 0002:000591e0       _vq_lengthlist__44c4_s_p4_0 00000001800921e0     libvorbisenc:vorbisenc.obj
 0002:00059328       _vq_quantlist__16u2_p5_1   0000000180092328     libvorbisenc:vorbisenc.obj
 0002:00059358       _44c0_sm_p3_0              0000000180092358     libvorbisenc:vorbisenc.obj
 0002:00059390       _vq_lengthlist__44c6_s_p9_2 0000000180092390     libvorbisenc:vorbisenc.obj
 0002:00059458       _8c1_s_p5_0                0000000180092458     libvorbisenc:vorbisenc.obj
 0002:00059490       _vq_lengthlist__8c0_s_p9_2 0000000180092490     libvorbisenc:vorbisenc.obj
 0002:00059b78       _vq_quantlist__44p2_p6_0   0000000180092b78     libvorbisenc:vorbisenc.obj
 0002:00059b88       _8c0_s_p4_0                0000000180092b88     libvorbisenc:vorbisenc.obj
 0002:00059bc0       _resbook_44p_l0            0000000180092bc0     libvorbisenc:vorbisenc.obj
 0002:00059d40       _vq_quantlist__44cn1_s_p1_0 0000000180092d40     libvorbisenc:vorbisenc.obj
 0002:00059d50       _vq_lengthlist__44p6_p6_0  0000000180092d50     libvorbisenc:vorbisenc.obj
 0002:0005a120       _vq_quantlist__44p4_p7_2   0000000180093120     libvorbisenc:vorbisenc.obj
 0002:0005a188       _huff_book__44u3__short    0000000180093188     libvorbisenc:vorbisenc.obj
 0002:0005a1c0       _res_44p51_0               00000001800931c0     libvorbisenc:vorbisenc.obj
 0002:0005a268       _44p9_p4_0                 0000000180093268     libvorbisenc:vorbisenc.obj
 0002:0005a2a0       _huff_lengthlist__8u0__single 00000001800932a0     libvorbisenc:vorbisenc.obj
 0002:0005a3a0       _vq_quantlist__44u8_p1_0   00000001800933a0     libvorbisenc:vorbisenc.obj
 0002:0005a3b0       _vq_quantlist__44pn1_p5_0  00000001800933b0     libvorbisenc:vorbisenc.obj
 0002:0005a3c0       _residue_44_mid_un         00000001800933c0     libvorbisenc:vorbisenc.obj
 0002:0005aed8       _44c5_s_p3_0               0000000180093ed8     libvorbisenc:vorbisenc.obj
 0002:0005af10       ve_setup_32_stereo         0000000180093f10     libvorbisenc:vorbisenc.obj
 0002:0005b040       _resbook_44s_3             0000000180094040     libvorbisenc:vorbisenc.obj
 0002:0005b1c0       _vq_lengthlist__44p7_p7_1  00000001800941c0     libvorbisenc:vorbisenc.obj
 0002:0005b590       _vq_lengthlist__44p7_p2_0  0000000180094590     libvorbisenc:vorbisenc.obj
 0002:0005e668       _44p5_p3_0                 0000000180097668     libvorbisenc:vorbisenc.obj
 0002:0005e6a0       _vq_lengthlist__44c1_s_p8_2 00000001800976a0     libvorbisenc:vorbisenc.obj
 0002:0005eb28       _huff_book__44p5_short     0000000180097b28     libvorbisenc:vorbisenc.obj
 0002:0005eb60       _vq_lengthlist__44c3_s_p9_2 0000000180097b60     libvorbisenc:vorbisenc.obj
 0002:0005efe8       _huff_book__44p0_long      0000000180097fe8     libvorbisenc:vorbisenc.obj
 0002:0005f020       _huff_lengthlist__44u1__long 0000000180098020     libvorbisenc:vorbisenc.obj
 0002:0005f120       _noise_thresh_44           0000000180098120     libvorbisenc:vorbisenc.obj
 0002:0005f178       _vq_lengthlist__44p1_p4_1  0000000180098178     libvorbisenc:vorbisenc.obj
 0002:0005f198       _vq_quantlist__44u7__p8_0  0000000180098198     libvorbisenc:vorbisenc.obj
 0002:0005f1c8       _8c0_s_p6_0                00000001800981c8     libvorbisenc:vorbisenc.obj
 0002:0005f200       _vp_tonemask_adj_11        0000000180098200     libvorbisenc:vorbisenc.obj
 0002:0005f2d0       _vq_lengthlist__8u0__p1_0  00000001800982d0     libvorbisenc:vorbisenc.obj
 0002:0005f418       _mapres_template_8_stereo  0000000180098418     libvorbisenc:vorbisenc.obj
 0002:0005f438       _44p8_p3_0                 0000000180098438     libvorbisenc:vorbisenc.obj
 0002:0005f470       _vq_lengthlist__44c8_s_p1_0 0000000180098470     libvorbisenc:vorbisenc.obj
 0002:0005f5b8       _vq_quantlist__16c0_s_p7_0 00000001800985b8     libvorbisenc:vorbisenc.obj
 0002:0005f5c8       _vq_quantlist__44p3_p1_0   00000001800985c8     libvorbisenc:vorbisenc.obj
 0002:0005f5d8       _vq_quantlist__8u0__p1_0   00000001800985d8     libvorbisenc:vorbisenc.obj
 0002:0005f5e8       _16u2_p5_1                 00000001800985e8     libvorbisenc:vorbisenc.obj
 0002:0005f620       _psy_compand_8             0000000180098620     libvorbisenc:vorbisenc.obj
 0002:0005f760       _vq_lengthlist__44c3_s_p9_0 0000000180098760     libvorbisenc:vorbisenc.obj
 0002:0005fa08       _vq_quantlist__44p7_p5_1   0000000180098a08     libvorbisenc:vorbisenc.obj
 0002:0005fa28       _vq_quantlist__44un1__p7_0 0000000180098a28     libvorbisenc:vorbisenc.obj
 0002:0005fa40       _vq_lengthlist__44p8_p4_1  0000000180098a40     libvorbisenc:vorbisenc.obj
 0002:00062b18       _vq_quantlist__44p8_p1_0   000000018009bb18     libvorbisenc:vorbisenc.obj
 0002:00062b28       _44p4_p6_0                 000000018009bb28     libvorbisenc:vorbisenc.obj
 0002:00062b60       _vq_quantlist__44u4__p2_0  000000018009bb60     libvorbisenc:vorbisenc.obj
 0002:00062b70       _44u2__p7_1                000000018009bb70     libvorbisenc:vorbisenc.obj
 0002:00062ba8       _16u1__p2_0                000000018009bba8     libvorbisenc:vorbisenc.obj
 0002:00062be0       _vq_lengthlist__16u1__p6_0 000000018009bbe0     libvorbisenc:vorbisenc.obj
 0002:00062d28       _44p5_p7_1                 000000018009bd28     libvorbisenc:vorbisenc.obj
 0002:00062d60       _vq_quantlist__44p8_p7_2   000000018009bd60     libvorbisenc:vorbisenc.obj
 0002:00062dc8       _44p2_p4_0                 000000018009bdc8     libvorbisenc:vorbisenc.obj
 0002:00062e00       _res_44p51_1               000000018009be00     libvorbisenc:vorbisenc.obj
 0002:00062ea8       _vq_quantlist__44cn1_sm_p6_0 000000018009bea8     libvorbisenc:vorbisenc.obj
 0002:00062eb8       _vq_quantlist__16c2_s_p7_1 000000018009beb8     libvorbisenc:vorbisenc.obj
 0002:00062ee8       _vq_quantlist__44c1_s_p8_1 000000018009bee8     libvorbisenc:vorbisenc.obj
 0002:00062f20       _vq_lengthlist__44c6_s_p7_1 000000018009bf20     libvorbisenc:vorbisenc.obj
 0002:00063108       _44p7_p2_0                 000000018009c108     libvorbisenc:vorbisenc.obj
 0002:00063140       _vq_lengthlist__44c8_s_p9_2 000000018009c140     libvorbisenc:vorbisenc.obj
 0002:00063208       _vq_quantlist__44u1__p4_0  000000018009c208     libvorbisenc:vorbisenc.obj
 0002:00063220       _vq_quantlist__16c2_s_p8_1 000000018009c220     libvorbisenc:vorbisenc.obj
 0002:00063278       _huff_book_line_1024x27_3sub3 000000018009c278     libvorbisenc:vorbisenc.obj
 0002:000632b0       _vq_quantlist__44c2_s_p9_2 000000018009c2b0     libvorbisenc:vorbisenc.obj
 0002:000632f8       _vq_quantlist__44c1_sm_p6_0 000000018009c2f8     libvorbisenc:vorbisenc.obj
 0002:00063308       _vq_quantlist__8c0_s_p4_0  000000018009c308     libvorbisenc:vorbisenc.obj
 0002:00063330       _vq_lengthlist__16u1__p8_0 000000018009c330     libvorbisenc:vorbisenc.obj
 0002:00063518       _vq_quantlist__44p0_p2_0   000000018009c518     libvorbisenc:vorbisenc.obj
 0002:00063528       _noise_thresh_5only        000000018009c528     libvorbisenc:vorbisenc.obj
 0002:00063538       _vq_quantlist__44p7_l0_0   000000018009c538     libvorbisenc:vorbisenc.obj
 0002:00063570       _vq_lengthlist__44p8_p1_0  000000018009c570     libvorbisenc:vorbisenc.obj
 0002:00063940       _vq_lengthlist__16u2_p9_2  000000018009c940     libvorbisenc:vorbisenc.obj
 0002:00063a08       _44c2_s_p7_0               000000018009ca08     libvorbisenc:vorbisenc.obj
 0002:00063a40       _vq_lengthlist__44p1_p6_0  000000018009ca40     libvorbisenc:vorbisenc.obj
 0002:00063e10       _vq_quantlist__44c3_s_p7_1 000000018009ce10     libvorbisenc:vorbisenc.obj
 0002:00063e40       _44u4__p5_0                000000018009ce40     libvorbisenc:vorbisenc.obj
 0002:00063e78       _vq_quantlist__44u1__p7_1  000000018009ce78     libvorbisenc:vorbisenc.obj
 0002:00063eb0       _vq_lengthlist__44c0_s_p7_1 000000018009ceb0     libvorbisenc:vorbisenc.obj
 0002:00063f18       _huff_lengthlist_line_128x4_0sub1 000000018009cf18     libvorbisenc:vorbisenc.obj
 0002:00063f40       _psy_noise_suppress        000000018009cf40     libvorbisenc:vorbisenc.obj
 0002:00063f70       _44p6_p3_0                 000000018009cf70     libvorbisenc:vorbisenc.obj
 0002:00063fa8       _vq_quantlist__16c1_s_p9_0 000000018009cfa8     libvorbisenc:vorbisenc.obj
 0002:00063fe0       _vq_lengthlist__44c2_s_p1_0 000000018009cfe0     libvorbisenc:vorbisenc.obj
 0002:0006a668       _44p9_p3_0                 00000001800a3668     libvorbisenc:vorbisenc.obj
 0002:0006a6a0       _44p8_p4_1                 00000001800a36a0     libvorbisenc:vorbisenc.obj
 0002:0006a6d8       _16u0__p2_0                00000001800a36d8     libvorbisenc:vorbisenc.obj
 0002:0006a710       _vq_lengthlist__16u0__p7_0 00000001800a3710     libvorbisenc:vorbisenc.obj
 0002:0006a858       _huff_lengthlist_line_1024x27_class2 00000001800a3858     libvorbisenc:vorbisenc.obj
 0002:0006a878       _44c0_s_p8_1               00000001800a3878     libvorbisenc:vorbisenc.obj
 0002:0006a8b0       _vq_lengthlist__8u0__p5_0  00000001800a38b0     libvorbisenc:vorbisenc.obj
 0002:0006a9f8       _huff_lengthlist_line_128x11_class1 00000001800a39f8     libvorbisenc:vorbisenc.obj
 0002:0006aa18       rate_mapping_11            00000001800a3a18     libvorbisenc:vorbisenc.obj
 0002:0006aa30       _vq_lengthlist__16u0__p6_1 00000001800a3a30     libvorbisenc:vorbisenc.obj
 0002:0006aa98       _vq_quantlist__44un1__p6_1 00000001800a3a98     libvorbisenc:vorbisenc.obj
 0002:0006aab0       _vq_lengthlist__44c8_s_p7_1 00000001800a3ab0     libvorbisenc:vorbisenc.obj
 0002:0006ac98       _vq_lengthlist__44p4_l1_0  00000001800a3c98     libvorbisenc:vorbisenc.obj
 0002:0006acc0       _vq_quantlist__44u8_p8_1   00000001800a3cc0     libvorbisenc:vorbisenc.obj
 0002:0006ad18       _44u5__p9_2                00000001800a3d18     libvorbisenc:vorbisenc.obj
 0002:0006ad50       _vq_lengthlist__44p4_p7_3  00000001800a3d50     libvorbisenc:vorbisenc.obj
 0002:0006adb8       _44u3__p1_0                00000001800a3db8     libvorbisenc:vorbisenc.obj
 0002:0006adf0       _vq_lengthlist__8u1__p2_0  00000001800a3df0     libvorbisenc:vorbisenc.obj
 0002:0006af38       _44c5_s_p9_2               00000001800a3f38     libvorbisenc:vorbisenc.obj
 0002:0006af70       _vq_lengthlist__44p3_p7_2  00000001800a3f70     libvorbisenc:vorbisenc.obj
 0002:0006afd8       _vq_quantlist__44p1_p6_0   00000001800a3fd8     libvorbisenc:vorbisenc.obj
 0002:0006afe8       _vq_quantlist__44c6_s_p5_1 00000001800a3fe8     libvorbisenc:vorbisenc.obj
 0002:0006b018       _vq_quantlist__44c0_sm_p6_1 00000001800a4018     libvorbisenc:vorbisenc.obj
 0002:0006b048       _44cn1_s_p6_1              00000001800a4048     libvorbisenc:vorbisenc.obj
 0002:0006b080       _vq_quantlist__44c4_s_p2_0 00000001800a4080     libvorbisenc:vorbisenc.obj
 0002:0006b098       _16u1__p9_0                00000001800a4098     libvorbisenc:vorbisenc.obj
 0002:0006b0d0       _vq_lengthlist__44p2_p7_1  00000001800a40d0     libvorbisenc:vorbisenc.obj
 0002:0006b4a0       _vq_quantlist__44c4_s_p8_0 00000001800a44a0     libvorbisenc:vorbisenc.obj
 0002:0006b4d8       _44u9_p2_0                 00000001800a44d8     libvorbisenc:vorbisenc.obj
 0002:0006b510       _vq_lengthlist__44c9_s_p6_0 00000001800a4510     libvorbisenc:vorbisenc.obj
 0002:0006b7b8       _44p1_l0_1                 00000001800a47b8     libvorbisenc:vorbisenc.obj
 0002:0006b7f0       _huff_lengthlist_line_256x4_0sub3 00000001800a47f0     libvorbisenc:vorbisenc.obj
 0002:0006b8f0       _vq_quantlist__44c0_s_p8_2 00000001800a48f0     libvorbisenc:vorbisenc.obj
 0002:0006b938       _vq_quantlist__44cn1_sm_p7_0 00000001800a4938     libvorbisenc:vorbisenc.obj
 0002:0006b970       _huff_book__44u6__short    00000001800a4970     libvorbisenc:vorbisenc.obj
 0002:0006b9a8       _44p3_p4_1                 00000001800a49a8     libvorbisenc:vorbisenc.obj
 0002:0006b9e0       _vq_lengthlist__44u1__p1_0 00000001800a49e0     libvorbisenc:vorbisenc.obj
 0002:0006bb28       _44c7_s_p1_0               00000001800a4b28     libvorbisenc:vorbisenc.obj
 0002:0006bb60       _44u9_p9_0                 00000001800a4b60     libvorbisenc:vorbisenc.obj
 0002:0006bb98       _44u6__p9_0                00000001800a4b98     libvorbisenc:vorbisenc.obj
 0002:0006bbd0       _resbook_44s_2             00000001800a4bd0     libvorbisenc:vorbisenc.obj
 0002:0006bd50       _44c1_sm_p1_0              00000001800a4d50     libvorbisenc:vorbisenc.obj
 0002:0006bd88       rate_mapping_8_uncoupled   00000001800a4d88     libvorbisenc:vorbisenc.obj
 0002:0006bda0       _res_44u_3                 00000001800a4da0     libvorbisenc:vorbisenc.obj
 0002:0006be10       blocksize_short_44         00000001800a4e10     libvorbisenc:vorbisenc.obj
 0002:0006be40       _vq_quantlist__16c2_s_p8_0 00000001800a4e40     libvorbisenc:vorbisenc.obj
 0002:0006be80       _vq_lengthlist__16u1__p8_1 00000001800a4e80     libvorbisenc:vorbisenc.obj
 0002:0006c068       _huff_book__44p2_short     00000001800a5068     libvorbisenc:vorbisenc.obj
 0002:0006c0a0       _huff_lengthlist_line_128x7_0sub3 00000001800a50a0     libvorbisenc:vorbisenc.obj
 0002:0006c1a0       _vq_lengthlist__44c1_sm_p7_0 00000001800a51a0     libvorbisenc:vorbisenc.obj
 0002:0006c448       _huff_book_line_2048x27_2sub0 00000001800a5448     libvorbisenc:vorbisenc.obj
 0002:0006c480       _vq_lengthlist__44c4_s_p8_1 00000001800a5480     libvorbisenc:vorbisenc.obj
 0002:0006c4e8       _44u8_p1_0                 00000001800a54e8     libvorbisenc:vorbisenc.obj
 0002:0006c520       _vq_quantlist__44c1_sm_p5_0 00000001800a5520     libvorbisenc:vorbisenc.obj
 0002:0006c568       _16c2_s_p9_1               00000001800a5568     libvorbisenc:vorbisenc.obj
 0002:0006c5a0       _vq_lengthlist__16u2_p3_0  00000001800a55a0     libvorbisenc:vorbisenc.obj
 0002:0006c6e8       _vq_quantlist__44u9_p1_0   00000001800a56e8     libvorbisenc:vorbisenc.obj
 0002:0006c6f8       _huff_book__44u3__long     00000001800a56f8     libvorbisenc:vorbisenc.obj
 0002:0006c730       _resbook_44u_5             00000001800a5730     libvorbisenc:vorbisenc.obj
 0002:0006c8b0       _psy_noisebias_padding     00000001800a58b0     libvorbisenc:vorbisenc.obj
 0002:0006d240       _vq_lengthlist__44c8_s_p5_0 00000001800a6240     libvorbisenc:vorbisenc.obj
 0002:0006d388       _44p1_p4_1                 00000001800a6388     libvorbisenc:vorbisenc.obj
 0002:0006d3c0       _vq_lengthlist__8u1__p7_0  00000001800a63c0     libvorbisenc:vorbisenc.obj
 0002:0006d508       _16u2_p3_0                 00000001800a6508     libvorbisenc:vorbisenc.obj
 0002:0006d540       _44u2__p3_0                00000001800a6540     libvorbisenc:vorbisenc.obj
 0002:0006d578       _huff_book_line_1024x27_0sub0 00000001800a6578     libvorbisenc:vorbisenc.obj
 0002:0006d5b0       _vq_lengthlist__16u0__p4_0 00000001800a65b0     libvorbisenc:vorbisenc.obj
 0002:0006df78       _vq_quantlist__44c9_s_p5_0 00000001800a6f78     libvorbisenc:vorbisenc.obj
 0002:0006df88       _8u0__p3_0                 00000001800a6f88     libvorbisenc:vorbisenc.obj
 0002:0006dfc0       _vq_quantlist__16c2_s_p4_0 00000001800a6fc0     libvorbisenc:vorbisenc.obj
 0002:0006e008       _floor_mapping_44b         00000001800a7008     libvorbisenc:vorbisenc.obj
 0002:0006e038       _vq_quantlist__44p4_p5_0   00000001800a7038     libvorbisenc:vorbisenc.obj
 0002:0006e050       _vq_lengthlist__44un1__p7_2 00000001800a7050     libvorbisenc:vorbisenc.obj
 0002:0006e2f8       _44p1_p4_0                 00000001800a72f8     libvorbisenc:vorbisenc.obj
 0002:0006e330       _vq_lengthlist__44cn1_sm_p1_0 00000001800a7330     libvorbisenc:vorbisenc.obj
 0002:000749b8       _44c0_sm_p1_0              00000001800ad9b8     libvorbisenc:vorbisenc.obj
 0002:000749f0       _huff_lengthlist__44c6_s_long 00000001800ad9f0     libvorbisenc:vorbisenc.obj
 0002:00074b80       _vq_lengthlist__44p2_p6_1  00000001800adb80     libvorbisenc:vorbisenc.obj
 0002:00074f50       _huff_lengthlist__44pn1_short 00000001800adf50     libvorbisenc:vorbisenc.obj
 0002:00075018       _44p0_p1_0                 00000001800ae018     libvorbisenc:vorbisenc.obj
 0002:00075050       _vq_quantlist__44p2_p7_3   00000001800ae050     libvorbisenc:vorbisenc.obj
 0002:000750b8       _vq_quantlist__44u9_p9_0   00000001800ae0b8     libvorbisenc:vorbisenc.obj
 0002:000750f8       _huff_lengthlist_line_256x7_1sub1 00000001800ae0f8     libvorbisenc:vorbisenc.obj
 0002:00075120       _vq_lengthlist__8c0_s_p1_0 00000001800ae120     libvorbisenc:vorbisenc.obj
 0002:0007b7a8       _vq_quantlist__44u4__p6_0  00000001800b47a8     libvorbisenc:vorbisenc.obj
 0002:0007b7e0       _vq_lengthlist__44p6_p3_0  00000001800b47e0     libvorbisenc:vorbisenc.obj
 0002:0007bbb0       _vq_quantlist__8u1__p8_0   00000001800b4bb0     libvorbisenc:vorbisenc.obj
 0002:0007bbe0       _res_16s_2                 00000001800b4be0     libvorbisenc:vorbisenc.obj
 0002:0007bc50       _44p0_p3_1                 00000001800b4c50     libvorbisenc:vorbisenc.obj
 0002:0007bc88       _44p3_p2_0                 00000001800b4c88     libvorbisenc:vorbisenc.obj
 0002:0007bcc0       _44u2__p4_0                00000001800b4cc0     libvorbisenc:vorbisenc.obj
 0002:0007bcf8       _huff_book_line_256x4low_0sub1 00000001800b4cf8     libvorbisenc:vorbisenc.obj
 0002:0007bd30       _44c0_sm_p8_2              00000001800b4d30     libvorbisenc:vorbisenc.obj
 0002:0007bd68       _44p9_p5_1                 00000001800b4d68     libvorbisenc:vorbisenc.obj
 0002:0007bda0       _vq_quantlist__44u8_p8_0   00000001800b4da0     libvorbisenc:vorbisenc.obj
 0002:0007bde0       _vq_lengthlist__44u5__p3_0 00000001800b4de0     libvorbisenc:vorbisenc.obj
 0002:0007c7a8       _vq_quantlist__16u0__p6_0  00000001800b57a8     libvorbisenc:vorbisenc.obj
 0002:0007c7e0       _vq_quantlist__44c1_s_p1_0 00000001800b57e0     libvorbisenc:vorbisenc.obj
 0002:0007c7f0       _vq_lengthlist__16c0_s_p1_0 00000001800b57f0     libvorbisenc:vorbisenc.obj
 0002:00082e78       _44cn1_s_p8_0              00000001800bbe78     libvorbisenc:vorbisenc.obj
 0002:00082eb0       _44c0_s_p6_1               00000001800bbeb0     libvorbisenc:vorbisenc.obj
 0002:00082ee8       _44p1_p6_1                 00000001800bbee8     libvorbisenc:vorbisenc.obj
 0002:00082f20       _psy_noisebias_16_short    00000001800bbf20     libvorbisenc:vorbisenc.obj
 0002:00083250       _44u7__p8_1                00000001800bc250     libvorbisenc:vorbisenc.obj
 0002:00083288       _vq_quantlist__44c2_s_p7_1 00000001800bc288     libvorbisenc:vorbisenc.obj
 0002:000832b8       _huff_book_line_512x17_0sub0 00000001800bc2b8     libvorbisenc:vorbisenc.obj
 0002:000832f0       _vq_lengthlist__16u2_p4_0  00000001800bc2f0     libvorbisenc:vorbisenc.obj
 0002:00083778       _vq_quantlist__44c1_s_p4_0 00000001800bc778     libvorbisenc:vorbisenc.obj
 0002:000837a0       _vq_lengthlist__44c3_s_p8_1 00000001800bc7a0     libvorbisenc:vorbisenc.obj
 0002:00083808       _vq_quantlist__44u7__p7_0  00000001800bc808     libvorbisenc:vorbisenc.obj
 0002:00083818       _44u2__p6_0                00000001800bc818     libvorbisenc:vorbisenc.obj
 0002:00083850       ve_setup_8_uncoupled       00000001800bc850     libvorbisenc:vorbisenc.obj
 0002:00083980       _huff_book__44c2_s_short   00000001800bc980     libvorbisenc:vorbisenc.obj
 0002:000839b8       _huff_book__44u7__long     00000001800bc9b8     libvorbisenc:vorbisenc.obj
 0002:000839f0       _vq_quantlist__44p8_l1_0   00000001800bc9f0     libvorbisenc:vorbisenc.obj
 0002:00083a08       _vq_quantlist__44p9_p5_0   00000001800bca08     libvorbisenc:vorbisenc.obj
 0002:00083a20       _vq_lengthlist__44p5_l0_1  00000001800bca20     libvorbisenc:vorbisenc.obj
 0002:00083a88       _vq_quantlist__44c0_sm_p6_0 00000001800bca88     libvorbisenc:vorbisenc.obj
 0002:00083a98       _44p7_p7_2                 00000001800bca98     libvorbisenc:vorbisenc.obj
 0002:00083ad0       _vq_lengthlist__16u1__p7_1 00000001800bcad0     libvorbisenc:vorbisenc.obj
 0002:00083cb8       _huff_lengthlist__44p9_long 00000001800bccb8     libvorbisenc:vorbisenc.obj
 0002:00083cd8       _huff_book_line_128x4_0sub2 00000001800bccd8     libvorbisenc:vorbisenc.obj
 0002:00083d10       _resbook_44p_6             00000001800bcd10     libvorbisenc:vorbisenc.obj
 0002:00083e90       _vq_quantlist__44p9_p3_0   00000001800bce90     libvorbisenc:vorbisenc.obj
 0002:00083ea0       _vq_quantlist__44u5__p8_0  00000001800bcea0     libvorbisenc:vorbisenc.obj
 0002:00083ed0       _huff_lengthlist__44c1_s_long 00000001800bced0     libvorbisenc:vorbisenc.obj
 0002:00084018       _44pn1_p6_1                00000001800bd018     libvorbisenc:vorbisenc.obj
 0002:00084050       _vq_lengthlist__16u1__p9_0 00000001800bd050     libvorbisenc:vorbisenc.obj
 0002:000843d8       _vq_quantlist__44u5__p7_1  00000001800bd3d8     libvorbisenc:vorbisenc.obj
 0002:00084408       _vq_quantlist__44c8_s_p5_0 00000001800bd408     libvorbisenc:vorbisenc.obj
 0002:00084418       _vq_quantlist__44p5_p5_1   00000001800bd418     libvorbisenc:vorbisenc.obj
 0002:00084438       _44p1_p2_0                 00000001800bd438     libvorbisenc:vorbisenc.obj
 0002:00084470       _huff_lengthlist__16c0_s_single 00000001800bd470     libvorbisenc:vorbisenc.obj
 0002:00084600       _vq_lengthlist__44u9_p7_0  00000001800bd600     libvorbisenc:vorbisenc.obj
 0002:000848a8       _global_mapping_16         00000001800bd8a8     libvorbisenc:vorbisenc.obj
 0002:000848c8       _vq_quantlist__44c7_s_p6_1 00000001800bd8c8     libvorbisenc:vorbisenc.obj
 0002:000848e0       _vq_quantlist__44p7_p7_2   00000001800bd8e0     libvorbisenc:vorbisenc.obj
 0002:00084948       _44c0_s_p1_0               00000001800bd948     libvorbisenc:vorbisenc.obj
 0002:00084980       _vq_lengthlist__44p8_l1_0  00000001800bd980     libvorbisenc:vorbisenc.obj
 0002:000849e8       _44c7_s_p3_0               00000001800bd9e8     libvorbisenc:vorbisenc.obj
 0002:00084a20       _vq_lengthlist__44p3_p3_1  00000001800bda20     libvorbisenc:vorbisenc.obj
 0002:00084df0       _vq_quantlist__44p3_p6_1   00000001800bddf0     libvorbisenc:vorbisenc.obj
 0002:00084e00       _huff_lengthlist__44c9_s_long 00000001800bde00     libvorbisenc:vorbisenc.obj
 0002:00084f90       _vq_lengthlist__44pn1_p1_0 00000001800bdf90     libvorbisenc:vorbisenc.obj
 0002:00085360       _res_44u_1                 00000001800be360     libvorbisenc:vorbisenc.obj
 0002:000853d0       _resbook_44s_0             00000001800be3d0     libvorbisenc:vorbisenc.obj
 0002:00085550       _huff_lengthlist_line_256x4_class0 00000001800be550     libvorbisenc:vorbisenc.obj
 0002:00085950       _16c0_s_p6_0               00000001800be950     libvorbisenc:vorbisenc.obj
 0002:00085988       _vq_quantlist__44u8_p3_0   00000001800be988     libvorbisenc:vorbisenc.obj
 0002:000859b0       _resbook_16u_0             00000001800be9b0     libvorbisenc:vorbisenc.obj
 0002:00085b30       _vq_lengthlist__44p4_p3_1  00000001800beb30     libvorbisenc:vorbisenc.obj
 0002:00085f00       _vq_lengthlist__44p1_p4_0  00000001800bef00     libvorbisenc:vorbisenc.obj
 0002:00088fd8       _44c1_sm_p7_1              00000001800c1fd8     libvorbisenc:vorbisenc.obj
 0002:00089010       _huff_book__44c7_s_short   00000001800c2010     libvorbisenc:vorbisenc.obj
 0002:00089048       _8u1__p7_1                 00000001800c2048     libvorbisenc:vorbisenc.obj
 0002:00089080       _vq_lengthlist__44p4_l0_1  00000001800c2080     libvorbisenc:vorbisenc.obj
 0002:000890e8       _44c0_s_p4_0               00000001800c20e8     libvorbisenc:vorbisenc.obj
 0002:00089120       _vq_lengthlist__44p3_p4_0  00000001800c2120     libvorbisenc:vorbisenc.obj
 0002:000894f0       _vq_lengthlist__44c2_s_p9_0 00000001800c24f0     libvorbisenc:vorbisenc.obj
 0002:00089798       _44u1__p1_0                00000001800c2798     libvorbisenc:vorbisenc.obj
 0002:000897d0       _vq_lengthlist__44pn1_p6_0 00000001800c27d0     libvorbisenc:vorbisenc.obj
 0002:00089ba0       quality_mapping_16         00000001800c2ba0     libvorbisenc:vorbisenc.obj
 0002:00089bc0       _16u2_p2_0                 00000001800c2bc0     libvorbisenc:vorbisenc.obj
 0002:00089bf8       _vq_quantlist__44p8_p5_0   00000001800c2bf8     libvorbisenc:vorbisenc.obj
 0002:00089c10       _vq_quantlist__44c5_s_p9_1 00000001800c2c10     libvorbisenc:vorbisenc.obj
 0002:00089c58       _44p7_p7_0                 00000001800c2c58     libvorbisenc:vorbisenc.obj
 0002:00089c90       _44pn1_p5_0                00000001800c2c90     libvorbisenc:vorbisenc.obj
 0002:00089cc8       _vq_quantlist__44p2_l0_0   00000001800c2cc8     libvorbisenc:vorbisenc.obj
 0002:00089d00       _vq_quantlist__44c9_s_p9_1 00000001800c2d00     libvorbisenc:vorbisenc.obj
 0002:00089d50       _residue_44p_lfe           00000001800c2d50     libvorbisenc:vorbisenc.obj
 0002:0008a868       _vq_quantlist__44p7_p4_0   00000001800c3868     libvorbisenc:vorbisenc.obj
 0002:0008a878       _44p6_p7_2                 00000001800c3878     libvorbisenc:vorbisenc.obj
 0002:0008a8b0       _huff_book__16u1__long     00000001800c38b0     libvorbisenc:vorbisenc.obj
 0002:0008a8e8       _44c4_s_p9_2               00000001800c38e8     libvorbisenc:vorbisenc.obj
 0002:0008a920       _vq_quantlist__44p0_p6_0   00000001800c3920     libvorbisenc:vorbisenc.obj
 0002:0008a930       _44u7__p5_0                00000001800c3930     libvorbisenc:vorbisenc.obj
 0002:0008a968       _44c8_s_p5_1               00000001800c3968     libvorbisenc:vorbisenc.obj
 0002:0008a9a0       _vq_lengthlist__8c0_s_p7_1 00000001800c39a0     libvorbisenc:vorbisenc.obj
 0002:0008ab88       _vq_quantlist__8u0__p4_0   00000001800c3b88     libvorbisenc:vorbisenc.obj
 0002:0008aba0       _vq_lengthlist__44c5_s_p4_0 00000001800c3ba0     libvorbisenc:vorbisenc.obj
 0002:0008ace8       _44c4_s_p6_0               00000001800c3ce8     libvorbisenc:vorbisenc.obj
 0002:0008ad20       _44c9_s_p8_0               00000001800c3d20     libvorbisenc:vorbisenc.obj
 0002:0008ad58       _44pn1_p1_0                00000001800c3d58     libvorbisenc:vorbisenc.obj
 0002:0008ad90       _vq_quantlist__44c7_s_p8_1 00000001800c3d90     libvorbisenc:vorbisenc.obj
 0002:0008ade8       _44c2_s_p2_0               00000001800c3de8     libvorbisenc:vorbisenc.obj
 0002:0008ae20       _vq_lengthlist__44u4__p7_2 00000001800c3e20     libvorbisenc:vorbisenc.obj
 0002:0008b2a8       _vq_quantlist__44p2_p6_1   00000001800c42a8     libvorbisenc:vorbisenc.obj
 0002:0008b2b8       _44u1__p5_0                00000001800c42b8     libvorbisenc:vorbisenc.obj
 0002:0008b2f0       _vq_quantlist__44c4_s_p9_2 00000001800c42f0     libvorbisenc:vorbisenc.obj
 0002:0008b348       _vq_quantlist__44u3__p2_0  00000001800c4348     libvorbisenc:vorbisenc.obj
 0002:0008b358       _vq_quantlist__16c1_s_p8_1 00000001800c4358     libvorbisenc:vorbisenc.obj
 0002:0008b370       _vq_lengthlist__44u8_p8_0  00000001800c4370     libvorbisenc:vorbisenc.obj
 0002:0008b6f8       _44p5_l1_0                 00000001800c46f8     libvorbisenc:vorbisenc.obj
 0002:0008b730       _vq_lengthlist__44c0_sm_p8_1 00000001800c4730     libvorbisenc:vorbisenc.obj
 0002:0008b9d8       _huff_book__44p4_short     00000001800c49d8     libvorbisenc:vorbisenc.obj
 0002:0008ba10       _vq_lengthlist__16c0_s_p8_1 00000001800c4a10     libvorbisenc:vorbisenc.obj
 0002:0008ba78       _vq_quantlist__44c3_s_p3_0 00000001800c4a78     libvorbisenc:vorbisenc.obj
 0002:0008ba90       _resbook_16s_2             00000001800c4a90     libvorbisenc:vorbisenc.obj
 0002:0008bc10       _vq_quantlist__44pn1_p4_1  00000001800c4c10     libvorbisenc:vorbisenc.obj
 0002:0008bc30       _vq_lengthlist__44c0_sm_p7_0 00000001800c4c30     libvorbisenc:vorbisenc.obj
 0002:0008bed8       _vq_quantlist__44p6_p7_0   00000001800c4ed8     libvorbisenc:vorbisenc.obj
 0002:0008bee8       _44p6_p3_1                 00000001800c4ee8     libvorbisenc:vorbisenc.obj
 0002:0008bf20       _vq_lengthlist__44c8_s_p6_0 00000001800c4f20     libvorbisenc:vorbisenc.obj
 0002:0008c1c8       _16u2_p4_0                 00000001800c51c8     libvorbisenc:vorbisenc.obj
 0002:0008c200       _res_44s_8                 00000001800c5200     libvorbisenc:vorbisenc.obj
 0002:0008c270       _vq_quantlist__44pn1_p3_0  00000001800c5270     libvorbisenc:vorbisenc.obj
 0002:0008c280       _vq_lengthlist__44u1__p5_0 00000001800c5280     libvorbisenc:vorbisenc.obj
 0002:0008c3c8       _huff_book_line_128x4_0sub3 00000001800c53c8     libvorbisenc:vorbisenc.obj
 0002:0008c400       _vq_lengthlist__8u1__p8_1  00000001800c5400     libvorbisenc:vorbisenc.obj
 0002:0008c5e8       _vq_quantlist__44c6_s_p9_0 00000001800c55e8     libvorbisenc:vorbisenc.obj
 0002:0008c620       _vq_lengthlist__44u4__p7_1 00000001800c5620     libvorbisenc:vorbisenc.obj
 0002:0008c9a8       _vq_quantlist__44c3_s_p4_0 00000001800c59a8     libvorbisenc:vorbisenc.obj
 0002:0008c9d0       _huff_lengthlist__44u6__short 00000001800c59d0     libvorbisenc:vorbisenc.obj
 0002:0008cb60       _vq_lengthlist__44u5__p8_1 00000001800c5b60     libvorbisenc:vorbisenc.obj
 0002:0008cd48       _huff_book__16u1__short    00000001800c5d48     libvorbisenc:vorbisenc.obj
 0002:0008cd80       _vq_lengthlist__44u5__p5_0 00000001800c5d80     libvorbisenc:vorbisenc.obj
 0002:0008cec8       _vq_quantlist__44u4__p6_1  00000001800c5ec8     libvorbisenc:vorbisenc.obj
 0002:0008cee0       _huff_book_line_1024x27_3sub1 00000001800c5ee0     libvorbisenc:vorbisenc.obj
 0002:0008cf18       _vq_quantlist__8u1__p3_0   00000001800c5f18     libvorbisenc:vorbisenc.obj
 0002:0008cf30       _vq_lengthlist__44p5_p3_0  00000001800c5f30     libvorbisenc:vorbisenc.obj
 0002:0008d300       _vq_lengthlist__44c6_s_p8_0 00000001800c6300     libvorbisenc:vorbisenc.obj
 0002:0008d688       _vq_quantlist__44p6_p5_0   00000001800c6688     libvorbisenc:vorbisenc.obj
 0002:0008d6a0       _vq_lengthlist__44p0_p4_0  00000001800c66a0     libvorbisenc:vorbisenc.obj
 0002:00090778       _44u1__p3_0                00000001800c9778     libvorbisenc:vorbisenc.obj
 0002:000907b0       _res_44p51_3               00000001800c97b0     libvorbisenc:vorbisenc.obj
 0002:00090858       _44c3_s_p8_1               00000001800c9858     libvorbisenc:vorbisenc.obj
 0002:00090890       _vq_lengthlist__44cn1_s_p6_0 00000001800c9890     libvorbisenc:vorbisenc.obj
 0002:000909d8       _16c0_s_p9_0               00000001800c99d8     libvorbisenc:vorbisenc.obj
 0002:00090a10       _vq_lengthlist__16u0__p2_0 00000001800c9a10     libvorbisenc:vorbisenc.obj
 0002:00090b58       _vq_quantlist__44u8_p5_1   00000001800c9b58     libvorbisenc:vorbisenc.obj
 0002:00090b88       _vq_quantlist__44un1__p5_0 00000001800c9b88     libvorbisenc:vorbisenc.obj
 0002:00090bb0       _huff_lengthlist_line_128x4_class0 00000001800c9bb0     libvorbisenc:vorbisenc.obj
 0002:00090fb0       _vq_quantlist__16u0__p7_0  00000001800c9fb0     libvorbisenc:vorbisenc.obj
 0002:00090fc0       _vq_lengthlist__44p1_p6_2  00000001800c9fc0     libvorbisenc:vorbisenc.obj
 0002:00091028       _44u1__p7_2                00000001800ca028     libvorbisenc:vorbisenc.obj
 0002:00091060       _vq_lengthlist__16c0_s_p4_0 00000001800ca060     libvorbisenc:vorbisenc.obj
 0002:000911a8       _44c1_sm_p8_1              00000001800ca1a8     libvorbisenc:vorbisenc.obj
 0002:000911e0       _huff_lengthlist_line_2048x27_3sub2 00000001800ca1e0     libvorbisenc:vorbisenc.obj
 0002:000912a8       _vq_quantlist__44p6_p2_0   00000001800ca2a8     libvorbisenc:vorbisenc.obj
 0002:000912c0       _vq_lengthlist__44p4_p4_1  00000001800ca2c0     libvorbisenc:vorbisenc.obj
 0002:00094398       _44c2_s_p4_0               00000001800cd398     libvorbisenc:vorbisenc.obj
 0002:000943d0       _vq_quantlist__8c1_s_p6_0  00000001800cd3d0     libvorbisenc:vorbisenc.obj
 0002:00094418       _16c2_s_p7_1               00000001800cd418     libvorbisenc:vorbisenc.obj
 0002:00094450       _vq_lengthlist__44u0__p7_2 00000001800cd450     libvorbisenc:vorbisenc.obj
 0002:000946f8       _vq_lengthlist__44p8_p5_1  00000001800cd6f8     libvorbisenc:vorbisenc.obj
 0002:00094718       _44p3_p6_0                 00000001800cd718     libvorbisenc:vorbisenc.obj
 0002:00094750       ve_setup_44_stereo         00000001800cd750     libvorbisenc:vorbisenc.obj
 0002:00094880       ve_setup_8_stereo          00000001800cd880     libvorbisenc:vorbisenc.obj
 0002:000949b0       _16u0__p4_0                00000001800cd9b0     libvorbisenc:vorbisenc.obj
 0002:000949e8       _vq_quantlist__44p4_p3_0   00000001800cd9e8     libvorbisenc:vorbisenc.obj
 0002:000949f8       _vq_quantlist__44p4_p4_0   00000001800cd9f8     libvorbisenc:vorbisenc.obj
 0002:00094a08       _vq_quantlist__44u9_p2_0   00000001800cda08     libvorbisenc:vorbisenc.obj
 0002:00094a20       _psy_tone_masteratt_44     00000001800cda20     libvorbisenc:vorbisenc.obj
 0002:00094b10       _vq_quantlist__44c5_s_p9_2 00000001800cdb10     libvorbisenc:vorbisenc.obj
 0002:00094b68       _floor_mapping_16b         00000001800cdb68     libvorbisenc:vorbisenc.obj
 0002:00094b78       _44p2_p1_0                 00000001800cdb78     libvorbisenc:vorbisenc.obj
 0002:00094bb0       _vq_lengthlist__44p9_p7_3  00000001800cdbb0     libvorbisenc:vorbisenc.obj
 0002:00094c18       _vq_quantlist__44cn1_sm_p4_0 00000001800cdc18     libvorbisenc:vorbisenc.obj
 0002:00094c40       _vq_lengthlist__16u2_p2_0  00000001800cdc40     libvorbisenc:vorbisenc.obj
 0002:00095608       _16u1__p5_0                00000001800ce608     libvorbisenc:vorbisenc.obj
 0002:00095640       _44u5__p6_0                00000001800ce640     libvorbisenc:vorbisenc.obj
 0002:00095678       _vq_quantlist__44u0__p6_1  00000001800ce678     libvorbisenc:vorbisenc.obj
 0002:00095690       _vq_lengthlist__44un1__p2_0 00000001800ce690     libvorbisenc:vorbisenc.obj
 0002:000957d8       _vq_quantlist__8u1__p7_0   00000001800ce7d8     libvorbisenc:vorbisenc.obj
 0002:000957e8       _44p3_p6_1                 00000001800ce7e8     libvorbisenc:vorbisenc.obj
 0002:00095820       _vq_lengthlist__44c7_s_p8_1 00000001800ce820     libvorbisenc:vorbisenc.obj
 0002:00095f08       _vq_quantlist__44c1_sm_p7_0 00000001800cef08     libvorbisenc:vorbisenc.obj
 0002:00095f40       _huff_lengthlist_line_512x17_3sub2 00000001800cef40     libvorbisenc:vorbisenc.obj
 0002:00096008       _huff_book__44p9_short     00000001800cf008     libvorbisenc:vorbisenc.obj
 0002:00096040       _res_44s_3                 00000001800cf040     libvorbisenc:vorbisenc.obj
 0002:000960b0       _vq_lengthlist__44p9_p1_0  00000001800cf0b0     libvorbisenc:vorbisenc.obj
 0002:00096480       _vq_quantlist__44u7__p7_1  00000001800cf480     libvorbisenc:vorbisenc.obj
 0002:000964b0       _vq_lengthlist__44c1_sm_p1_0 00000001800cf4b0     libvorbisenc:vorbisenc.obj
 0002:0009cb38       _vq_quantlist__44p3_p3_1   00000001800d5b38     libvorbisenc:vorbisenc.obj
 0002:0009cb48       _huff_book__44c8_s_long    00000001800d5b48     libvorbisenc:vorbisenc.obj
 0002:0009cb80       _vq_lengthlist__44c0_sm_p6_0 00000001800d5b80     libvorbisenc:vorbisenc.obj
 0002:0009ccc8       _huff_book_line_256x7_1sub1 00000001800d5cc8     libvorbisenc:vorbisenc.obj
 0002:0009cd00       _vq_quantlist__8c0_s_p8_0  00000001800d5d00     libvorbisenc:vorbisenc.obj
 0002:0009cd38       _16u0__p5_0                00000001800d5d38     libvorbisenc:vorbisenc.obj
 0002:0009cd70       _vq_lengthlist__44u1__p6_1 00000001800d5d70     libvorbisenc:vorbisenc.obj
 0002:0009cdd8       _huff_book__44c9_s_short   00000001800d5dd8     libvorbisenc:vorbisenc.obj
 0002:0009ce10       _huff_lengthlist__44p5_short 00000001800d5e10     libvorbisenc:vorbisenc.obj
 0002:0009cf10       _vq_lengthlist__44u5__p9_0 00000001800d5f10     libvorbisenc:vorbisenc.obj
 0002:0009d1b8       _44c3_s_p7_0               00000001800d61b8     libvorbisenc:vorbisenc.obj
 0002:0009d1f0       _vq_lengthlist__44cn1_sm_p6_0 00000001800d61f0     libvorbisenc:vorbisenc.obj
 0002:0009d338       _44p3_p4_0                 00000001800d6338     libvorbisenc:vorbisenc.obj
 0002:0009d370       _vq_lengthlist__44c8_s_p8_0 00000001800d6370     libvorbisenc:vorbisenc.obj
 0002:0009d6f8       _vq_quantlist__44u6__p7_1  00000001800d66f8     libvorbisenc:vorbisenc.obj
 0002:0009d728       _8c1_s_p4_0                00000001800d6728     libvorbisenc:vorbisenc.obj
 0002:0009d760       _mapres_template_44_51     00000001800d6760     libvorbisenc:vorbisenc.obj
 0002:0009d810       _vq_lengthlist__8u1__p9_2  00000001800d6810     libvorbisenc:vorbisenc.obj
 0002:0009dc98       _44u1__p2_0                00000001800d6c98     libvorbisenc:vorbisenc.obj
 0002:0009dcd0       _vq_quantlist__44p0_p3_0   00000001800d6cd0     libvorbisenc:vorbisenc.obj
 0002:0009dce0       _vq_quantlist__44c0_sm_p1_0 00000001800d6ce0     libvorbisenc:vorbisenc.obj
 0002:0009dcf0       _vq_quantlist__44c6_s_p8_0 00000001800d6cf0     libvorbisenc:vorbisenc.obj
 0002:0009dd30       _global_mapping_8          00000001800d6d30     libvorbisenc:vorbisenc.obj
 0002:0009dd48       _16u2_p9_2                 00000001800d6d48     libvorbisenc:vorbisenc.obj
 0002:0009dd80       _huff_lengthlist_line_128x17_3sub2 00000001800d6d80     libvorbisenc:vorbisenc.obj
 0002:0009de48       _vq_quantlist__44u3__p7_0  00000001800d6e48     libvorbisenc:vorbisenc.obj
 0002:0009de70       _vq_lengthlist__44p0_l0_0  00000001800d6e70     libvorbisenc:vorbisenc.obj
 0002:0009e118       _16u1__p8_1                00000001800d7118     libvorbisenc:vorbisenc.obj
 0002:0009e150       _44p1_l0_0                 00000001800d7150     libvorbisenc:vorbisenc.obj
 0002:0009e188       _44u9_p8_1                 00000001800d7188     libvorbisenc:vorbisenc.obj
 0002:0009e1c0       _vq_lengthlist__8u0__p3_0  00000001800d71c0     libvorbisenc:vorbisenc.obj
 0002:0009eb88       _vq_quantlist__44u8_p6_0   00000001800d7b88     libvorbisenc:vorbisenc.obj
 0002:0009ebc0       _44c3_s_p2_0               00000001800d7bc0     libvorbisenc:vorbisenc.obj
 0002:0009ebf8       _vq_quantlist__44u8_p9_0   00000001800d7bf8     libvorbisenc:vorbisenc.obj
 0002:0009ec20       _44p4_p3_0                 00000001800d7c20     libvorbisenc:vorbisenc.obj
 0002:0009ec58       _44u0__p6_1                00000001800d7c58     libvorbisenc:vorbisenc.obj
 0002:0009ec90       _44c0_sm_p6_1              00000001800d7c90     libvorbisenc:vorbisenc.obj
 0002:0009ecc8       _huff_book__44u9__short    00000001800d7cc8     libvorbisenc:vorbisenc.obj
 0002:0009ed00       _vq_quantlist__8u1__p7_1   00000001800d7d00     libvorbisenc:vorbisenc.obj
 0002:0009ed30       _huff_book__16c1_s_long    00000001800d7d30     libvorbisenc:vorbisenc.obj
 0002:0009ed68       _vq_quantlist__44u9_p7_1   00000001800d7d68     libvorbisenc:vorbisenc.obj
 0002:0009ed98       _huff_book_line_1024x27_class4 00000001800d7d98     libvorbisenc:vorbisenc.obj
 0002:0009edd0       _psy_noisebias_8           00000001800d7dd0     libvorbisenc:vorbisenc.obj
 0002:0009f038       _16c0_s_p7_1               00000001800d8038     libvorbisenc:vorbisenc.obj
 0002:0009f070       _vq_quantlist__44p6_p7_2   00000001800d8070     libvorbisenc:vorbisenc.obj
 0002:0009f0d8       _vq_lengthlist__44p3_l1_0  00000001800d80d8     libvorbisenc:vorbisenc.obj
 0002:0009f100       _vq_lengthlist__44u4__p4_0 00000001800d8100     libvorbisenc:vorbisenc.obj
 0002:0009fac8       _44c7_s_p6_0               00000001800d8ac8     libvorbisenc:vorbisenc.obj
 0002:0009fb00       _vq_lengthlist__44c6_s_p6_1 00000001800d8b00     libvorbisenc:vorbisenc.obj
 0002:0009fb68       _vq_quantlist__44cn1_s_p7_1 00000001800d8b68     libvorbisenc:vorbisenc.obj
 0002:0009fb80       _vq_lengthlist__16u2_p5_0  00000001800d8b80     libvorbisenc:vorbisenc.obj
 0002:0009fcc8       _huff_book_line_128x17_3sub1 00000001800d8cc8     libvorbisenc:vorbisenc.obj
 0002:0009fd00       _vq_lengthlist__16c2_s_p8_1 00000001800d8d00     libvorbisenc:vorbisenc.obj
 0002:000a03e8       rate_mapping_16            00000001800d93e8     libvorbisenc:vorbisenc.obj
 0002:000a0408       _44c1_s_p4_0               00000001800d9408     libvorbisenc:vorbisenc.obj
 0002:000a0440       _vq_quantlist__44p4_p7_3   00000001800d9440     libvorbisenc:vorbisenc.obj
 0002:000a04a8       _huff_lengthlist__44p9_short 00000001800d94a8     libvorbisenc:vorbisenc.obj
 0002:000a04c8       _44p0_p5_0                 00000001800d94c8     libvorbisenc:vorbisenc.obj
 0002:000a0500       _vq_lengthlist__8c0_s_p9_0 00000001800d9500     libvorbisenc:vorbisenc.obj
 0002:000a0648       _huff_book__16c1_s_short   00000001800d9648     libvorbisenc:vorbisenc.obj
 0002:000a0680       _psy_noisebias_16_impulse  00000001800d9680     libvorbisenc:vorbisenc.obj
 0002:000a09b0       _vq_lengthlist__44c6_s_p2_0 00000001800d99b0     libvorbisenc:vorbisenc.obj
 0002:000a1378       _44p6_p1_0                 00000001800da378     libvorbisenc:vorbisenc.obj
 0002:000a13b0       _huff_lengthlist_line_128x7_1sub2 00000001800da3b0     libvorbisenc:vorbisenc.obj
 0002:000a1418       rate_mapping_22            00000001800da418     libvorbisenc:vorbisenc.obj
 0002:000a1438       _vq_quantlist__44c1_sm_p4_0 00000001800da438     libvorbisenc:vorbisenc.obj
 0002:000a1460       _huff_lengthlist_line_128x4_0sub3 00000001800da460     libvorbisenc:vorbisenc.obj
 0002:000a1560       _8c1_s_p7_0                00000001800da560     libvorbisenc:vorbisenc.obj
 0002:000a1598       _vq_quantlist__16c2_s_p7_0 00000001800da598     libvorbisenc:vorbisenc.obj
 0002:000a15d0       _vq_lengthlist__44p3_l0_1  00000001800da5d0     libvorbisenc:vorbisenc.obj
 0002:000a1638       _44u4__p2_0                00000001800da638     libvorbisenc:vorbisenc.obj
 0002:000a1670       _44u9_p9_1                 00000001800da670     libvorbisenc:vorbisenc.obj
 0002:000a16a8       _vq_quantlist__44p8_l0_0   00000001800da6a8     libvorbisenc:vorbisenc.obj
 0002:000a16e0       _vq_lengthlist__44c1_s_p5_0 00000001800da6e0     libvorbisenc:vorbisenc.obj
 0002:000a1b68       _vq_quantlist__44u2__p3_0  00000001800dab68     libvorbisenc:vorbisenc.obj
 0002:000a1b80       _vq_lengthlist__16c1_s_p6_0 00000001800dab80     libvorbisenc:vorbisenc.obj
 0002:000a2008       _vq_quantlist__16c0_s_p5_0 00000001800db008     libvorbisenc:vorbisenc.obj
 0002:000a2030       _huff_lengthlist__44u8__long 00000001800db030     libvorbisenc:vorbisenc.obj
 0002:000a21c0       _vq_lengthlist__44u7__p1_0 00000001800db1c0     libvorbisenc:vorbisenc.obj
 0002:000a2308       _huff_book__44c1_s_short   00000001800db308     libvorbisenc:vorbisenc.obj
 0002:000a2340       _vq_lengthlist__44p4_p2_0  00000001800db340     libvorbisenc:vorbisenc.obj
 0002:000a5418       _vq_quantlist__44c7_s_p9_0 00000001800de418     libvorbisenc:vorbisenc.obj
 0002:000a5450       _huff_lengthlist__16u2__long 00000001800de450     libvorbisenc:vorbisenc.obj
 0002:000a55e0       _vq_lengthlist__16c0_s_p7_1 00000001800de5e0     libvorbisenc:vorbisenc.obj
 0002:000a57c8       blocksize_11               00000001800de7c8     libvorbisenc:vorbisenc.obj
 0002:000a57d0       _vq_lengthlist__44p4_p7_2  00000001800de7d0     libvorbisenc:vorbisenc.obj
 0002:000a5838       _vq_lengthlist__44p2_p5_1  00000001800de838     libvorbisenc:vorbisenc.obj
 0002:000a5858       _44c5_s_p8_0               00000001800de858     libvorbisenc:vorbisenc.obj
 0002:000a5890       _huff_lengthlist_line_512x17_2sub1 00000001800de890     libvorbisenc:vorbisenc.obj
 0002:000a58d8       _vq_quantlist__44cn1_sm_p2_0 00000001800de8d8     libvorbisenc:vorbisenc.obj
 0002:000a58f0       _huff_lengthlist_line_1024x27_2sub0 00000001800de8f0     libvorbisenc:vorbisenc.obj
 0002:000a5970       _vq_lengthlist__44p8_p6_1  00000001800de970     libvorbisenc:vorbisenc.obj
 0002:000a5d40       _vq_quantlist__16u1__p9_1  00000001800ded40     libvorbisenc:vorbisenc.obj
 0002:000a5d80       _vq_quantlist__44c1_s_p8_2 00000001800ded80     libvorbisenc:vorbisenc.obj
 0002:000a5dc8       _vq_quantlist__44p1_p5_0   00000001800dedc8     libvorbisenc:vorbisenc.obj
 0002:000a5dd8       _huff_book__44c1_sm_long   00000001800dedd8     libvorbisenc:vorbisenc.obj
 0002:000a5e10       _vq_quantlist__44cn1_sm_p5_0 00000001800dee10     libvorbisenc:vorbisenc.obj
 0002:000a5e58       _floor_mapping_8a          00000001800dee58     libvorbisenc:vorbisenc.obj
 0002:000a5e60       _huff_lengthlist_line_2048x27_4sub1 00000001800dee60     libvorbisenc:vorbisenc.obj
 0002:000a5ea8       _44p6_p4_1                 00000001800deea8     libvorbisenc:vorbisenc.obj
 0002:000a5ee0       _huff_lengthlist_line_1024x27_3sub2 00000001800deee0     libvorbisenc:vorbisenc.obj
 0002:000a5fa8       _vq_quantlist__44u6__p5_0  00000001800defa8     libvorbisenc:vorbisenc.obj
 0002:000a5fd0       _vq_lengthlist__44p8_p3_0  00000001800defd0     libvorbisenc:vorbisenc.obj
 0002:000a63a0       _vq_lengthlist__16c0_s_p7_0 00000001800df3a0     libvorbisenc:vorbisenc.obj
 0002:000a64e8       _vq_quantlist__44c0_s_p6_1 00000001800df4e8     libvorbisenc:vorbisenc.obj
 0002:000a6518       _noise_part_16             00000001800df518     libvorbisenc:vorbisenc.obj
 0002:000a6528       _vq_quantlist__44c9_s_p7_0 00000001800df528     libvorbisenc:vorbisenc.obj
 0002:000a6560       _vq_lengthlist__16c2_s_p4_0 00000001800df560     libvorbisenc:vorbisenc.obj
 0002:000a69e8       _vq_quantlist__44u3__p5_0  00000001800df9e8     libvorbisenc:vorbisenc.obj
 0002:000a6a10       _huff_lengthlist__44c0_s_short 00000001800dfa10     libvorbisenc:vorbisenc.obj
 0002:000a6b58       _44c5_s_p8_1               00000001800dfb58     libvorbisenc:vorbisenc.obj
 0002:000a6b90       _vq_lengthlist__44pn1_p4_0 00000001800dfb90     libvorbisenc:vorbisenc.obj
 0002:000a9c68       _vq_quantlist__44p8_p7_1   00000001800e2c68     libvorbisenc:vorbisenc.obj
 0002:000a9c80       _vq_lengthlist__44u8_p5_1  00000001800e2c80     libvorbisenc:vorbisenc.obj
 0002:000a9e68       _44u6__p7_0                00000001800e2e68     libvorbisenc:vorbisenc.obj
 0002:000a9ea0       ve_setup_XX_uncoupled      00000001800e2ea0     libvorbisenc:vorbisenc.obj
 0002:000a9fd0       _huff_lengthlist_line_512x17_class2 00000001800e2fd0     libvorbisenc:vorbisenc.obj
 0002:000aa0d0       _vq_lengthlist__44c2_s_p2_0 00000001800e30d0     libvorbisenc:vorbisenc.obj
 0002:000aaa98       _huff_book_line_256x7_0sub2 00000001800e3a98     libvorbisenc:vorbisenc.obj
 0002:000aaad0       _vq_lengthlist__44c0_s_p6_1 00000001800e3ad0     libvorbisenc:vorbisenc.obj
 0002:000aacb8       _vq_quantlist__44p3_p7_0   00000001800e3cb8     libvorbisenc:vorbisenc.obj
 0002:000aacc8       _vq_quantlist__16c1_s_p8_0 00000001800e3cc8     libvorbisenc:vorbisenc.obj
 0002:000aad00       _vq_quantlist__16c0_s_p8_1 00000001800e3d00     libvorbisenc:vorbisenc.obj
 0002:000aad18       _8u1__p9_1                 00000001800e3d18     libvorbisenc:vorbisenc.obj
 0002:000aad50       _vq_quantlist__16u1__p9_2  00000001800e3d50     libvorbisenc:vorbisenc.obj
 0002:000aad98       _44u0__p4_0                00000001800e3d98     libvorbisenc:vorbisenc.obj
 0002:000aadd0       _vq_lengthlist__44u1__p4_0 00000001800e3dd0     libvorbisenc:vorbisenc.obj
 0002:000ab798       _vq_quantlist__44p4_p7_1   00000001800e4798     libvorbisenc:vorbisenc.obj
 0002:000ab7a8       _huff_book__44u5__long     00000001800e47a8     libvorbisenc:vorbisenc.obj
 0002:000ab7e0       _res_44u_2                 00000001800e47e0     libvorbisenc:vorbisenc.obj
 0002:000ab850       _vq_lengthlist__44c6_s_p8_1 00000001800e4850     libvorbisenc:vorbisenc.obj
 0002:000abf38       _44u8_p6_0                 00000001800e4f38     libvorbisenc:vorbisenc.obj
 0002:000abf70       _vq_lengthlist__8c0_s_p8_1 00000001800e4f70     libvorbisenc:vorbisenc.obj
 0002:000abfd8       _8c1_s_p9_2                00000001800e4fd8     libvorbisenc:vorbisenc.obj
 0002:000ac010       _vq_lengthlist__16c2_s_p2_0 00000001800e5010     libvorbisenc:vorbisenc.obj
 0002:000ac9d8       _huff_lengthlist_line_256x4low_0sub1 00000001800e59d8     libvorbisenc:vorbisenc.obj
 0002:000aca00       _vq_lengthlist__44u8_p4_0  00000001800e5a00     libvorbisenc:vorbisenc.obj
 0002:000ace88       _44u4__p4_0                00000001800e5e88     libvorbisenc:vorbisenc.obj
 0002:000acec0       _map_nominal               00000001800e5ec0     libvorbisenc:vorbisenc.obj
 0002:000ae7d0       _resbook_44p_l4            00000001800e77d0     libvorbisenc:vorbisenc.obj
 0002:000ae950       _vq_lengthlist__44c8_s_p2_0 00000001800e7950     libvorbisenc:vorbisenc.obj
 0002:000af318       _44c4_s_p5_0               00000001800e8318     libvorbisenc:vorbisenc.obj
 0002:000af350       _huff_lengthlist_line_256x4low_0sub2 00000001800e8350     libvorbisenc:vorbisenc.obj
 0002:000af3b8       _vq_quantlist__44cn1_s_p2_0 00000001800e83b8     libvorbisenc:vorbisenc.obj
 0002:000af3d0       _vq_lengthlist__44u9_p7_1  00000001800e83d0     libvorbisenc:vorbisenc.obj
 0002:000af5b8       _44c2_s_p5_0               00000001800e85b8     libvorbisenc:vorbisenc.obj
 0002:000af5f0       _vq_lengthlist__8u1__p5_0  00000001800e85f0     libvorbisenc:vorbisenc.obj
 0002:000af738       _vq_quantlist__44u9_p5_0   00000001800e8738     libvorbisenc:vorbisenc.obj
 0002:000af748       _huff_lengthlist__44pn1_lfe 00000001800e8748     libvorbisenc:vorbisenc.obj
 0002:000af758       _vq_quantlist__16u0__p5_0  00000001800e8758     libvorbisenc:vorbisenc.obj
 0002:000af780       _huff_lengthlist__44c4_s_short 00000001800e8780     libvorbisenc:vorbisenc.obj
 0002:000af910       _psy_stereo_modes_8        00000001800e8910     libvorbisenc:vorbisenc.obj
 0002:000afbe0       _vq_lengthlist__44c9_s_p6_1 00000001800e8be0     libvorbisenc:vorbisenc.obj
 0002:000afc48       _16u0__p3_0                00000001800e8c48     libvorbisenc:vorbisenc.obj
 0002:000afc80       _vq_lengthlist__16c0_s_p9_1 00000001800e8c80     libvorbisenc:vorbisenc.obj
 0002:000b0008       _44u3__p6_0                00000001800e9008     libvorbisenc:vorbisenc.obj
 0002:000b0040       _vq_lengthlist__44cn1_s_p8_0 00000001800e9040     libvorbisenc:vorbisenc.obj
 0002:000b0a08       _44c1_s_p8_1               00000001800e9a08     libvorbisenc:vorbisenc.obj
 0002:000b0a40       _huff_lengthlist__8c1_s_single 00000001800e9a40     libvorbisenc:vorbisenc.obj
 0002:000b0bd0       _huff_lengthlist__44p3_long 00000001800e9bd0     libvorbisenc:vorbisenc.obj
 0002:000b0cd0       _vp_tonemask_adj_otherblock 00000001800e9cd0     libvorbisenc:vorbisenc.obj
 0002:000b1000       _vq_quantlist__44p2_p7_1   00000001800ea000     libvorbisenc:vorbisenc.obj
 0002:000b1010       _vq_lengthlist__44c1_s_p6_1 00000001800ea010     libvorbisenc:vorbisenc.obj
 0002:000b11f8       _huff_lengthlist__44p6_lfe 00000001800ea1f8     libvorbisenc:vorbisenc.obj
 0002:000b1208       _huff_book_line_128x17_class2 00000001800ea208     libvorbisenc:vorbisenc.obj
 0002:000b1240       ve_setup_X_stereo          00000001800ea240     libvorbisenc:vorbisenc.obj
 0002:000b1370       _vq_quantlist__44c7_s_p5_1 00000001800ea370     libvorbisenc:vorbisenc.obj
 0002:000b13a0       _psy_compand_short_mapping 00000001800ea3a0     libvorbisenc:vorbisenc.obj
 0002:000b1400       _huff_lengthlist_line_128x17_class3 00000001800ea400     libvorbisenc:vorbisenc.obj
 0002:000b1500       _vq_lengthlist__8c1_s_p4_0 00000001800ea500     libvorbisenc:vorbisenc.obj
 0002:000b1648       _vq_quantlist__44u1__p1_0  00000001800ea648     libvorbisenc:vorbisenc.obj
 0002:000b1658       _vq_quantlist__44p6_p6_0   00000001800ea658     libvorbisenc:vorbisenc.obj
 0002:000b1668       _44c6_s_p8_0               00000001800ea668     libvorbisenc:vorbisenc.obj
 0002:000b16a0       _vq_lengthlist__44u5__p2_0 00000001800ea6a0     libvorbisenc:vorbisenc.obj
 0002:000b17e8       _vq_quantlist__44u6__p6_0  00000001800ea7e8     libvorbisenc:vorbisenc.obj
 0002:000b1810       _vq_quantlist__44c9_s_p8_1 00000001800ea810     libvorbisenc:vorbisenc.obj
 0002:000b1868       _huff_lengthlist__44p9_lfe 00000001800ea868     libvorbisenc:vorbisenc.obj
 0002:000b1870       _vq_lengthlist__44c1_s_p8_0 00000001800ea870     libvorbisenc:vorbisenc.obj
 0002:000b1b18       _44cn1_s_p2_0              00000001800eab18     libvorbisenc:vorbisenc.obj
 0002:000b1b50       _vq_lengthlist__44pn1_p3_0 00000001800eab50     libvorbisenc:vorbisenc.obj
 0002:000b1f20       _huff_lengthlist__44p1_short 00000001800eaf20     libvorbisenc:vorbisenc.obj
 0002:000b1fe8       _huff_book_line_128x17_3sub3 00000001800eafe8     libvorbisenc:vorbisenc.obj
 0002:000b2020       _vq_lengthlist__16u2_p7_0  00000001800eb020     libvorbisenc:vorbisenc.obj
 0002:000b22c8       _8c0_s_p9_2                00000001800eb2c8     libvorbisenc:vorbisenc.obj
 0002:000b2300       _vq_lengthlist__44u3__p6_1 00000001800eb300     libvorbisenc:vorbisenc.obj
 0002:000b2368       _huff_book_line_512x17_1sub0 00000001800eb368     libvorbisenc:vorbisenc.obj
 0002:000b23a0       _huff_lengthlist__44u7__short 00000001800eb3a0     libvorbisenc:vorbisenc.obj
 0002:000b2530       _huff_lengthlist_line_512x17_0sub0 00000001800eb530     libvorbisenc:vorbisenc.obj
 0002:000b2730       _vq_quantlist__44cn1_sm_p8_2 00000001800eb730     libvorbisenc:vorbisenc.obj
 0002:000b2778       _44cn1_s_p5_0              00000001800eb778     libvorbisenc:vorbisenc.obj
 0002:000b27b0       _vq_lengthlist__44c7_s_p7_0 00000001800eb7b0     libvorbisenc:vorbisenc.obj
 0002:000b2a58       _vq_quantlist__44c6_s_p2_0 00000001800eba58     libvorbisenc:vorbisenc.obj
 0002:000b2a70       _huff_lengthlist_line_128x17_2sub3 00000001800eba70     libvorbisenc:vorbisenc.obj
 0002:000b2c70       _44c8_s_p8_1               00000001800ebc70     libvorbisenc:vorbisenc.obj
 0002:000b2ca8       _44c5_s_p7_0               00000001800ebca8     libvorbisenc:vorbisenc.obj
 0002:000b2ce0       _vq_quantlist__44p5_p5_0   00000001800ebce0     libvorbisenc:vorbisenc.obj
 0002:000b2cf8       _vq_quantlist__44p9_p7_0   00000001800ebcf8     libvorbisenc:vorbisenc.obj
 0002:000b2d10       _vq_lengthlist__44u6__p2_0 00000001800ebd10     libvorbisenc:vorbisenc.obj
 0002:000b2e58       _vq_quantlist__44u9_p3_0   00000001800ebe58     libvorbisenc:vorbisenc.obj
 0002:000b2e80       _huff_lengthlist_line_256x7_1sub3 00000001800ebe80     libvorbisenc:vorbisenc.obj
 0002:000b2f80       _vq_lengthlist__16c0_s_p3_0 00000001800ebf80     libvorbisenc:vorbisenc.obj
 0002:000b3948       _vq_quantlist__44c0_sm_p8_1 00000001800ec948     libvorbisenc:vorbisenc.obj
 0002:000b3980       _vq_lengthlist__44p7_p6_0  00000001800ec980     libvorbisenc:vorbisenc.obj
 0002:000b3d50       _vq_lengthlist__44cn1_s_p8_1 00000001800ecd50     libvorbisenc:vorbisenc.obj
 0002:000b3ff8       _44p6_p4_0                 00000001800ecff8     libvorbisenc:vorbisenc.obj
 0002:000b4030       _residue_44p_lo            00000001800ed030     libvorbisenc:vorbisenc.obj
 0002:000b4b48       _44u0__p3_0                00000001800edb48     libvorbisenc:vorbisenc.obj
 0002:000b4b80       _vq_lengthlist__44p9_p5_0  00000001800edb80     libvorbisenc:vorbisenc.obj
 0002:000b7c58       _vq_quantlist__44p1_l0_1   00000001800f0c58     libvorbisenc:vorbisenc.obj
 0002:000b7c70       _vq_lengthlist__16u1__p9_1 00000001800f0c70     libvorbisenc:vorbisenc.obj
 0002:000b7ff8       _44p0_p6_1                 00000001800f0ff8     libvorbisenc:vorbisenc.obj
 0002:000b8030       _psy_compand_long_mapping  00000001800f1030     libvorbisenc:vorbisenc.obj
 0002:000b8090       _vq_lengthlist__44pn1_p3_1 00000001800f1090     libvorbisenc:vorbisenc.obj
 0002:000bb168       _vq_quantlist__44u4__p7_1  00000001800f4168     libvorbisenc:vorbisenc.obj
 0002:000bb1a8       _44u5__p9_0                00000001800f41a8     libvorbisenc:vorbisenc.obj
 0002:000bb1e0       _vq_lengthlist__44u9_p4_0  00000001800f41e0     libvorbisenc:vorbisenc.obj
 0002:000bb668       _psy_tone_suppress         00000001800f4668     libvorbisenc:vorbisenc.obj
 0002:000bb698       _vq_quantlist__44u0__p4_0  00000001800f4698     libvorbisenc:vorbisenc.obj
 0002:000bb6b0       _vq_quantlist__16c0_s_p6_0 00000001800f46b0     libvorbisenc:vorbisenc.obj
 0002:000bb6f8       _16u1__p9_1                00000001800f46f8     libvorbisenc:vorbisenc.obj
 0002:000bb730       _vq_lengthlist__16c1_s_p1_0 00000001800f4730     libvorbisenc:vorbisenc.obj
 0002:000c1db8       _vq_quantlist__44pn1_p6_0  00000001800fadb8     libvorbisenc:vorbisenc.obj
 0002:000c1dc8       _vq_quantlist__44c4_s_p7_1 00000001800fadc8     libvorbisenc:vorbisenc.obj
 0002:000c1df8       _vq_quantlist__8c0_s_p7_0  00000001800fadf8     libvorbisenc:vorbisenc.obj
 0002:000c1e08       _vq_quantlist__44c3_s_p5_0 00000001800fae08     libvorbisenc:vorbisenc.obj
 0002:000c1e30       _vq_lengthlist__44u2__p5_0 00000001800fae30     libvorbisenc:vorbisenc.obj
 0002:000c1f78       _44p8_p7_2                 00000001800faf78     libvorbisenc:vorbisenc.obj
 0002:000c1fb0       _huff_lengthlist_line_128x11_3sub1 00000001800fafb0     libvorbisenc:vorbisenc.obj
 0002:000c1ff8       _noise_start_short_44      00000001800faff8     libvorbisenc:vorbisenc.obj
 0002:000c2028       _vq_quantlist__44c7_s_p9_1 00000001800fb028     libvorbisenc:vorbisenc.obj
 0002:000c2060       _vq_lengthlist__44cn1_sm_p6_1 00000001800fb060     libvorbisenc:vorbisenc.obj
 0002:000c2248       _huff_book__44c5_s_long    00000001800fb248     libvorbisenc:vorbisenc.obj
 0002:000c2280       _vq_quantlist__44c0_sm_p5_0 00000001800fb280     libvorbisenc:vorbisenc.obj
 0002:000c22c8       _vq_quantlist__44c2_s_p9_1 00000001800fb2c8     libvorbisenc:vorbisenc.obj
 0002:000c2300       _vq_lengthlist__44p8_p7_3  00000001800fb300     libvorbisenc:vorbisenc.obj
 0002:000c2368       _44u4__p3_0                00000001800fb368     libvorbisenc:vorbisenc.obj
 0002:000c23a0       _psy_compand_16_mapping    00000001800fb3a0     libvorbisenc:vorbisenc.obj
 0002:000c23c0       _vq_quantlist__44c9_s_p5_1 00000001800fb3c0     libvorbisenc:vorbisenc.obj
 0002:000c23f0       _huff_book__44u9__long     00000001800fb3f0     libvorbisenc:vorbisenc.obj
 0002:000c2428       _44u8_p5_1                 00000001800fb428     libvorbisenc:vorbisenc.obj
 0002:000c2460       _vq_lengthlist__44u2__p2_0 00000001800fb460     libvorbisenc:vorbisenc.obj
 0002:000c25a8       _44p7_p3_0                 00000001800fb5a8     libvorbisenc:vorbisenc.obj
 0002:000c25e0       _vq_lengthlist__44p7_l1_0  00000001800fb5e0     libvorbisenc:vorbisenc.obj
 0002:000c2648       _vq_quantlist__44p3_p4_0   00000001800fb648     libvorbisenc:vorbisenc.obj
 0002:000c2658       _vq_quantlist__44c1_sm_p8_1 00000001800fb658     libvorbisenc:vorbisenc.obj
 0002:000c2690       _vq_lengthlist__44p1_p2_0  00000001800fb690     libvorbisenc:vorbisenc.obj
 0002:000c2a60       _44c1_sm_p6_0              00000001800fba60     libvorbisenc:vorbisenc.obj
 0002:000c2a98       _mapres_template_16_stereo 00000001800fba98     libvorbisenc:vorbisenc.obj
 0002:000c2ac8       _44u9_p6_1                 00000001800fbac8     libvorbisenc:vorbisenc.obj
 0002:000c2b00       _vq_quantlist__44u2__p6_1  00000001800fbb00     libvorbisenc:vorbisenc.obj
 0002:000c2b18       _44u2__p6_1                00000001800fbb18     libvorbisenc:vorbisenc.obj
 0002:000c2b50       _vq_lengthlist__44c1_sm_p3_0 00000001800fbb50     libvorbisenc:vorbisenc.obj
 0002:000c2c98       _vq_quantlist__44c3_s_p8_1 00000001800fbc98     libvorbisenc:vorbisenc.obj
 0002:000c2cb0       _resbook_44p_9             00000001800fbcb0     libvorbisenc:vorbisenc.obj
 0002:000c2e30       _huff_book_line_128x11_1sub0 00000001800fbe30     libvorbisenc:vorbisenc.obj
 0002:000c2e68       _44p3_l0_0                 00000001800fbe68     libvorbisenc:vorbisenc.obj
 0002:000c2ea0       _huff_lengthlist_line_128x17_2sub1 00000001800fbea0     libvorbisenc:vorbisenc.obj
 0002:000c2ee8       _44c7_s_p5_0               00000001800fbee8     libvorbisenc:vorbisenc.obj
 0002:000c2f20       _huff_lengthlist__44c3_s_short 00000001800fbf20     libvorbisenc:vorbisenc.obj
 0002:000c30b0       _vq_lengthlist__44p2_l0_1  00000001800fc0b0     libvorbisenc:vorbisenc.obj
 0002:000c3118       _44p7_l0_1                 00000001800fc118     libvorbisenc:vorbisenc.obj
 0002:000c3150       _vq_quantlist__44c8_s_p8_1 00000001800fc150     libvorbisenc:vorbisenc.obj
 0002:000c31a8       _huff_book_line_1024x27_class3 00000001800fc1a8     libvorbisenc:vorbisenc.obj
 0002:000c31e0       _huff_book_line_256x7_0sub1 00000001800fc1e0     libvorbisenc:vorbisenc.obj
 0002:000c3218       _vq_quantlist__44u4__p7_0  00000001800fc218     libvorbisenc:vorbisenc.obj
 0002:000c3250       _44c1_sm_p7_0              00000001800fc250     libvorbisenc:vorbisenc.obj
 0002:000c3288       _44u0__p7_2                00000001800fc288     libvorbisenc:vorbisenc.obj
 0002:000c32c0       _vq_quantlist__44p8_p4_1   00000001800fc2c0     libvorbisenc:vorbisenc.obj
 0002:000c32d8       _44c9_s_p8_1               00000001800fc2d8     libvorbisenc:vorbisenc.obj
 0002:000c3310       _huff_book__44u6__long     00000001800fc310     libvorbisenc:vorbisenc.obj
 0002:000c3348       _vq_quantlist__44cn1_s_p4_0 00000001800fc348     libvorbisenc:vorbisenc.obj
 0002:000c3370       _8c1_s_p7_1                00000001800fc370     libvorbisenc:vorbisenc.obj
 0002:000c33a8       _44u7__p9_2                00000001800fc3a8     libvorbisenc:vorbisenc.obj
 0002:000c33e0       _huff_lengthlist__44u9__long 00000001800fc3e0     libvorbisenc:vorbisenc.obj
 0002:000c3570       _vq_quantlist__44c0_sm_p7_1 00000001800fc570     libvorbisenc:vorbisenc.obj
 0002:000c3588       _44u1__p6_1                00000001800fc588     libvorbisenc:vorbisenc.obj
 0002:000c35c0       ve_setup_44_uncoupled      00000001800fc5c0     libvorbisenc:vorbisenc.obj
 0002:000c36f0       _floor_books               00000001800fc6f0     libvorbisenc:vorbisenc.obj
 0002:000c3748       _16c2_s_p6_0               00000001800fc748     libvorbisenc:vorbisenc.obj
 0002:000c3780       _vq_lengthlist__44c3_s_p2_0 00000001800fc780     libvorbisenc:vorbisenc.obj
 0002:000c4148       _44p2_l1_0                 00000001800fd148     libvorbisenc:vorbisenc.obj
 0002:000c4180       _vq_lengthlist__16c2_s_p3_0 00000001800fd180     libvorbisenc:vorbisenc.obj
 0002:000c42c8       _huff_book__44p9_long      00000001800fd2c8     libvorbisenc:vorbisenc.obj
 0002:000c4300       _vq_quantlist__44c3_s_p8_0 00000001800fd300     libvorbisenc:vorbisenc.obj
 0002:000c4338       _vq_quantlist__16c2_s_p5_0 00000001800fd338     libvorbisenc:vorbisenc.obj
 0002:000c4348       _16u1__p4_0                00000001800fd348     libvorbisenc:vorbisenc.obj
 0002:000c4380       _vp_tonemask_adj_longblock 00000001800fd380     libvorbisenc:vorbisenc.obj
 0002:000c46b0       _44u4__p7_2                00000001800fd6b0     libvorbisenc:vorbisenc.obj
 0002:000c46e8       _huff_book_line_128x7_class0 00000001800fd6e8     libvorbisenc:vorbisenc.obj
 0002:000c4720       _vq_lengthlist__44p7_l0_0  00000001800fd720     libvorbisenc:vorbisenc.obj
 0002:000c49c8       _vq_quantlist__44u2__p7_1  00000001800fd9c8     libvorbisenc:vorbisenc.obj
 0002:000c4a00       _vq_lengthlist__44c6_s_p7_0 00000001800fda00     libvorbisenc:vorbisenc.obj
 0002:000c4ca8       _huff_book__44p7_long      00000001800fdca8     libvorbisenc:vorbisenc.obj
 0002:000c4ce0       _vq_quantlist__44c3_s_p6_0 00000001800fdce0     libvorbisenc:vorbisenc.obj
 0002:000c4d28       _vq_lengthlist__44p3_p5_1  00000001800fdd28     libvorbisenc:vorbisenc.obj
 0002:000c4d48       _44c6_s_p6_1               00000001800fdd48     libvorbisenc:vorbisenc.obj
 0002:000c4d80       _vq_lengthlist__44p7_p3_0  00000001800fdd80     libvorbisenc:vorbisenc.obj
 0002:000c5150       _vq_quantlist__44pn1_l0_0  00000001800fe150     libvorbisenc:vorbisenc.obj
 0002:000c5188       _44p8_p6_0                 00000001800fe188     libvorbisenc:vorbisenc.obj
 0002:000c51c0       _vq_quantlist__44p0_p4_1   00000001800fe1c0     libvorbisenc:vorbisenc.obj
 0002:000c51e0       _huff_book__44un1__short   00000001800fe1e0     libvorbisenc:vorbisenc.obj
 0002:000c5218       _vq_quantlist__44c5_s_p4_0 00000001800fe218     libvorbisenc:vorbisenc.obj
 0002:000c5240       _44p5_l0_1                 00000001800fe240     libvorbisenc:vorbisenc.obj
 0002:000c5278       _44c3_s_p9_2               00000001800fe278     libvorbisenc:vorbisenc.obj
 0002:000c52b0       _vq_quantlist__44c8_s_p9_1 00000001800fe2b0     libvorbisenc:vorbisenc.obj
 0002:000c5300       _vq_quantlist__16c0_s_p7_1 00000001800fe300     libvorbisenc:vorbisenc.obj
 0002:000c5330       _floor_256x7_books         00000001800fe330     libvorbisenc:vorbisenc.obj
 0002:000c5370       _psy_ath_floater_16        00000001800fe370     libvorbisenc:vorbisenc.obj
 0002:000c5380       _psy_lowpass_44            00000001800fe380     libvorbisenc:vorbisenc.obj
 0002:000c53e0       _vq_quantlist__44c7_s_p5_0 00000001800fe3e0     libvorbisenc:vorbisenc.obj
 0002:000c53f0       _vq_lengthlist__44u2__p7_1 00000001800fe3f0     libvorbisenc:vorbisenc.obj
 0002:000c5698       _res_8u_0                  00000001800fe698     libvorbisenc:vorbisenc.obj
 0002:000c56d0       _vq_lengthlist__44c2_s_p9_2 00000001800fe6d0     libvorbisenc:vorbisenc.obj
 0002:000c5b58       _vq_quantlist__44c5_s_p8_0 00000001800feb58     libvorbisenc:vorbisenc.obj
 0002:000c5b90       _vq_lengthlist__44c9_s_p9_1 00000001800feb90     libvorbisenc:vorbisenc.obj
 0002:000c6138       _vq_quantlist__44p2_l0_1   00000001800ff138     libvorbisenc:vorbisenc.obj
 0002:000c6150       _vq_lengthlist__44p5_p4_0  00000001800ff150     libvorbisenc:vorbisenc.obj
 0002:000c6520       _vq_quantlist__16c2_s_p9_0 00000001800ff520     libvorbisenc:vorbisenc.obj
 0002:000c6568       _huff_book__44u1__long     00000001800ff568     libvorbisenc:vorbisenc.obj
 0002:000c65a0       _44cn1_s_p7_0              00000001800ff5a0     libvorbisenc:vorbisenc.obj
 0002:000c65d8       _vq_quantlist__44c8_s_p3_0 00000001800ff5d8     libvorbisenc:vorbisenc.obj
 0002:000c6600       _vq_lengthlist__44c0_sm_p7_1 00000001800ff600     libvorbisenc:vorbisenc.obj
 0002:000c6668       _vq_quantlist__44p7_p5_0   00000001800ff668     libvorbisenc:vorbisenc.obj
 0002:000c6680       _vq_lengthlist__44p9_p2_0  00000001800ff680     libvorbisenc:vorbisenc.obj
 0002:000c9758       _vq_quantlist__44c0_s_p6_0 0000000180102758     libvorbisenc:vorbisenc.obj
 0002:000c9768       _44c1_sm_p4_0              0000000180102768     libvorbisenc:vorbisenc.obj
 0002:000c97a0       _44p7_p5_1                 00000001801027a0     libvorbisenc:vorbisenc.obj
 0002:000c97d8       _44p4_p3_1                 00000001801027d8     libvorbisenc:vorbisenc.obj
 0002:000c9810       _floor_1024x27_books       0000000180102810     libvorbisenc:vorbisenc.obj
 0002:000c9888       _huff_book_line_1024x27_2sub1 0000000180102888     libvorbisenc:vorbisenc.obj
 0002:000c98c0       _vq_lengthlist__44u7__p9_0 00000001801028c0     libvorbisenc:vorbisenc.obj
 0002:000c9aa8       _vq_quantlist__44c0_s_p8_0 0000000180102aa8     libvorbisenc:vorbisenc.obj
 0002:000c9ac0       _vq_lengthlist__44u8_p6_1  0000000180102ac0     libvorbisenc:vorbisenc.obj
 0002:000c9b28       _huff_book_line_256x4_0sub1 0000000180102b28     libvorbisenc:vorbisenc.obj
 0002:000c9b60       _huff_book__44u1__short    0000000180102b60     libvorbisenc:vorbisenc.obj
 0002:000c9b98       _44c6_s_p3_0               0000000180102b98     libvorbisenc:vorbisenc.obj
 0002:000c9bd0       _16c2_s_p5_0               0000000180102bd0     libvorbisenc:vorbisenc.obj
 0002:000c9c08       _44u4__p6_0                0000000180102c08     libvorbisenc:vorbisenc.obj
 0002:000c9c40       _vq_lengthlist__16c1_s_p8_1 0000000180102c40     libvorbisenc:vorbisenc.obj
 0002:000c9ca8       _44c4_s_p7_1               0000000180102ca8     libvorbisenc:vorbisenc.obj
 0002:000c9ce0       _floor                     0000000180102ce0     libvorbisenc:vorbisenc.obj
 0002:000ccd00       _vq_quantlist__44p5_p7_0   0000000180105d00     libvorbisenc:vorbisenc.obj
 0002:000ccd10       _floor_256x4low_books      0000000180105d10     libvorbisenc:vorbisenc.obj
 0002:000ccd38       _vq_quantlist__44cn1_s_p3_0 0000000180105d38     libvorbisenc:vorbisenc.obj
 0002:000ccd60       _vq_quantlist__44p1_p6_2   0000000180105d60     libvorbisenc:vorbisenc.obj
 0002:000ccdc8       _psy_tone_0dB              0000000180105dc8     libvorbisenc:vorbisenc.obj
 0002:000ccdf8       _16c0_s_p5_0               0000000180105df8     libvorbisenc:vorbisenc.obj
 0002:000cce30       _vq_lengthlist__16c1_s_p7_1 0000000180105e30     libvorbisenc:vorbisenc.obj
 0002:000cd018       _huff_book__44un1__long    0000000180106018     libvorbisenc:vorbisenc.obj
 0002:000cd050       _huff_book__44p7_short     0000000180106050     libvorbisenc:vorbisenc.obj
 0002:000cd088       _44pn1_p6_0                0000000180106088     libvorbisenc:vorbisenc.obj
 0002:000cd0c0       _vq_lengthlist__8c1_s_p5_0 00000001801060c0     libvorbisenc:vorbisenc.obj
 0002:000cd208       _44c9_s_p1_0               0000000180106208     libvorbisenc:vorbisenc.obj
 0002:000cd240       _vq_lengthlist__44p6_p3_1  0000000180106240     libvorbisenc:vorbisenc.obj
 0002:000cd610       _vq_lengthlist__44c6_s_p6_0 0000000180106610     libvorbisenc:vorbisenc.obj
 0002:000cd8b8       _huff_book__44c8_s_short   00000001801068b8     libvorbisenc:vorbisenc.obj
 0002:000cd8f0       _floor_mapping_16a         00000001801068f0     libvorbisenc:vorbisenc.obj
 0002:000cd900       _huff_book_line_128x17_0sub0 0000000180106900     libvorbisenc:vorbisenc.obj
 0002:000cd938       _8c0_s_p7_0                0000000180106938     libvorbisenc:vorbisenc.obj
 0002:000cd970       _vq_quantlist__44c4_s_p7_0 0000000180106970     libvorbisenc:vorbisenc.obj
 0002:000cd980       _16c0_s_p9_2               0000000180106980     libvorbisenc:vorbisenc.obj
 0002:000cd9b8       _vq_quantlist__8u1__p6_0   00000001801069b8     libvorbisenc:vorbisenc.obj
 0002:000cd9e0       _44u5__p8_0                00000001801069e0     libvorbisenc:vorbisenc.obj
 0002:000cda18       _vq_quantlist__44cn1_s_p8_1 0000000180106a18     libvorbisenc:vorbisenc.obj
 0002:000cda50       _resbook_44u_6             0000000180106a50     libvorbisenc:vorbisenc.obj
 0002:000cdbd0       rate_mapping_44_stereo     0000000180106bd0     libvorbisenc:vorbisenc.obj
 0002:000cdc30       _vq_lengthlist__44cn1_s_p5_0 0000000180106c30     libvorbisenc:vorbisenc.obj
 0002:000ce0b8       _huff_lengthlist_line_128x7_1sub1 00000001801070b8     libvorbisenc:vorbisenc.obj
 0002:000ce0e0       _vq_quantlist__44c6_s_p6_1 00000001801070e0     libvorbisenc:vorbisenc.obj
 0002:000ce0f8       _huff_book_line_2048x27_class4 00000001801070f8     libvorbisenc:vorbisenc.obj
 0002:000ce130       _resbook_16u_1             0000000180107130     libvorbisenc:vorbisenc.obj
 0002:000ce2b0       _vq_lengthlist__44p9_p7_2  00000001801072b0     libvorbisenc:vorbisenc.obj
 0002:000ce318       _huff_book_line_128x11_3sub3 0000000180107318     libvorbisenc:vorbisenc.obj
 0002:000ce350       _44cn1_s_p4_0              0000000180107350     libvorbisenc:vorbisenc.obj
 0002:000ce388       _vq_quantlist__44p2_p4_1   0000000180107388     libvorbisenc:vorbisenc.obj
 0002:000ce3a0       _vq_lengthlist__44u0__p1_0 00000001801073a0     libvorbisenc:vorbisenc.obj
 0002:000ce4e8       _44u7__p3_0                00000001801074e8     libvorbisenc:vorbisenc.obj
 0002:000ce520       _vq_lengthlist__44c0_sm_p2_0 0000000180107520     libvorbisenc:vorbisenc.obj
 0002:000ceee8       _vq_quantlist__44c7_s_p1_0 0000000180107ee8     libvorbisenc:vorbisenc.obj
 0002:000ceef8       _44c7_s_p7_1               0000000180107ef8     libvorbisenc:vorbisenc.obj
 0002:000cef30       _vq_lengthlist__8c1_s_p7_1 0000000180107f30     libvorbisenc:vorbisenc.obj
 0002:000cf118       _44p0_p6_2                 0000000180108118     libvorbisenc:vorbisenc.obj
 0002:000cf150       _vq_lengthlist__44p8_p4_0  0000000180108150     libvorbisenc:vorbisenc.obj
 0002:000cf520       _residue_44_high           0000000180108520     libvorbisenc:vorbisenc.obj
 0002:000d0038       _huff_book_line_256x7_class1 0000000180109038     libvorbisenc:vorbisenc.obj
 0002:000d0070       _vq_lengthlist__44cn1_sm_p4_0 0000000180109070     libvorbisenc:vorbisenc.obj
 0002:000d01b8       _44p7_p4_1                 00000001801091b8     libvorbisenc:vorbisenc.obj
 0002:000d01f0       _vq_lengthlist__44c1_sm_p4_0 00000001801091f0     libvorbisenc:vorbisenc.obj
 0002:000d0338       _44u8_p9_1                 0000000180109338     libvorbisenc:vorbisenc.obj
 0002:000d0370       _vq_lengthlist__44p6_p7_3  0000000180109370     libvorbisenc:vorbisenc.obj
 0002:000d03d8       _44cn1_s_p3_0              00000001801093d8     libvorbisenc:vorbisenc.obj
 0002:000d0410       _vq_lengthlist__44c0_s_p8_2 0000000180109410     libvorbisenc:vorbisenc.obj
 0002:000d0898       _vq_quantlist__16u0__p6_1  0000000180109898     libvorbisenc:vorbisenc.obj
 0002:000d08b0       _vq_lengthlist__16c2_s_p8_0 00000001801098b0     libvorbisenc:vorbisenc.obj
 0002:000d0c38       _vq_quantlist__44p5_p7_1   0000000180109c38     libvorbisenc:vorbisenc.obj
 0002:000d0c48       _44p7_p7_3                 0000000180109c48     libvorbisenc:vorbisenc.obj
 0002:000d0c80       rate_mapping_X             0000000180109c80     libvorbisenc:vorbisenc.obj
 0002:000d0ce0       _huff_lengthlist__44c0_sm_long 0000000180109ce0     libvorbisenc:vorbisenc.obj
 0002:000d0e28       _44c0_s_p6_0               0000000180109e28     libvorbisenc:vorbisenc.obj
 0002:000d0e60       _resbook_44p_l2            0000000180109e60     libvorbisenc:vorbisenc.obj
 0002:000d0fe0       _vq_quantlist__44p7_p6_1   0000000180109fe0     libvorbisenc:vorbisenc.obj
 0002:000d0ff0       _44p0_p6_0                 0000000180109ff0     libvorbisenc:vorbisenc.obj
 0002:000d1028       _44p5_p7_0                 000000018010a028     libvorbisenc:vorbisenc.obj
 0002:000d1060       _vq_lengthlist__44u8_p1_0  000000018010a060     libvorbisenc:vorbisenc.obj
 0002:000d11a8       _44u5__p7_0                000000018010a1a8     libvorbisenc:vorbisenc.obj
 0002:000d11e0       _vq_quantlist__44c2_s_p6_0 000000018010a1e0     libvorbisenc:vorbisenc.obj
 0002:000d1228       _44c6_s_p6_0               000000018010a228     libvorbisenc:vorbisenc.obj
 0002:000d1260       _vq_lengthlist__44p5_p7_3  000000018010a260     libvorbisenc:vorbisenc.obj
 0002:000d12c8       _huff_book__44c3_s_long    000000018010a2c8     libvorbisenc:vorbisenc.obj
 0002:000d1300       _vq_lengthlist__44p3_p6_0  000000018010a300     libvorbisenc:vorbisenc.obj
 0002:000d16d0       _huff_lengthlist_line_128x17_1sub0 000000018010a6d0     libvorbisenc:vorbisenc.obj
 0002:000d1750       _vq_quantlist__44c8_s_p9_0 000000018010a750     libvorbisenc:vorbisenc.obj
 0002:000d1798       _psy_lowpass_16            000000018010a798     libvorbisenc:vorbisenc.obj
 0002:000d17b8       _vq_quantlist__44p7_l0_1   000000018010a7b8     libvorbisenc:vorbisenc.obj
 0002:000d17d0       _psy_stereo_modes_44       000000018010a7d0     libvorbisenc:vorbisenc.obj
 0002:000d2310       _vq_quantlist__44u0__p5_0  000000018010b310     libvorbisenc:vorbisenc.obj
 0002:000d2338       _44p5_p1_0                 000000018010b338     libvorbisenc:vorbisenc.obj
 0002:000d2370       _vq_lengthlist__44u1__p2_0 000000018010b370     libvorbisenc:vorbisenc.obj
 0002:000d24b8       _huff_book__44p5_long      000000018010b4b8     libvorbisenc:vorbisenc.obj
 0002:000d24f0       _vq_lengthlist__16c0_s_p5_0 000000018010b4f0     libvorbisenc:vorbisenc.obj
 0002:000d2638       _vq_quantlist__16u1__p8_1  000000018010b638     libvorbisenc:vorbisenc.obj
 0002:000d2668       _vq_quantlist__44c4_s_p9_1 000000018010b668     libvorbisenc:vorbisenc.obj
 0002:000d26a8       _44u0__p2_0                000000018010b6a8     libvorbisenc:vorbisenc.obj
 0002:000d26e0       _vq_quantlist__44p4_p2_0   000000018010b6e0     libvorbisenc:vorbisenc.obj
 0002:000d26f8       _44c8_s_p6_0               000000018010b6f8     libvorbisenc:vorbisenc.obj
 0002:000d2730       _44u8_p4_0                 000000018010b730     libvorbisenc:vorbisenc.obj
 0002:000d2768       _44un1__p3_0               000000018010b768     libvorbisenc:vorbisenc.obj
 0002:000d27a0       _vq_lengthlist__44c1_sm_p6_0 000000018010b7a0     libvorbisenc:vorbisenc.obj
 0002:000d28e8       _vq_quantlist__16c2_s_p6_1 000000018010b8e8     libvorbisenc:vorbisenc.obj
 0002:000d2900       _resbook_44p_8             000000018010b900     libvorbisenc:vorbisenc.obj
 0002:000d2a80       _vq_quantlist__44p9_p4_0   000000018010ba80     libvorbisenc:vorbisenc.obj
 0002:000d2a90       _vq_lengthlist__44u0__p7_0 000000018010ba90     libvorbisenc:vorbisenc.obj
 0002:000d3458       _44c6_s_p8_1               000000018010c458     libvorbisenc:vorbisenc.obj
 0002:000d3490       _huff_lengthlist__16u0__single 000000018010c490     libvorbisenc:vorbisenc.obj
 0002:000d3590       _huff_lengthlist_line_1024x27_3sub3 000000018010c590     libvorbisenc:vorbisenc.obj
 0002:000d3790       blocksize_long_44          000000018010c790     libvorbisenc:vorbisenc.obj
 0002:000d37c0       _vq_lengthlist__44p6_p7_2  000000018010c7c0     libvorbisenc:vorbisenc.obj
 0002:000d3828       _vq_quantlist__44c1_sm_p7_1 000000018010c828     libvorbisenc:vorbisenc.obj
 0002:000d3840       _44c3_s_p7_1               000000018010c840     libvorbisenc:vorbisenc.obj
 0002:000d3878       _vq_quantlist__44cn1_s_p7_0 000000018010c878     libvorbisenc:vorbisenc.obj
 0002:000d38b0       _vq_lengthlist__44p1_p2_1  000000018010c8b0     libvorbisenc:vorbisenc.obj
 0002:000d3c80       _44p7_p1_0                 000000018010cc80     libvorbisenc:vorbisenc.obj
 0002:000d3cb8       _vq_quantlist__44p4_p5_1   000000018010ccb8     libvorbisenc:vorbisenc.obj
 0002:000d3cd8       _vq_quantlist__44c2_s_p5_0 000000018010ccd8     libvorbisenc:vorbisenc.obj
 0002:000d3d00       _vq_quantlist__44c9_s_p6_1 000000018010cd00     libvorbisenc:vorbisenc.obj
 0002:000d3d18       _44un1__p5_0               000000018010cd18     libvorbisenc:vorbisenc.obj
 0002:000d3d50       _vq_lengthlist__16c1_s_p3_0 000000018010cd50     libvorbisenc:vorbisenc.obj
 0002:000d4718       _8u1__p4_0                 000000018010d718     libvorbisenc:vorbisenc.obj
 0002:000d4750       _vq_quantlist__44p9_p7_3   000000018010d750     libvorbisenc:vorbisenc.obj
 0002:000d47b8       _44c0_s_p3_0               000000018010d7b8     libvorbisenc:vorbisenc.obj
 0002:000d47f0       _44c4_s_p8_0               000000018010d7f0     libvorbisenc:vorbisenc.obj
 0002:000d4828       _psy_ath_abs_16            000000018010d828     libvorbisenc:vorbisenc.obj
 0002:000d4838       _44u4__p6_1                000000018010d838     libvorbisenc:vorbisenc.obj
 0002:000d4870       _huff_lengthlist_line_2048x27_1sub1 000000018010d870     libvorbisenc:vorbisenc.obj
 0002:000d4a70       _vq_lengthlist__44u6__p7_1 000000018010da70     libvorbisenc:vorbisenc.obj
 0002:000d4c58       _vq_quantlist__44c0_s_p3_0 000000018010dc58     libvorbisenc:vorbisenc.obj
 0002:000d4c80       _vq_quantlist__44c8_s_p8_0 000000018010dc80     libvorbisenc:vorbisenc.obj
 0002:000d4cc0       _44u0__p6_0                000000018010dcc0     libvorbisenc:vorbisenc.obj
 0002:000d4cf8       _44p2_p2_0                 000000018010dcf8     libvorbisenc:vorbisenc.obj
 0002:000d4d30       _vq_quantlist__16u2_p9_0   000000018010dd30     libvorbisenc:vorbisenc.obj
 0002:000d4d70       _vq_lengthlist__44c0_s_p1_0 000000018010dd70     libvorbisenc:vorbisenc.obj
 0002:000db3f8       _44c9_s_p7_1               00000001801143f8     libvorbisenc:vorbisenc.obj
 0002:000db430       _psy_noisebias_16          0000000180114430     libvorbisenc:vorbisenc.obj
 0002:000db760       _vq_lengthlist__8c1_s_p9_2 0000000180114760     libvorbisenc:vorbisenc.obj
 0002:000dbe48       _44u8_p9_0                 0000000180114e48     libvorbisenc:vorbisenc.obj
 0002:000dbe80       _floor_128x11_books        0000000180114e80     libvorbisenc:vorbisenc.obj
 0002:000dbee0       _vq_quantlist__44p5_p3_0   0000000180114ee0     libvorbisenc:vorbisenc.obj
 0002:000dbef0       _huff_lengthlist__16c1_s_short 0000000180114ef0     libvorbisenc:vorbisenc.obj
 0002:000dc080       _vq_quantlist__44c6_s_p4_0 0000000180115080     libvorbisenc:vorbisenc.obj
 0002:000dc0c8       _vq_quantlist__44u4__p3_0  00000001801150c8     libvorbisenc:vorbisenc.obj
 0002:000dc0e0       _huff_lengthlist__44u4__short 00000001801150e0     libvorbisenc:vorbisenc.obj
 0002:000dc1e0       _huff_lengthlist__16c1_s_long 00000001801151e0     libvorbisenc:vorbisenc.obj
 0002:000dc370       _vq_lengthlist__44u2__p4_0 0000000180115370     libvorbisenc:vorbisenc.obj
 0002:000dcd38       _vq_quantlist__16c1_s_p3_0 0000000180115d38     libvorbisenc:vorbisenc.obj
 0002:000dcd50       _vq_quantlist__44u7__p9_2  0000000180115d50     libvorbisenc:vorbisenc.obj
 0002:000dce18       _44c3_s_p5_0               0000000180115e18     libvorbisenc:vorbisenc.obj
 0002:000dce50       _resbook_44sm_n1           0000000180115e50     libvorbisenc:vorbisenc.obj
 0002:000dcfd0       _vq_quantlist__44u9_p9_2   0000000180115fd0     libvorbisenc:vorbisenc.obj
 0002:000dd098       _44p7_p6_1                 0000000180116098     libvorbisenc:vorbisenc.obj
 0002:000dd0d0       _vq_quantlist__44p5_p7_3   00000001801160d0     libvorbisenc:vorbisenc.obj
 0002:000dd138       _vq_quantlist__44u7__p6_0  0000000180116138     libvorbisenc:vorbisenc.obj
 0002:000dd160       _huff_lengthlist__44c4_s_long 0000000180116160     libvorbisenc:vorbisenc.obj
 0002:000dd2f0       _vq_lengthlist__16u0__p6_0 00000001801162f0     libvorbisenc:vorbisenc.obj
 0002:000dd598       _44c7_s_p9_2               0000000180116598     libvorbisenc:vorbisenc.obj
 0002:000dd5d0       _huff_book__44p1_long      00000001801165d0     libvorbisenc:vorbisenc.obj
 0002:000dd608       _44cn1_s_p7_1              0000000180116608     libvorbisenc:vorbisenc.obj
 0002:000dd640       _vq_lengthlist__44p4_p7_0  0000000180116640     libvorbisenc:vorbisenc.obj
 0002:000dda10       _44p3_p3_0                 0000000180116a10     libvorbisenc:vorbisenc.obj
 0002:000dda48       _vq_quantlist__44c2_s_p4_0 0000000180116a48     libvorbisenc:vorbisenc.obj
 0002:000dda70       _vq_lengthlist__16u2_p5_1  0000000180116a70     libvorbisenc:vorbisenc.obj
 0002:000ddc58       _huff_book_line_256x7_class0 0000000180116c58     libvorbisenc:vorbisenc.obj
 0002:000ddc90       _vq_lengthlist__44c4_s_p9_2 0000000180116c90     libvorbisenc:vorbisenc.obj
 0002:000de378       _44p8_l0_1                 0000000180117378     libvorbisenc:vorbisenc.obj
 0002:000de3b0       _huff_lengthlist__16c2_s_short 00000001801173b0     libvorbisenc:vorbisenc.obj
 0002:000de540       _vq_lengthlist__44pn1_p2_0 0000000180117540     libvorbisenc:vorbisenc.obj
 0002:000de910       _vq_quantlist__44p3_p6_0   0000000180117910     libvorbisenc:vorbisenc.obj
 0002:000de920       _vq_lengthlist__44u3__p5_0 0000000180117920     libvorbisenc:vorbisenc.obj
 0002:000dea68       _44p3_l1_0                 0000000180117a68     libvorbisenc:vorbisenc.obj
 0002:000deaa0       _vq_lengthlist__44p9_l0_1  0000000180117aa0     libvorbisenc:vorbisenc.obj
 0002:000deb08       _vq_quantlist__44u2__p7_2  0000000180117b08     libvorbisenc:vorbisenc.obj
 0002:000deb40       _44p9_p7_0                 0000000180117b40     libvorbisenc:vorbisenc.obj
 0002:000deb78       _vq_quantlist__44p1_p4_0   0000000180117b78     libvorbisenc:vorbisenc.obj
 0002:000deb90       _44c3_s_p4_0               0000000180117b90     libvorbisenc:vorbisenc.obj
 0002:000debc8       _44c0_sm_p6_0              0000000180117bc8     libvorbisenc:vorbisenc.obj
 0002:000dec00       _vq_quantlist__16c1_s_p1_0 0000000180117c00     libvorbisenc:vorbisenc.obj
 0002:000dec10       _res_16s_0                 0000000180117c10     libvorbisenc:vorbisenc.obj
 0002:000dec48       _44u5__p8_1                0000000180117c48     libvorbisenc:vorbisenc.obj
 0002:000dec80       _vq_lengthlist__44c0_s_p8_0 0000000180117c80     libvorbisenc:vorbisenc.obj
 0002:000df648       _vq_quantlist__16u2_p5_0   0000000180118648     libvorbisenc:vorbisenc.obj
 0002:000df658       _vq_quantlist__44c0_s_p2_0 0000000180118658     libvorbisenc:vorbisenc.obj
 0002:000df670       _vq_lengthlist__44u8_p5_0  0000000180118670     libvorbisenc:vorbisenc.obj
 0002:000df7b8       _8c0_s_p7_1                00000001801187b8     libvorbisenc:vorbisenc.obj
 0002:000df7f0       _resbook_16s_0             00000001801187f0     libvorbisenc:vorbisenc.obj
 0002:000df970       _vq_lengthlist__44u7__p2_0 0000000180118970     libvorbisenc:vorbisenc.obj
 0002:000dfab8       _vq_quantlist__8u0__p6_0   0000000180118ab8     libvorbisenc:vorbisenc.obj
 0002:000dfaf0       _vq_lengthlist__44u7__p9_2 0000000180118af0     libvorbisenc:vorbisenc.obj
 0002:000dfbb8       _44c0_s_p7_1               0000000180118bb8     libvorbisenc:vorbisenc.obj
 0002:000dfbf0       _vq_quantlist__44c0_s_p5_0 0000000180118bf0     libvorbisenc:vorbisenc.obj
 0002:000dfc38       _huff_lengthlist_line_128x17_class1 0000000180118c38     libvorbisenc:vorbisenc.obj
 0002:000dfc58       _vq_quantlist__44p1_p4_1   0000000180118c58     libvorbisenc:vorbisenc.obj
 0002:000dfc78       _vq_quantlist__44c4_s_p8_1 0000000180118c78     libvorbisenc:vorbisenc.obj
 0002:000dfc90       ve_setup_11_uncoupled      0000000180118c90     libvorbisenc:vorbisenc.obj
 0002:000dfdc0       _vq_quantlist__44pn1_p2_1  0000000180118dc0     libvorbisenc:vorbisenc.obj
 0002:000dfdd0       _vq_quantlist__16u1__p8_0  0000000180118dd0     libvorbisenc:vorbisenc.obj
 0002:000dfe00       _vq_quantlist__16u0__p7_1  0000000180118e00     libvorbisenc:vorbisenc.obj
 0002:000dfe40       _vq_quantlist__44p5_p2_0   0000000180118e40     libvorbisenc:vorbisenc.obj
 0002:000dfe58       _vq_quantlist__44c7_s_p8_0 0000000180118e58     libvorbisenc:vorbisenc.obj
 0002:000dfe98       _44p6_p7_0                 0000000180118e98     libvorbisenc:vorbisenc.obj
 0002:000dfed0       _16u0__p6_1                0000000180118ed0     libvorbisenc:vorbisenc.obj
 0002:000dff08       _44c0_s_p8_0               0000000180118f08     libvorbisenc:vorbisenc.obj
 0002:000dff40       _res_44u_n1                0000000180118f40     libvorbisenc:vorbisenc.obj
 0002:000dffb0       _vq_lengthlist__16c1_s_p8_0 0000000180118fb0     libvorbisenc:vorbisenc.obj
 0002:000e0258       quality_mapping_8          0000000180119258     libvorbisenc:vorbisenc.obj
 0002:000e0270       _16c2_s_p6_1               0000000180119270     libvorbisenc:vorbisenc.obj
 0002:000e02a8       _44c8_s_p3_0               00000001801192a8     libvorbisenc:vorbisenc.obj
 0002:000e02e0       _huff_lengthlist__44u5__long 00000001801192e0     libvorbisenc:vorbisenc.obj
 0002:000e0470       _44c3_s_p9_0               0000000180119470     libvorbisenc:vorbisenc.obj
 0002:000e04a8       _16c1_s_p7_1               00000001801194a8     libvorbisenc:vorbisenc.obj
 0002:000e04e0       _huff_book_line_128x17_1sub1 00000001801194e0     libvorbisenc:vorbisenc.obj
 0002:000e0518       _huff_book_line_256x7_0sub3 0000000180119518     libvorbisenc:vorbisenc.obj
 0002:000e0550       rate_mapping_44_un         0000000180119550     libvorbisenc:vorbisenc.obj
 0002:000e05b0       _huff_lengthlist__44p1_lfe 00000001801195b0     libvorbisenc:vorbisenc.obj
 0002:000e05c0       _44c9_s_p2_0               00000001801195c0     libvorbisenc:vorbisenc.obj
 0002:000e05f8       _vq_quantlist__44p4_l0_0   00000001801195f8     libvorbisenc:vorbisenc.obj
 0002:000e0630       _huff_lengthlist_line_256x7_0sub3 0000000180119630     libvorbisenc:vorbisenc.obj
 0002:000e0730       _vq_quantlist__44p8_l0_1   0000000180119730     libvorbisenc:vorbisenc.obj
 0002:000e0748       _16u1__p3_0                0000000180119748     libvorbisenc:vorbisenc.obj
 0002:000e0780       _vq_lengthlist__44c3_s_p3_0 0000000180119780     libvorbisenc:vorbisenc.obj
 0002:000e1148       _huff_lengthlist__44p3_lfe 000000018011a148     libvorbisenc:vorbisenc.obj
 0002:000e1158       _8u1__p9_0                 000000018011a158     libvorbisenc:vorbisenc.obj
 0002:000e1190       _huff_lengthlist__8c0_s_single 000000018011a190     libvorbisenc:vorbisenc.obj
 0002:000e1320       _vq_lengthlist__8c0_s_p4_0 000000018011a320     libvorbisenc:vorbisenc.obj
 0002:000e1468       _44cn1_s_p1_0              000000018011a468     libvorbisenc:vorbisenc.obj
 0002:000e14a0       _huff_lengthlist__44u1__short 000000018011a4a0     libvorbisenc:vorbisenc.obj
 0002:000e15a0       _huff_book__44p6_short     000000018011a5a0     libvorbisenc:vorbisenc.obj
 0002:000e15d8       _vq_quantlist__44u3__p4_0  000000018011a5d8     libvorbisenc:vorbisenc.obj
 0002:000e15f0       _huff_lengthlist__44cn1_s_short 000000018011a5f0     libvorbisenc:vorbisenc.obj
 0002:000e1738       _44p4_p7_2                 000000018011a738     libvorbisenc:vorbisenc.obj
 0002:000e1770       _res_44s_6                 000000018011a770     libvorbisenc:vorbisenc.obj
 0002:000e17e0       _vq_quantlist__44c1_s_p6_1 000000018011a7e0     libvorbisenc:vorbisenc.obj
 0002:000e1810       _vq_lengthlist__44p2_p7_0  000000018011a810     libvorbisenc:vorbisenc.obj
 0002:000e1be0       _16u0__p1_0                000000018011abe0     libvorbisenc:vorbisenc.obj
 0002:000e1c18       _44cn1_sm_p7_0             000000018011ac18     libvorbisenc:vorbisenc.obj
 0002:000e1c50       _huff_lengthlist__44p8_long 000000018011ac50     libvorbisenc:vorbisenc.obj
 0002:000e1d50       _huff_lengthlist_line_128x11_3sub2 000000018011ad50     libvorbisenc:vorbisenc.obj
 0002:000e1e18       _vq_quantlist__44u5__p1_0  000000018011ae18     libvorbisenc:vorbisenc.obj
 0002:000e1e28       _44u8_p7_0                 000000018011ae28     libvorbisenc:vorbisenc.obj
 0002:000e1e60       _vq_lengthlist__44u2__p7_0 000000018011ae60     libvorbisenc:vorbisenc.obj
 0002:000e1fa8       _huff_book_line_256x4low_0sub3 000000018011afa8     libvorbisenc:vorbisenc.obj
 0002:000e1fe0       _vq_quantlist__44p6_p7_3   000000018011afe0     libvorbisenc:vorbisenc.obj
 0002:000e2048       _vq_quantlist__44u5__p6_0  000000018011b048     libvorbisenc:vorbisenc.obj
 0002:000e2070       _resbook_44s_5             000000018011b070     libvorbisenc:vorbisenc.obj
 0002:000e21f0       _vq_lengthlist__44cn1_s_p4_0 000000018011b1f0     libvorbisenc:vorbisenc.obj
 0002:000e2338       _vq_quantlist__44c8_s_p6_1 000000018011b338     libvorbisenc:vorbisenc.obj
 0002:000e2350       _vq_lengthlist__44c6_s_p3_0 000000018011b350     libvorbisenc:vorbisenc.obj
 0002:000e2498       _44u3__p7_1                000000018011b498     libvorbisenc:vorbisenc.obj
 0002:000e24d0       _res_44p51_9               000000018011b4d0     libvorbisenc:vorbisenc.obj
 0002:000e2578       _huff_book_line_1024x27_4sub3 000000018011b578     libvorbisenc:vorbisenc.obj
 0002:000e25b0       _res_44s_5                 000000018011b5b0     libvorbisenc:vorbisenc.obj
 0002:000e2620       _vq_lengthlist__44p7_p3_1  000000018011b620     libvorbisenc:vorbisenc.obj
 0002:000e29f0       _vq_quantlist__16c1_s_p9_1 000000018011b9f0     libvorbisenc:vorbisenc.obj
 0002:000e2a30       _vq_lengthlist__44p7_p4_1  000000018011ba30     libvorbisenc:vorbisenc.obj
 0002:000e5b08       _vq_quantlist__16c1_s_p4_0 000000018011eb08     libvorbisenc:vorbisenc.obj
 0002:000e5b30       _vq_lengthlist__44c3_s_p8_0 000000018011eb30     libvorbisenc:vorbisenc.obj
 0002:000e5dd8       _vq_quantlist__44p5_p3_1   000000018011edd8     libvorbisenc:vorbisenc.obj
 0002:000e5de8       _vq_quantlist__44c0_sm_p2_0 000000018011ede8     libvorbisenc:vorbisenc.obj
 0002:000e5e00       _vq_lengthlist__44u2__p7_2 000000018011ee00     libvorbisenc:vorbisenc.obj
 0002:000e60a8       _floor_Xx0_books           000000018011f0a8     libvorbisenc:vorbisenc.obj
 0002:000e60b0       _vq_quantlist__44u2__p2_0  000000018011f0b0     libvorbisenc:vorbisenc.obj
 0002:000e60c0       _huff_book__44u8__long     000000018011f0c0     libvorbisenc:vorbisenc.obj
 0002:000e60f8       _44u9_p4_0                 000000018011f0f8     libvorbisenc:vorbisenc.obj
 0002:000e6130       _vq_quantlist__44cn1_s_p6_0 000000018011f130     libvorbisenc:vorbisenc.obj
 0002:000e6140       _vq_lengthlist__16u0__p3_0 000000018011f140     libvorbisenc:vorbisenc.obj
 0002:000e6b08       _16u2_p7_1                 000000018011fb08     libvorbisenc:vorbisenc.obj
 0002:000e6b40       _16c1_s_p1_0               000000018011fb40     libvorbisenc:vorbisenc.obj
 0002:000e6b78       _44p4_p4_0                 000000018011fb78     libvorbisenc:vorbisenc.obj
 0002:000e6bb0       _vq_lengthlist__44pn1_p6_2 000000018011fbb0     libvorbisenc:vorbisenc.obj
 0002:000e6c18       _8c1_s_p6_0                000000018011fc18     libvorbisenc:vorbisenc.obj
 0002:000e6c50       _44p9_p5_0                 000000018011fc50     libvorbisenc:vorbisenc.obj
 0002:000e6c88       _44c1_s_p8_0               000000018011fc88     libvorbisenc:vorbisenc.obj
 0002:000e6cc0       _vq_lengthlist__44p9_p4_0  000000018011fcc0     libvorbisenc:vorbisenc.obj
 0002:000e7090       _vq_lengthlist__44p4_l0_0  0000000180120090     libvorbisenc:vorbisenc.obj
 0002:000e7338       _vq_quantlist__44c7_s_p2_0 0000000180120338     libvorbisenc:vorbisenc.obj
 0002:000e7350       _res_44s_1                 0000000180120350     libvorbisenc:vorbisenc.obj
 0002:000e73c0       _huff_lengthlist__44p6_long 00000001801203c0     libvorbisenc:vorbisenc.obj
 0002:000e74c0       _vq_quantlist__44un1__p1_0 00000001801204c0     libvorbisenc:vorbisenc.obj
 0002:000e74d0       _huff_book__44p2_lfe       00000001801204d0     libvorbisenc:vorbisenc.obj
 0002:000e7508       _huff_book_line_512x17_3sub1 0000000180120508     libvorbisenc:vorbisenc.obj
 0002:000e7540       _vq_quantlist__44c6_s_p7_1 0000000180120540     libvorbisenc:vorbisenc.obj
 0002:000e7570       _vq_lengthlist__44p5_p7_2  0000000180120570     libvorbisenc:vorbisenc.obj
 0002:000e75d8       _vq_lengthlist__44p6_l1_0  00000001801205d8     libvorbisenc:vorbisenc.obj
 0002:000e7600       _44u0__p5_0                0000000180120600     libvorbisenc:vorbisenc.obj
 0002:000e7638       _vq_quantlist__44un1__p6_0 0000000180120638     libvorbisenc:vorbisenc.obj
 0002:000e7670       _vq_lengthlist__44u7__p5_0 0000000180120670     libvorbisenc:vorbisenc.obj
 0002:000e77b8       _vq_quantlist__44c9_s_p8_0 00000001801207b8     libvorbisenc:vorbisenc.obj
 0002:000e77f8       _vq_quantlist__44c6_s_p6_0 00000001801207f8     libvorbisenc:vorbisenc.obj
 0002:000e7830       _vq_lengthlist__44c3_s_p7_1 0000000180120830     libvorbisenc:vorbisenc.obj
 0002:000e7a18       _44c8_s_p7_1               0000000180120a18     libvorbisenc:vorbisenc.obj
 0002:000e7a50       _huff_lengthlist_line_128x11_2sub2 0000000180120a50     libvorbisenc:vorbisenc.obj
 0002:000e7b18       _vq_quantlist__44c8_s_p6_0 0000000180120b18     libvorbisenc:vorbisenc.obj
 0002:000e7b50       _vq_lengthlist__44p4_p7_1  0000000180120b50     libvorbisenc:vorbisenc.obj
 0002:000e7f20       _vq_quantlist__44c4_s_p5_0 0000000180120f20     libvorbisenc:vorbisenc.obj
 0002:000e7f48       _huff_book_line_512x17_1sub1 0000000180120f48     libvorbisenc:vorbisenc.obj
 0002:000e7f80       _vq_quantlist__44p9_l0_1   0000000180120f80     libvorbisenc:vorbisenc.obj
 0002:000e7f98       _44u6__p3_0                0000000180120f98     libvorbisenc:vorbisenc.obj
 0002:000e7fd0       _44c0_s_p7_0               0000000180120fd0     libvorbisenc:vorbisenc.obj
 0002:000e8008       _16c0_s_p8_1               0000000180121008     libvorbisenc:vorbisenc.obj
 0002:000e8040       _vq_lengthlist__44c2_s_p6_0 0000000180121040     libvorbisenc:vorbisenc.obj
 0002:000e84c8       _vq_quantlist__44c4_s_p3_0 00000001801214c8     libvorbisenc:vorbisenc.obj
 0002:000e84e0       _huff_lengthlist_line_128x17_0sub0 00000001801214e0     libvorbisenc:vorbisenc.obj
 0002:000e86e0       _huff_book__44u2__long     00000001801216e0     libvorbisenc:vorbisenc.obj
 0002:000e8718       _44c3_s_p3_0               0000000180121718     libvorbisenc:vorbisenc.obj
 0002:000e8750       _vq_lengthlist__16c2_s_p5_0 0000000180121750     libvorbisenc:vorbisenc.obj
 0002:000e8898       _floor_256x4_books         0000000180121898     libvorbisenc:vorbisenc.obj
 0002:000e88c0       _vq_lengthlist__44c9_s_p8_0 00000001801218c0     libvorbisenc:vorbisenc.obj
 0002:000e8c48       _44un1__p7_0               0000000180121c48     libvorbisenc:vorbisenc.obj
 0002:000e8c80       _vq_lengthlist__16u2_p8_0  0000000180121c80     libvorbisenc:vorbisenc.obj
 0002:000e9008       _psy_ath_floater_8         0000000180122008     libvorbisenc:vorbisenc.obj
 0002:000e9018       _44p5_l0_0                 0000000180122018     libvorbisenc:vorbisenc.obj
 0002:000e9050       _44c2_s_p7_1               0000000180122050     libvorbisenc:vorbisenc.obj
 0002:000e9088       _vq_quantlist__44c6_s_p3_0 0000000180122088     libvorbisenc:vorbisenc.obj
 0002:000e90b0       _vq_quantlist__44u3__p6_0  00000001801220b0     libvorbisenc:vorbisenc.obj
 0002:000e90e8       _44u6__p9_1                00000001801220e8     libvorbisenc:vorbisenc.obj
 0002:000e9120       _vq_quantlist__44c1_sm_p8_2 0000000180122120     libvorbisenc:vorbisenc.obj
 0002:000e9168       _44cn1_sm_p4_0             0000000180122168     libvorbisenc:vorbisenc.obj
 0002:000e91a0       _44c1_sm_p6_1              00000001801221a0     libvorbisenc:vorbisenc.obj
 0002:000e91d8       _44c7_s_p9_1               00000001801221d8     libvorbisenc:vorbisenc.obj
 0002:000e9210       _44p2_l0_0                 0000000180122210     libvorbisenc:vorbisenc.obj
 0002:000e9248       _44p2_p7_3                 0000000180122248     libvorbisenc:vorbisenc.obj
 0002:000e9280       _huff_lengthlist_line_128x11_class2 0000000180122280     libvorbisenc:vorbisenc.obj
 0002:000e9380       _huff_book__44c4_s_long    0000000180122380     libvorbisenc:vorbisenc.obj
 0002:000e93b8       _vq_quantlist__8c0_s_p8_1  00000001801223b8     libvorbisenc:vorbisenc.obj
 0002:000e93d0       _vq_lengthlist__16c2_s_p6_0 00000001801223d0     libvorbisenc:vorbisenc.obj
 0002:000e9678       _16u1__p9_2                0000000180122678     libvorbisenc:vorbisenc.obj
 0002:000e96b0       _vq_lengthlist__44c5_s_p8_0 00000001801226b0     libvorbisenc:vorbisenc.obj
 0002:000e9958       _huff_book_line_2048x27_class2 0000000180122958     libvorbisenc:vorbisenc.obj
 0002:000e9990       _vq_lengthlist__16c1_s_p9_1 0000000180122990     libvorbisenc:vorbisenc.obj
 0002:000e9d18       _44p4_p2_0                 0000000180122d18     libvorbisenc:vorbisenc.obj
 0002:000e9d50       _vq_lengthlist__44p5_p3_1  0000000180122d50     libvorbisenc:vorbisenc.obj
 0002:000ea120       _vq_lengthlist__44u8_p9_1  0000000180123120     libvorbisenc:vorbisenc.obj
 0002:000ea6c8       _44c4_s_p3_0               00000001801236c8     libvorbisenc:vorbisenc.obj
 0002:000ea700       _vq_lengthlist__44p1_p1_0  0000000180123700     libvorbisenc:vorbisenc.obj
 0002:000eaad0       _vq_lengthlist__44p8_p2_0  0000000180123ad0     libvorbisenc:vorbisenc.obj
 0002:000edba8       _44c9_s_p9_0               0000000180126ba8     libvorbisenc:vorbisenc.obj
 0002:000edbe0       _8u1__p9_2                 0000000180126be0     libvorbisenc:vorbisenc.obj
 0002:000edc18       _vq_quantlist__16u0__p1_0  0000000180126c18     libvorbisenc:vorbisenc.obj
 0002:000edc28       _44c0_sm_p7_1              0000000180126c28     libvorbisenc:vorbisenc.obj
 0002:000edc60       _vq_lengthlist__44u4__p6_1 0000000180126c60     libvorbisenc:vorbisenc.obj
 0002:000edcc8       _44pn1_p4_1                0000000180126cc8     libvorbisenc:vorbisenc.obj
 0002:000edd00       _huff_lengthlist__44pn1_long 0000000180126d00     libvorbisenc:vorbisenc.obj
 0002:000eddc8       _vq_quantlist__44c0_s_p8_1 0000000180126dc8     libvorbisenc:vorbisenc.obj
 0002:000ede00       _vq_quantlist__8c0_s_p6_0  0000000180126e00     libvorbisenc:vorbisenc.obj
 0002:000ede48       _vq_quantlist__44c1_sm_p2_0 0000000180126e48     libvorbisenc:vorbisenc.obj
 0002:000ede60       _vq_lengthlist__44un1__p6_1 0000000180126e60     libvorbisenc:vorbisenc.obj
 0002:000edec8       _16u2_p8_1                 0000000180126ec8     libvorbisenc:vorbisenc.obj
 0002:000edf00       _vq_lengthlist__44u5__p9_1 0000000180126f00     libvorbisenc:vorbisenc.obj
 0002:000ee288       _44p9_p6_1                 0000000180127288     libvorbisenc:vorbisenc.obj
 0002:000ee2c0       _vq_lengthlist__8c0_s_p7_0 00000001801272c0     libvorbisenc:vorbisenc.obj
 0002:000ee408       _8c0_s_p8_1                0000000180127408     libvorbisenc:vorbisenc.obj
 0002:000ee440       _huff_lengthlist__44p6_short 0000000180127440     libvorbisenc:vorbisenc.obj
 0002:000ee540       _44p2_p7_2                 0000000180127540     libvorbisenc:vorbisenc.obj
 0002:000ee578       _44p0_l0_0                 0000000180127578     libvorbisenc:vorbisenc.obj
 0002:000ee5b0       _vq_lengthlist__44p4_p4_0  00000001801275b0     libvorbisenc:vorbisenc.obj
 0002:000ee980       _44c5_s_p6_0               0000000180127980     libvorbisenc:vorbisenc.obj
 0002:000ee9b8       _44p5_p4_0                 00000001801279b8     libvorbisenc:vorbisenc.obj
 0002:000ee9f0       _huff_lengthlist_line_1024x27_4sub2 00000001801279f0     libvorbisenc:vorbisenc.obj
 0002:000eeab8       _44u8_p5_0                 0000000180127ab8     libvorbisenc:vorbisenc.obj
 0002:000eeaf0       _vq_lengthlist__44u4__p7_0 0000000180127af0     libvorbisenc:vorbisenc.obj
 0002:000eed98       _huff_lengthlist_line_256x4_0sub1 0000000180127d98     libvorbisenc:vorbisenc.obj
 0002:000eedc0       _res_16u_2                 0000000180127dc0     libvorbisenc:vorbisenc.obj
 0002:000eee30       _vq_lengthlist__44u5__p8_0 0000000180127e30     libvorbisenc:vorbisenc.obj
 0002:000ef018       _8u0__p6_1                 0000000180128018     libvorbisenc:vorbisenc.obj
 0002:000ef050       _vq_lengthlist__44c7_s_p8_0 0000000180128050     libvorbisenc:vorbisenc.obj
 0002:000ef3d8       _vq_quantlist__44cn1_s_p6_1 00000001801283d8     libvorbisenc:vorbisenc.obj
 0002:000ef408       _44c9_s_p9_2               0000000180128408     libvorbisenc:vorbisenc.obj
 0002:000ef440       _vq_lengthlist__8u1__p9_1  0000000180128440     libvorbisenc:vorbisenc.obj
 0002:000ef7c8       _44u3__p2_0                00000001801287c8     libvorbisenc:vorbisenc.obj
 0002:000ef800       _resbook_8u_0              0000000180128800     libvorbisenc:vorbisenc.obj
 0002:000ef980       _res_44u_5                 0000000180128980     libvorbisenc:vorbisenc.obj
 0002:000ef9f0       _vq_lengthlist__44p7_p5_1  00000001801289f0     libvorbisenc:vorbisenc.obj
 0002:000efa10       _vq_quantlist__44p8_p2_0   0000000180128a10     libvorbisenc:vorbisenc.obj
 0002:000efa28       _huff_lengthlist__44p0_lfe 0000000180128a28     libvorbisenc:vorbisenc.obj
 0002:000efa38       _44cn1_sm_p5_0             0000000180128a38     libvorbisenc:vorbisenc.obj
 0002:000efa70       _huff_lengthlist__44p1_long 0000000180128a70     libvorbisenc:vorbisenc.obj
 0002:000efb38       _huff_book_line_2048x27_3sub1 0000000180128b38     libvorbisenc:vorbisenc.obj
 0002:000efb70       _vq_lengthlist__44c0_sm_p8_0 0000000180128b70     libvorbisenc:vorbisenc.obj
 0002:000efcb8       _44un1__p7_1               0000000180128cb8     libvorbisenc:vorbisenc.obj
 0002:000efcf0       _vq_lengthlist__44cn1_s_p1_0 0000000180128cf0     libvorbisenc:vorbisenc.obj
 0002:000f6378       _44u4__p7_0                000000018012f378     libvorbisenc:vorbisenc.obj
 0002:000f63b0       _vq_quantlist__44c8_s_p4_0 000000018012f3b0     libvorbisenc:vorbisenc.obj
 0002:000f63f8       _huff_lengthlist_line_128x7_0sub1 000000018012f3f8     libvorbisenc:vorbisenc.obj
 0002:000f6420       _resbook_16u_2             000000018012f420     libvorbisenc:vorbisenc.obj
 0002:000f65a0       _vq_quantlist__8c1_s_p7_1  000000018012f5a0     libvorbisenc:vorbisenc.obj
 0002:000f65d0       _vq_lengthlist__16c2_s_p9_2 000000018012f5d0     libvorbisenc:vorbisenc.obj
 0002:000f6698       _vq_quantlist__44p3_l1_0   000000018012f698     libvorbisenc:vorbisenc.obj
 0002:000f66a8       _vq_quantlist__16u2_p6_0   000000018012f6a8     libvorbisenc:vorbisenc.obj
 0002:000f66e0       _huff_lengthlist__16c2_s_long 000000018012f6e0     libvorbisenc:vorbisenc.obj
 0002:000f6870       _vq_quantlist__44pn1_p2_0  000000018012f870     libvorbisenc:vorbisenc.obj
 0002:000f6880       _resbook_44s_1             000000018012f880     libvorbisenc:vorbisenc.obj
 0002:000f6a00       _vq_lengthlist__44u4__p1_0 000000018012fa00     libvorbisenc:vorbisenc.obj
 0002:000f6b48       _vq_quantlist__44u1__p7_0  000000018012fb48     libvorbisenc:vorbisenc.obj
 0002:000f6b68       _vq_quantlist__44p6_l0_0   000000018012fb68     libvorbisenc:vorbisenc.obj
 0002:000f6ba0       _vq_quantlist__44c5_s_p6_0 000000018012fba0     libvorbisenc:vorbisenc.obj
 0002:000f6be8       _vq_quantlist__44c5_s_p3_0 000000018012fbe8     libvorbisenc:vorbisenc.obj
 0002:000f6c00       _huff_lengthlist__44u3__long 000000018012fc00     libvorbisenc:vorbisenc.obj
 0002:000f6d00       _vq_lengthlist__44c1_sm_p8_0 000000018012fd00     libvorbisenc:vorbisenc.obj
 0002:000f6fa8       _44c1_sm_p8_0              000000018012ffa8     libvorbisenc:vorbisenc.obj
 0002:000f6fe0       _resbook_44s_7             000000018012ffe0     libvorbisenc:vorbisenc.obj
 0002:000f7160       _vq_lengthlist__44u6__p8_0 0000000180130160     libvorbisenc:vorbisenc.obj
 0002:000f7348       _16c0_s_p7_0               0000000180130348     libvorbisenc:vorbisenc.obj
 0002:000f7380       _huff_lengthlist_line_2048x27_class3 0000000180130380     libvorbisenc:vorbisenc.obj
 0002:000f7780       _huff_lengthlist__44p7_long 0000000180130780     libvorbisenc:vorbisenc.obj
 0002:000f7880       _huff_lengthlist__44un1__long 0000000180130880     libvorbisenc:vorbisenc.obj
 0002:000f7980       _16c1_s_p9_2               0000000180130980     libvorbisenc:vorbisenc.obj
 0002:000f79b8       _16c0_s_p3_0               00000001801309b8     libvorbisenc:vorbisenc.obj
 0002:000f79f0       _vq_quantlist__44cn1_sm_p3_0 00000001801309f0     libvorbisenc:vorbisenc.obj
 0002:000f7a18       _44p3_p5_1                 0000000180130a18     libvorbisenc:vorbisenc.obj
 0002:000f7a50       _vq_quantlist__44c8_s_p1_0 0000000180130a50     libvorbisenc:vorbisenc.obj
 0002:000f7a60       _huff_book_line_256x4_0sub0 0000000180130a60     libvorbisenc:vorbisenc.obj
 0002:000f7a98       _44c2_s_p6_0               0000000180130a98     libvorbisenc:vorbisenc.obj
 0002:000f7ad0       _vq_lengthlist__44c9_s_p9_2 0000000180130ad0     libvorbisenc:vorbisenc.obj
 0002:000f7b98       _vq_quantlist__44p2_p1_0   0000000180130b98     libvorbisenc:vorbisenc.obj
 0002:000f7ba8       _16c1_s_p7_0               0000000180130ba8     libvorbisenc:vorbisenc.obj
 0002:000f7be0       _vq_lengthlist__44u7__p4_0 0000000180130be0     libvorbisenc:vorbisenc.obj
 0002:000f85a8       rate_mapping_11_uncoupled  00000001801315a8     libvorbisenc:vorbisenc.obj
 0002:000f85c0       _vq_lengthlist__44c2_s_p9_1 00000001801315c0     libvorbisenc:vorbisenc.obj
 0002:000f8868       _vq_quantlist__16u0__p4_0  0000000180131868     libvorbisenc:vorbisenc.obj
 0002:000f8880       _44cn1_sm_p1_0             0000000180131880     libvorbisenc:vorbisenc.obj
 0002:000f88b8       _huff_book__44p3_lfe       00000001801318b8     libvorbisenc:vorbisenc.obj
 0002:000f88f0       _vq_lengthlist__44cn1_sm_p8_2 00000001801318f0     libvorbisenc:vorbisenc.obj
 0002:000f8d78       _vq_quantlist__44p1_l1_0   0000000180131d78     libvorbisenc:vorbisenc.obj
 0002:000f8d88       _huff_book__44p0_short     0000000180131d88     libvorbisenc:vorbisenc.obj
 0002:000f8dc0       _vq_lengthlist__44u6__p6_0 0000000180131dc0     libvorbisenc:vorbisenc.obj
 0002:000f8f08       _vq_quantlist__44c5_s_p7_1 0000000180131f08     libvorbisenc:vorbisenc.obj
 0002:000f8f38       _huff_book__44p1_lfe       0000000180131f38     libvorbisenc:vorbisenc.obj
 0002:000f8f70       _resbook_8u_1              0000000180131f70     libvorbisenc:vorbisenc.obj
 0002:000f90f0       _vq_quantlist__44p5_p1_0   00000001801320f0     libvorbisenc:vorbisenc.obj
 0002:000f9100       _vq_lengthlist__44pn1_l0_0 0000000180132100     libvorbisenc:vorbisenc.obj
 0002:000f93a8       _44c0_s_p2_0               00000001801323a8     libvorbisenc:vorbisenc.obj
 0002:000f93e0       _resbook_44p_4             00000001801323e0     libvorbisenc:vorbisenc.obj
 0002:000f9560       _vq_quantlist__16u2_p4_0   0000000180132560     libvorbisenc:vorbisenc.obj
 0002:000f95a8       _vq_quantlist__44c7_s_p3_0 00000001801325a8     libvorbisenc:vorbisenc.obj
 0002:000f95d0       _huff_lengthlist_line_1024x27_class1 00000001801325d0     libvorbisenc:vorbisenc.obj
 0002:000f9610       _huff_lengthlist__44u5__short 0000000180132610     libvorbisenc:vorbisenc.obj
 0002:000f97a0       _vq_quantlist__44c7_s_p7_1 00000001801327a0     libvorbisenc:vorbisenc.obj
 0002:000f97d0       _vq_lengthlist__44c5_s_p2_0 00000001801327d0     libvorbisenc:vorbisenc.obj
 0002:000fa198       _vq_quantlist__44u5__p3_0  0000000180133198     libvorbisenc:vorbisenc.obj
 0002:000fa1b0       _huff_lengthlist_line_128x11_class3 00000001801331b0     libvorbisenc:vorbisenc.obj
 0002:000fa2b0       _vq_lengthlist__44p5_p6_1  00000001801332b0     libvorbisenc:vorbisenc.obj
 0002:000fa680       _noise_thresh_16           0000000180133680     libvorbisenc:vorbisenc.obj
 0002:000fa6a0       _vq_lengthlist__44c2_s_p3_0 00000001801336a0     libvorbisenc:vorbisenc.obj
 0002:000fb068       _44u4__p7_1                0000000180134068     libvorbisenc:vorbisenc.obj
 0002:000fb0a0       _44c0_sm_p5_0              00000001801340a0     libvorbisenc:vorbisenc.obj
 0002:000fb0d8       _44p9_p7_2                 00000001801340d8     libvorbisenc:vorbisenc.obj
 0002:000fb110       _huff_lengthlist_line_1024x27_4sub1 0000000180134110     libvorbisenc:vorbisenc.obj
 0002:000fb158       _huff_book_line_1024x27_1sub1 0000000180134158     libvorbisenc:vorbisenc.obj
 0002:000fb190       _vq_quantlist__8u1__p8_1   0000000180134190     libvorbisenc:vorbisenc.obj
 0002:000fb1c0       ve_setup_22_stereo         00000001801341c0     libvorbisenc:vorbisenc.obj
 0002:000fb2f0       _44p0_l0_1                 00000001801342f0     libvorbisenc:vorbisenc.obj
 0002:000fb328       _44p5_p6_0                 0000000180134328     libvorbisenc:vorbisenc.obj
 0002:000fb360       _vq_lengthlist__44c5_s_p9_1 0000000180134360     libvorbisenc:vorbisenc.obj
 0002:000fb7e8       _44u7__p6_0                00000001801347e8     libvorbisenc:vorbisenc.obj
 0002:000fb820       _vq_lengthlist__44cn1_sm_p7_0 0000000180134820     libvorbisenc:vorbisenc.obj
 0002:000fbac8       _vq_quantlist__44u3__p1_0  0000000180134ac8     libvorbisenc:vorbisenc.obj
 0002:000fbad8       _44p0_p3_0                 0000000180134ad8     libvorbisenc:vorbisenc.obj
 0002:000fbb10       _vq_lengthlist__44u8_p8_1  0000000180134b10     libvorbisenc:vorbisenc.obj
 0002:000fc1f8       _44c3_s_p9_1               00000001801351f8     libvorbisenc:vorbisenc.obj
 0002:000fc230       _44c8_s_p1_0               0000000180135230     libvorbisenc:vorbisenc.obj
 0002:000fc268       _vq_quantlist__44c4_s_p1_0 0000000180135268     libvorbisenc:vorbisenc.obj
 0002:000fc278       blocksize_8                0000000180135278     libvorbisenc:vorbisenc.obj
 0002:000fc280       _vq_lengthlist__8c0_s_p5_0 0000000180135280     libvorbisenc:vorbisenc.obj
 0002:000fc3c8       _16u1__p8_0                00000001801353c8     libvorbisenc:vorbisenc.obj
 0002:000fc400       _vq_lengthlist__44u4__p5_0 0000000180135400     libvorbisenc:vorbisenc.obj
 0002:000fc548       _16c1_s_p8_1               0000000180135548     libvorbisenc:vorbisenc.obj
 0002:000fc580       _44p4_p6_1                 0000000180135580     libvorbisenc:vorbisenc.obj
 0002:000fc5b8       _44c5_s_p2_0               00000001801355b8     libvorbisenc:vorbisenc.obj
 0002:000fc5f0       _psy_tone_masteratt_16     00000001801355f0     libvorbisenc:vorbisenc.obj
 0002:000fc640       _vq_lengthlist__16c1_s_p5_0 0000000180135640     libvorbisenc:vorbisenc.obj
 0002:000fc788       _vq_quantlist__8u1__p5_0   0000000180135788     libvorbisenc:vorbisenc.obj
 0002:000fc7b0       _vq_lengthlist__44cn1_s_p7_0 00000001801357b0     libvorbisenc:vorbisenc.obj
 0002:000fca58       _vq_quantlist__44p5_l1_0   0000000180135a58     libvorbisenc:vorbisenc.obj
 0002:000fca68       _vq_quantlist__44u9_p6_0   0000000180135a68     libvorbisenc:vorbisenc.obj
 0002:000fcaa0       _vq_quantlist__44c9_s_p1_0 0000000180135aa0     libvorbisenc:vorbisenc.obj
 0002:000fcab0       _vq_lengthlist__44p2_l0_0  0000000180135ab0     libvorbisenc:vorbisenc.obj
 0002:000fcd58       _44p7_p4_0                 0000000180135d58     libvorbisenc:vorbisenc.obj
 0002:000fcd90       _residue_44_mid            0000000180135d90     libvorbisenc:vorbisenc.obj
 0002:000fd8a8       _44p1_l1_0                 00000001801368a8     libvorbisenc:vorbisenc.obj
 0002:000fd8e0       _vq_lengthlist__44p5_l0_0  00000001801368e0     libvorbisenc:vorbisenc.obj
 0002:000fdb88       _huff_book__44cn1_sm_long  0000000180136b88     libvorbisenc:vorbisenc.obj
 0002:000fdbc0       _16c0_s_p8_0               0000000180136bc0     libvorbisenc:vorbisenc.obj
 0002:000fdbf8       _vq_quantlist__44c9_s_p2_0 0000000180136bf8     libvorbisenc:vorbisenc.obj
 0002:000fdc10       _vq_quantlist__44u9_p9_1   0000000180136c10     libvorbisenc:vorbisenc.obj
 0002:000fdc60       _vq_lengthlist__44c0_s_p5_0 0000000180136c60     libvorbisenc:vorbisenc.obj
 0002:000fe0e8       _psy_ath_abs               00000001801370e8     libvorbisenc:vorbisenc.obj
 0002:000fe118       _vq_quantlist__44u2__p5_0  0000000180137118     libvorbisenc:vorbisenc.obj
 0002:000fe140       _vq_quantlist__44u8_p9_2   0000000180137140     libvorbisenc:vorbisenc.obj
 0002:000fe208       _huff_book_line_512x17_3sub3 0000000180137208     libvorbisenc:vorbisenc.obj
 0002:000fe240       _huff_lengthlist_line_128x7_1sub3 0000000180137240     libvorbisenc:vorbisenc.obj
 0002:000fe340       _44p8_p1_0                 0000000180137340     libvorbisenc:vorbisenc.obj
 0002:000fe378       _vq_quantlist__44p2_p2_0   0000000180137378     libvorbisenc:vorbisenc.obj
 0002:000fe390       _huff_lengthlist_line_256x7_class1 0000000180137390     libvorbisenc:vorbisenc.obj
 0002:000fe790       _resbook_44p_l6            0000000180137790     libvorbisenc:vorbisenc.obj
 0002:000fe910       _psy_lowpass_32            0000000180137910     libvorbisenc:vorbisenc.obj
 0002:000fe970       _vq_lengthlist__44c1_s_p3_0 0000000180137970     libvorbisenc:vorbisenc.obj
 0002:000feab8       _huff_book_line_256x7_1sub3 0000000180137ab8     libvorbisenc:vorbisenc.obj
 0002:000feaf0       _psy_noisebias_long        0000000180137af0     libvorbisenc:vorbisenc.obj
 0002:000ff480       _vq_quantlist__16c0_s_p8_0 0000000180138480     libvorbisenc:vorbisenc.obj
 0002:000ff4b8       _huff_book_line_128x11_2sub3 00000001801384b8     libvorbisenc:vorbisenc.obj
 0002:000ff4f0       _huff_lengthlist__44cn1_sm_short 00000001801384f0     libvorbisenc:vorbisenc.obj
 0002:000ff638       _44p6_p7_3                 0000000180138638     libvorbisenc:vorbisenc.obj
 0002:000ff670       _vq_quantlist__16c1_s_p6_0 0000000180138670     libvorbisenc:vorbisenc.obj
 0002:000ff6b8       _vq_quantlist__8c1_s_p7_0  00000001801386b8     libvorbisenc:vorbisenc.obj
 0002:000ff6c8       _44p5_p4_1                 00000001801386c8     libvorbisenc:vorbisenc.obj
 0002:000ff700       _vq_lengthlist__44p2_p2_0  0000000180138700     libvorbisenc:vorbisenc.obj
 0002:001027d8       _44p2_p3_1                 000000018013b7d8     libvorbisenc:vorbisenc.obj
 0002:00102810       _huff_lengthlist_line_2048x27_2sub1 000000018013b810     libvorbisenc:vorbisenc.obj
 0002:00102a10       _vq_lengthlist__44pn1_p6_1 000000018013ba10     libvorbisenc:vorbisenc.obj
 0002:00102a78       _44cn1_sm_p2_0             000000018013ba78     libvorbisenc:vorbisenc.obj
 0002:00102ab0       _vq_lengthlist__44c7_s_p5_1 000000018013bab0     libvorbisenc:vorbisenc.obj
 0002:00102c98       _44c1_sm_p2_0              000000018013bc98     libvorbisenc:vorbisenc.obj
 0002:00102cd0       _vq_lengthlist__8c0_s_p3_0 000000018013bcd0     libvorbisenc:vorbisenc.obj
 0002:00103698       _vq_quantlist__44p0_p1_0   000000018013c698     libvorbisenc:vorbisenc.obj
 0002:001036a8       _huff_book__16c2_s_short   000000018013c6a8     libvorbisenc:vorbisenc.obj
 0002:001036e0       _vq_lengthlist__44c1_s_p8_1 000000018013c6e0     libvorbisenc:vorbisenc.obj
 0002:00103988       _huff_book_line_512x17_2sub2 000000018013c988     libvorbisenc:vorbisenc.obj
 0002:001039c0       _vq_quantlist__44c9_s_p9_2 000000018013c9c0     libvorbisenc:vorbisenc.obj
 0002:00103a88       _vq_quantlist__44p7_p4_1   000000018013ca88     libvorbisenc:vorbisenc.obj
 0002:00103aa0       _huff_lengthlist__44u9__short 000000018013caa0     libvorbisenc:vorbisenc.obj
 0002:00103c30       _vq_lengthlist__44c8_s_p3_0 000000018013cc30     libvorbisenc:vorbisenc.obj
 0002:00103d78       _16c1_s_p6_0               000000018013cd78     libvorbisenc:vorbisenc.obj
 0002:00103db0       _huff_lengthlist__44c1_sm_short 000000018013cdb0     libvorbisenc:vorbisenc.obj
 0002:00103ef8       _44u5__p9_1                000000018013cef8     libvorbisenc:vorbisenc.obj
 0002:00103f30       _vq_lengthlist__16c2_s_p7_1 000000018013cf30     libvorbisenc:vorbisenc.obj
 0002:00104118       _huff_book__16c0_s_single  000000018013d118     libvorbisenc:vorbisenc.obj
 0002:00104150       _res_44u_0                 000000018013d150     libvorbisenc:vorbisenc.obj
 0002:001041c0       _vq_lengthlist__8c0_s_p6_0 000000018013d1c0     libvorbisenc:vorbisenc.obj
 0002:00104648       _huff_book_line_128x11_class1 000000018013d648     libvorbisenc:vorbisenc.obj
 0002:00104680       ve_setup_16_stereo         000000018013d680     libvorbisenc:vorbisenc.obj
 0002:001047b0       _vq_lengthlist__44c9_s_p5_1 000000018013d7b0     libvorbisenc:vorbisenc.obj
 0002:00104998       _16c1_s_p5_0               000000018013d998     libvorbisenc:vorbisenc.obj
 0002:001049d0       _44u7__p1_0                000000018013d9d0     libvorbisenc:vorbisenc.obj
 0002:00104a08       _16c2_s_p3_0               000000018013da08     libvorbisenc:vorbisenc.obj
 0002:00104a40       _vq_quantlist__44c9_s_p4_0 000000018013da40     libvorbisenc:vorbisenc.obj
 0002:00104a88       _vq_quantlist__44p9_l0_0   000000018013da88     libvorbisenc:vorbisenc.obj
 0002:00104ac0       _vq_lengthlist__44u5__p1_0 000000018013dac0     libvorbisenc:vorbisenc.obj
 0002:00104c08       _huff_book__44p6_lfe       000000018013dc08     libvorbisenc:vorbisenc.obj
 0002:00104c40       _vq_lengthlist__8u0__p6_1  000000018013dc40     libvorbisenc:vorbisenc.obj
 0002:00104ca8       _44p4_p4_1                 000000018013dca8     libvorbisenc:vorbisenc.obj
 0002:00104ce0       _huff_lengthlist__44c1_s_short 000000018013dce0     libvorbisenc:vorbisenc.obj
 0002:00104e28       _vq_lengthlist__44p1_l1_0  000000018013de28     libvorbisenc:vorbisenc.obj
 0002:00104e50       _res_16u_1                 000000018013de50     libvorbisenc:vorbisenc.obj
 0002:00104ec0       _vq_quantlist__44u5__p9_2  000000018013dec0     libvorbisenc:vorbisenc.obj
 0002:00104f08       _vq_quantlist__44p4_p6_0   000000018013df08     libvorbisenc:vorbisenc.obj
 0002:00104f18       _huff_book_line_1024x27_4sub1 000000018013df18     libvorbisenc:vorbisenc.obj
 0002:00104f50       _vq_lengthlist__44cn1_sm_p8_1 000000018013df50     libvorbisenc:vorbisenc.obj
 0002:001051f8       _vq_lengthlist__44p6_p5_1  000000018013e1f8     libvorbisenc:vorbisenc.obj
 0002:00105218       _44u3__p4_0                000000018013e218     libvorbisenc:vorbisenc.obj
 0002:00105250       ve_setup_32_uncoupled      000000018013e250     libvorbisenc:vorbisenc.obj
 0002:00105380       _vq_lengthlist__44c0_sm_p1_0 000000018013e380     libvorbisenc:vorbisenc.obj
 0002:0010ba08       _noise_part_8              0000000180144a08     libvorbisenc:vorbisenc.obj
 0002:0010ba10       _res_44p51_2               0000000180144a10     libvorbisenc:vorbisenc.obj
 0002:0010bab8       _44c1_sm_p8_2              0000000180144ab8     libvorbisenc:vorbisenc.obj
 0002:0010baf0       _vq_lengthlist__44c4_s_p5_0 0000000180144af0     libvorbisenc:vorbisenc.obj
 0002:0010bc38       _huff_book_line_128x4_0sub0 0000000180144c38     libvorbisenc:vorbisenc.obj
 0002:0010bc70       _vq_lengthlist__44u1__p7_1 0000000180144c70     libvorbisenc:vorbisenc.obj
 0002:0010bf18       _huff_book_line_256x4_0sub3 0000000180144f18     libvorbisenc:vorbisenc.obj
 0002:0010bf50       _vq_lengthlist__44u0__p6_0 0000000180144f50     libvorbisenc:vorbisenc.obj
 0002:0010c1f8       _vq_quantlist__44c1_s_p7_0 00000001801451f8     libvorbisenc:vorbisenc.obj
 0002:0010c230       _vq_lengthlist__44p8_p6_0  0000000180145230     libvorbisenc:vorbisenc.obj
 0002:0010c600       _44p1_p5_1                 0000000180145600     libvorbisenc:vorbisenc.obj
 0002:0010c638       _vq_quantlist__44c6_s_p5_0 0000000180145638     libvorbisenc:vorbisenc.obj
 0002:0010c648       _huff_book__44u4__long     0000000180145648     libvorbisenc:vorbisenc.obj
 0002:0010c680       _vq_quantlist__44u3__p7_2  0000000180145680     libvorbisenc:vorbisenc.obj
 0002:0010c6c8       _huff_book__44c5_s_short   00000001801456c8     libvorbisenc:vorbisenc.obj
 0002:0010c700       _vq_quantlist__44c5_s_p2_0 0000000180145700     libvorbisenc:vorbisenc.obj
 0002:0010c718       _huff_book_line_128x17_2sub2 0000000180145718     libvorbisenc:vorbisenc.obj
 0002:0010c750       _huff_lengthlist_line_256x7_class0 0000000180145750     libvorbisenc:vorbisenc.obj
 0002:0010c850       _vq_lengthlist__44cn1_sm_p7_1 0000000180145850     libvorbisenc:vorbisenc.obj
 0002:0010c8b8       _vq_quantlist__44u1__p7_2  00000001801458b8     libvorbisenc:vorbisenc.obj
 0002:0010c8f0       _noise_part_short_44       00000001801458f0     libvorbisenc:vorbisenc.obj
 0002:0010c920       _huff_lengthlist_line_256x4_0sub0 0000000180145920     libvorbisenc:vorbisenc.obj
 0002:0010c930       _psy_ath_floater           0000000180145930     libvorbisenc:vorbisenc.obj
 0002:0010c960       _44u2__p2_0                0000000180145960     libvorbisenc:vorbisenc.obj
 0002:0010c998       _8c1_s_p9_0                0000000180145998     libvorbisenc:vorbisenc.obj
 0002:0010c9d0       _resbook_44s_4             00000001801459d0     libvorbisenc:vorbisenc.obj
 0002:0010cb50       _vq_quantlist__44u0__p1_0  0000000180145b50     libvorbisenc:vorbisenc.obj
 0002:0010cb60       _floor_2048x27_books       0000000180145b60     libvorbisenc:vorbisenc.obj
 0002:0010cbd8       _huff_book_line_128x7_1sub1 0000000180145bd8     libvorbisenc:vorbisenc.obj
 0002:0010cc10       _vq_lengthlist__16u2_p1_0  0000000180145c10     libvorbisenc:vorbisenc.obj
 0002:0010cd58       _noise_start_8             0000000180145d58     libvorbisenc:vorbisenc.obj
 0002:0010cd60       _vq_lengthlist__44c0_sm_p5_0 0000000180145d60     libvorbisenc:vorbisenc.obj
 0002:0010d1e8       _8u0__p4_0                 00000001801461e8     libvorbisenc:vorbisenc.obj
 0002:0010d220       _vq_lengthlist__16u1__p4_0 0000000180146220     libvorbisenc:vorbisenc.obj
 0002:0010dbe8       _44un1__p4_0               0000000180146be8     libvorbisenc:vorbisenc.obj
 0002:0010dc20       _vq_quantlist__44u9_p4_0   0000000180146c20     libvorbisenc:vorbisenc.obj
 0002:0010dc68       _huff_book_line_128x11_2sub1 0000000180146c68     libvorbisenc:vorbisenc.obj
 0002:0010dca0       _vq_lengthlist__44u6__p9_0 0000000180146ca0     libvorbisenc:vorbisenc.obj
 0002:0010e028       _mapres_template_16_uncoupled 0000000180147028     libvorbisenc:vorbisenc.obj
 0002:0010e058       _vq_quantlist__44u0__p3_0  0000000180147058     libvorbisenc:vorbisenc.obj
 0002:0010e070       _vq_lengthlist__44u0__p4_0 0000000180147070     libvorbisenc:vorbisenc.obj
 0002:0010ea38       _44c2_s_p3_0               0000000180147a38     libvorbisenc:vorbisenc.obj
 0002:0010ea70       _huff_lengthlist__44p5_long 0000000180147a70     libvorbisenc:vorbisenc.obj
 0002:0010eb70       _res_44p51_6               0000000180147b70     libvorbisenc:vorbisenc.obj
 0002:0010ec18       _16u1__p6_0                0000000180147c18     libvorbisenc:vorbisenc.obj
 0002:0010ec50       _vq_lengthlist__44p4_p1_0  0000000180147c50     libvorbisenc:vorbisenc.obj
 0002:0010f020       _vq_lengthlist__44c3_s_p4_0 0000000180148020     libvorbisenc:vorbisenc.obj
 0002:0010f168       _44c1_s_p1_0               0000000180148168     libvorbisenc:vorbisenc.obj
 0002:0010f1a0       _vq_lengthlist__8u1__p6_0  00000001801481a0     libvorbisenc:vorbisenc.obj
 0002:0010f2e8       _vq_quantlist__44c8_s_p5_1 00000001801482e8     libvorbisenc:vorbisenc.obj
 0002:0010f318       _huff_lengthlist_line_256x4low_0sub0 0000000180148318     libvorbisenc:vorbisenc.obj
 0002:0010f328       _44p6_l0_1                 0000000180148328     libvorbisenc:vorbisenc.obj
 0002:0010f360       _huff_lengthlist_line_512x17_class3 0000000180148360     libvorbisenc:vorbisenc.obj
 0002:0010f460       _vq_quantlist__8c0_s_p9_1  0000000180148460     libvorbisenc:vorbisenc.obj
 0002:0010f4a0       _vq_lengthlist__16c0_s_p9_2 00000001801484a0     libvorbisenc:vorbisenc.obj
 0002:0010fb88       _huff_lengthlist_line_128x4_0sub0 0000000180148b88     libvorbisenc:vorbisenc.obj
 0002:0010fb98       _44c4_s_p7_0               0000000180148b98     libvorbisenc:vorbisenc.obj
 0002:0010fbd0       _huff_lengthlist__44u6__long 0000000180148bd0     libvorbisenc:vorbisenc.obj
 0002:0010fd60       _resbook_44p_l1            0000000180148d60     libvorbisenc:vorbisenc.obj
 0002:0010fee0       _vq_lengthlist__16c1_s_p9_2 0000000180148ee0     libvorbisenc:vorbisenc.obj
 0002:001105c8       _44p6_p5_1                 00000001801495c8     libvorbisenc:vorbisenc.obj
 0002:00110600       _vq_lengthlist__44c9_s_p8_1 0000000180149600     libvorbisenc:vorbisenc.obj
 0002:00110ce8       _44u9_p5_0                 0000000180149ce8     libvorbisenc:vorbisenc.obj
 0002:00110d20       _res_44u_9                 0000000180149d20     libvorbisenc:vorbisenc.obj
 0002:00110d90       _vq_lengthlist__44p9_p3_1  0000000180149d90     libvorbisenc:vorbisenc.obj
 0002:00111160       ve_setup_44_51             000000018014a160     libvorbisenc:vorbisenc.obj
 0002:00111290       _map_nominal_51u           000000018014a290     libvorbisenc:vorbisenc.obj
 0002:00112ba0       _vq_lengthlist__44pn1_p2_1 000000018014bba0     libvorbisenc:vorbisenc.obj
 0002:00112f70       _vq_quantlist__44p9_p1_0   000000018014bf70     libvorbisenc:vorbisenc.obj
 0002:00112f80       _vq_lengthlist__44p6_p6_1  000000018014bf80     libvorbisenc:vorbisenc.obj
 0002:00113350       _vq_lengthlist__44p5_p5_1  000000018014c350     libvorbisenc:vorbisenc.obj
 0002:00113370       _vq_lengthlist__44p6_p1_0  000000018014c370     libvorbisenc:vorbisenc.obj
 0002:00113740       _vq_lengthlist__16u2_p9_1  000000018014c740     libvorbisenc:vorbisenc.obj
 0002:00113ce8       _huff_book_line_2048x27_class3 000000018014cce8     libvorbisenc:vorbisenc.obj
 0002:00113d20       _44c7_s_p8_0               000000018014cd20     libvorbisenc:vorbisenc.obj
 0002:00113d58       _16u2_p6_1                 000000018014cd58     libvorbisenc:vorbisenc.obj
 0002:00113d90       _vq_lengthlist__44p4_p3_0  000000018014cd90     libvorbisenc:vorbisenc.obj
 0002:00114160       _vq_lengthlist__44pn1_p5_0 000000018014d160     libvorbisenc:vorbisenc.obj
 0002:00114530       _vq_lengthlist__44p0_l0_1  000000018014d530     libvorbisenc:vorbisenc.obj
 0002:00114598       _vq_quantlist__44u7__p5_0  000000018014d598     libvorbisenc:vorbisenc.obj
 0002:001145c0       _vq_quantlist__16c2_s_p9_2 000000018014d5c0     libvorbisenc:vorbisenc.obj
 0002:00114688       _44u9_p6_0                 000000018014d688     libvorbisenc:vorbisenc.obj
 0002:001146c0       _vq_quantlist__44cn1_s_p5_0 000000018014d6c0     libvorbisenc:vorbisenc.obj
 0002:00114708       _vq_quantlist__44c2_s_p2_0 000000018014d708     libvorbisenc:vorbisenc.obj
 0002:00114720       _vq_lengthlist__44pn1_p5_1 000000018014d720     libvorbisenc:vorbisenc.obj
 0002:00114af0       _vq_lengthlist__8u1__p3_0  000000018014daf0     libvorbisenc:vorbisenc.obj
 0002:001154b8       _16c2_s_p1_0               000000018014e4b8     libvorbisenc:vorbisenc.obj
 0002:001154f0       _huff_lengthlist__16u1__short 000000018014e4f0     libvorbisenc:vorbisenc.obj
 0002:00115680       _vq_lengthlist__44u2__p1_0 000000018014e680     libvorbisenc:vorbisenc.obj
 0002:001157c8       _44cn1_sm_p6_0             000000018014e7c8     libvorbisenc:vorbisenc.obj
 0002:00115800       _huff_lengthlist__44p0_long 000000018014e800     libvorbisenc:vorbisenc.obj
 0002:001158c8       _vq_quantlist__44u7__p3_0  000000018014e8c8     libvorbisenc:vorbisenc.obj
 0002:001158e0       _huff_lengthlist__44u2__long 000000018014e8e0     libvorbisenc:vorbisenc.obj
 0002:001159e0       _res_44p51_n1              000000018014e9e0     libvorbisenc:vorbisenc.obj
 0002:00115a88       _44u3__p5_0                000000018014ea88     libvorbisenc:vorbisenc.obj
 0002:00115ac0       _resbook_44u_0             000000018014eac0     libvorbisenc:vorbisenc.obj
 0002:00115c40       _vq_lengthlist__44c8_s_p9_1 000000018014ec40     libvorbisenc:vorbisenc.obj
 0002:001161e8       _vq_quantlist__8u0__p3_0   000000018014f1e8     libvorbisenc:vorbisenc.obj
 0002:00116200       _vq_lengthlist__44p0_p2_0  000000018014f200     libvorbisenc:vorbisenc.obj
 0002:001165d0       _44p6_l0_0                 000000018014f5d0     libvorbisenc:vorbisenc.obj
 0002:00116608       _44u8_p6_1                 000000018014f608     libvorbisenc:vorbisenc.obj
 0002:00116640       _huff_lengthlist_line_1024x27_class4 000000018014f640     libvorbisenc:vorbisenc.obj
 0002:00116740       _psy_tone_masteratt_11     000000018014f740     libvorbisenc:vorbisenc.obj
 0002:00116780       _vq_lengthlist__44p6_l0_1  000000018014f780     libvorbisenc:vorbisenc.obj
 0002:001167e8       _44u8_p3_0                 000000018014f7e8     libvorbisenc:vorbisenc.obj
 0002:00116820       _vq_quantlist__44u4__p5_0  000000018014f820     libvorbisenc:vorbisenc.obj
 0002:00116848       _44un1__p2_0               000000018014f848     libvorbisenc:vorbisenc.obj
 0002:00116880       _vq_lengthlist__44c5_s_p8_1 000000018014f880     libvorbisenc:vorbisenc.obj
 0002:001168e8       _huff_book__44c9_s_long    000000018014f8e8     libvorbisenc:vorbisenc.obj
 0002:00116920       _vq_lengthlist__44pn1_l0_1 000000018014f920     libvorbisenc:vorbisenc.obj
 0002:00116988       _vq_quantlist__44p0_l0_0   000000018014f988     libvorbisenc:vorbisenc.obj
 0002:001169c0       _vq_lengthlist__44p9_p4_1  000000018014f9c0     libvorbisenc:vorbisenc.obj
 0002:00119a98       _vq_quantlist__44pn1_p1_0  0000000180152a98     libvorbisenc:vorbisenc.obj
 0002:00119aa8       _16u0__p6_0                0000000180152aa8     libvorbisenc:vorbisenc.obj
 0002:00119ae0       _vq_lengthlist__44u4__p6_0 0000000180152ae0     libvorbisenc:vorbisenc.obj
 0002:00119d88       _vq_quantlist__44c0_sm_p8_0 0000000180152d88     libvorbisenc:vorbisenc.obj
 0002:00119db0       _vq_quantlist__44c6_s_p9_2 0000000180152db0     libvorbisenc:vorbisenc.obj
 0002:00119e78       _vq_quantlist__44p3_p5_1   0000000180152e78     libvorbisenc:vorbisenc.obj
 0002:00119e98       _16u1__p7_1                0000000180152e98     libvorbisenc:vorbisenc.obj
 0002:00119ed0       _huff_lengthlist__44c9_s_short 0000000180152ed0     libvorbisenc:vorbisenc.obj
 0002:0011a060       _vq_lengthlist__44p2_p3_1  0000000180153060     libvorbisenc:vorbisenc.obj
 0002:0011a430       _vq_lengthlist__44p4_p6_0  0000000180153430     libvorbisenc:vorbisenc.obj
 0002:0011a800       _res_44s_0                 0000000180153800     libvorbisenc:vorbisenc.obj
 0002:0011a870       _vq_lengthlist__44p2_p4_0  0000000180153870     libvorbisenc:vorbisenc.obj
 0002:0011ac40       _vq_lengthlist__44u9_p9_0  0000000180153c40     libvorbisenc:vorbisenc.obj
 0002:0011afc8       _vq_quantlist__44c3_s_p2_0 0000000180153fc8     libvorbisenc:vorbisenc.obj
 0002:0011afe0       _huff_lengthlist__44c0_sm_short 0000000180153fe0     libvorbisenc:vorbisenc.obj
 0002:0011b128       _44p8_p3_1                 0000000180154128     libvorbisenc:vorbisenc.obj
 0002:0011b160       _vq_lengthlist__16u2_p7_1  0000000180154160     libvorbisenc:vorbisenc.obj
 0002:0011b348       _16c0_s_p4_0               0000000180154348     libvorbisenc:vorbisenc.obj
 0002:0011b380       ve_setup_XX_stereo         0000000180154380     libvorbisenc:vorbisenc.obj
 0002:0011b4b0       _vq_lengthlist__44u7__p7_1 00000001801544b0     libvorbisenc:vorbisenc.obj
 0002:0011b698       _vq_quantlist__44c0_sm_p4_0 0000000180154698     libvorbisenc:vorbisenc.obj
 0002:0011b6c0       _resbook_44u_7             00000001801546c0     libvorbisenc:vorbisenc.obj
 0002:0011b840       _vq_lengthlist__44p8_l0_0  0000000180154840     libvorbisenc:vorbisenc.obj
 0002:0011bae8       _8u0__p7_0                 0000000180154ae8     libvorbisenc:vorbisenc.obj
 0002:0011bb20       _huff_book__44cn1_s_short  0000000180154b20     libvorbisenc:vorbisenc.obj
 0002:0011bb58       _16c1_s_p9_1               0000000180154b58     libvorbisenc:vorbisenc.obj
 0002:0011bb90       _vq_quantlist__44c3_s_p9_2 0000000180154b90     libvorbisenc:vorbisenc.obj
 0002:0011bbd8       _psy_tone_masteratt_8      0000000180154bd8     libvorbisenc:vorbisenc.obj
 0002:0011bc18       _huff_book_line_512x17_class1 0000000180154c18     libvorbisenc:vorbisenc.obj
 0002:0011bc50       _vq_lengthlist__8c1_s_p9_0 0000000180154c50     libvorbisenc:vorbisenc.obj
 0002:0011bef8       _16u0__p7_0                0000000180154ef8     libvorbisenc:vorbisenc.obj
 0002:0011bf30       _vq_lengthlist__44p0_p3_0  0000000180154f30     libvorbisenc:vorbisenc.obj
 0002:0011c300       _vq_lengthlist__44p3_l0_0  0000000180155300     libvorbisenc:vorbisenc.obj
 0002:0011c5a8       _vq_quantlist__44p1_p5_1   00000001801555a8     libvorbisenc:vorbisenc.obj
 0002:0011c5b8       _8c1_s_p1_0                00000001801555b8     libvorbisenc:vorbisenc.obj
 0002:0011c5f0       _vq_lengthlist__16u0__p7_2 00000001801555f0     libvorbisenc:vorbisenc.obj
 0002:0011ccd8       _44c1_s_p5_0               0000000180155cd8     libvorbisenc:vorbisenc.obj
 0002:0011cd10       _vq_lengthlist__44u6__p1_0 0000000180155d10     libvorbisenc:vorbisenc.obj
 0002:0011ce58       _44c8_s_p4_0               0000000180155e58     libvorbisenc:vorbisenc.obj
 0002:0011ce90       _res_44p51_5               0000000180155e90     libvorbisenc:vorbisenc.obj
 0002:0011cf38       _44p7_p7_1                 0000000180155f38     libvorbisenc:vorbisenc.obj
 0002:0011cf70       _vq_lengthlist__44c6_s_p1_0 0000000180155f70     libvorbisenc:vorbisenc.obj
 0002:0011d0b8       _44cn1_s_p6_0              00000001801560b8     libvorbisenc:vorbisenc.obj
 0002:0011d0f0       _vq_lengthlist__8c1_s_p7_0 00000001801560f0     libvorbisenc:vorbisenc.obj
 0002:0011d238       _vq_quantlist__44u7__p4_0  0000000180156238     libvorbisenc:vorbisenc.obj
 0002:0011d250       _vq_lengthlist__44c7_s_p6_0 0000000180156250     libvorbisenc:vorbisenc.obj
 0002:0011d4f8       _vq_quantlist__8c1_s_p9_1  00000001801564f8     libvorbisenc:vorbisenc.obj
 0002:0011d538       _vq_quantlist__44u1__p6_1  0000000180156538     libvorbisenc:vorbisenc.obj
 0002:0011d550       _vq_lengthlist__8c1_s_p8_0 0000000180156550     libvorbisenc:vorbisenc.obj
 0002:0011d7f8       _vq_quantlist__16u2_p8_0   00000001801567f8     libvorbisenc:vorbisenc.obj
 0002:0011d838       _16u2_p9_1                 0000000180156838     libvorbisenc:vorbisenc.obj
 0002:0011d870       _vq_lengthlist__44p0_p2_1  0000000180156870     libvorbisenc:vorbisenc.obj
 0002:0011dc40       _16c2_s_p7_0               0000000180156c40     libvorbisenc:vorbisenc.obj
 0002:0011dc78       _vq_quantlist__16c0_s_p9_0 0000000180156c78     libvorbisenc:vorbisenc.obj
 0002:0011dc88       _vq_quantlist__44p8_p4_0   0000000180156c88     libvorbisenc:vorbisenc.obj
 0002:0011dc98       _vq_quantlist__44p3_p7_1   0000000180156c98     libvorbisenc:vorbisenc.obj
 0002:0011dca8       _huff_book_line_128x11_3sub1 0000000180156ca8     libvorbisenc:vorbisenc.obj
 0002:0011dce0       _vq_lengthlist__44p9_p6_1  0000000180156ce0     libvorbisenc:vorbisenc.obj
 0002:0011e0b0       _vq_lengthlist__44p6_p4_1  00000001801570b0     libvorbisenc:vorbisenc.obj
 0002:00121188       _vq_quantlist__44p1_p2_1   000000018015a188     libvorbisenc:vorbisenc.obj
 0002:00121198       _huff_book__44pn1_long     000000018015a198     libvorbisenc:vorbisenc.obj
 0002:001211d0       _vq_quantlist__16c1_s_p9_2 000000018015a1d0     libvorbisenc:vorbisenc.obj
 0002:00121228       _vq_quantlist__44p5_p6_1   000000018015a228     libvorbisenc:vorbisenc.obj
 0002:00121238       _8c1_s_p3_0                000000018015a238     libvorbisenc:vorbisenc.obj
 0002:00121270       _resbook_44u_1             000000018015a270     libvorbisenc:vorbisenc.obj
 0002:001213f0       _vq_lengthlist__44c7_s_p3_0 000000018015a3f0     libvorbisenc:vorbisenc.obj
 0002:00121538       _44u6__p5_0                000000018015a538     libvorbisenc:vorbisenc.obj
 0002:00121570       _vq_lengthlist__16c0_s_p8_0 000000018015a570     libvorbisenc:vorbisenc.obj
 0002:00121818       _44un1__p7_2               000000018015a818     libvorbisenc:vorbisenc.obj
 0002:00121850       _vq_lengthlist__44p5_p6_0  000000018015a850     libvorbisenc:vorbisenc.obj
 0002:00121c20       _44cn1_sm_p6_1             000000018015ac20     libvorbisenc:vorbisenc.obj
 0002:00121c58       _vq_quantlist__44p1_p3_1   000000018015ac58     libvorbisenc:vorbisenc.obj
 0002:00121c70       _vq_quantlist__44c5_s_p5_0 000000018015ac70     libvorbisenc:vorbisenc.obj
 0002:00121c98       _44u6__p4_0                000000018015ac98     libvorbisenc:vorbisenc.obj
 0002:00121cd0       _vq_lengthlist__44c9_s_p2_0 000000018015acd0     libvorbisenc:vorbisenc.obj
 0002:00122698       _vq_quantlist__16c0_s_p9_1 000000018015b698     libvorbisenc:vorbisenc.obj
 0002:001226d8       _vq_quantlist__44c9_s_p3_0 000000018015b6d8     libvorbisenc:vorbisenc.obj
 0002:00122700       _resbook_44p_0             000000018015b700     libvorbisenc:vorbisenc.obj
 0002:00122880       _huff_book__44u0__short    000000018015b880     libvorbisenc:vorbisenc.obj
 0002:001228b8       rate_mapping_8             000000018015b8b8     libvorbisenc:vorbisenc.obj
 0002:001228d0       _vq_lengthlist__44c2_s_p5_0 000000018015b8d0     libvorbisenc:vorbisenc.obj
 0002:00122a18       _vq_quantlist__8u0__p7_0   000000018015ba18     libvorbisenc:vorbisenc.obj
 0002:00122a28       _44p8_l1_0                 000000018015ba28     libvorbisenc:vorbisenc.obj
 0002:00122a60       _vq_lengthlist__8u1__p1_0  000000018015ba60     libvorbisenc:vorbisenc.obj
 0002:00122ba8       _44p5_p2_0                 000000018015bba8     libvorbisenc:vorbisenc.obj
 0002:00122be0       _vq_lengthlist__44u7__p7_0 000000018015bbe0     libvorbisenc:vorbisenc.obj
 0002:00122d28       _floor_128x4_books         000000018015bd28     libvorbisenc:vorbisenc.obj
 0002:00122d50       _44p4_l1_0                 000000018015bd50     libvorbisenc:vorbisenc.obj
 0002:00122d88       _44c1_s_p7_1               000000018015bd88     libvorbisenc:vorbisenc.obj
 0002:00122dc0       _vq_quantlist__44u4__p1_0  000000018015bdc0     libvorbisenc:vorbisenc.obj
 0002:00122dd0       _44u0__p1_0                000000018015bdd0     libvorbisenc:vorbisenc.obj
 0002:00122e08       _huff_book_line_512x17_3sub2 000000018015be08     libvorbisenc:vorbisenc.obj
 0002:00122e40       _vq_lengthlist__16c2_s_p6_1 000000018015be40     libvorbisenc:vorbisenc.obj
 0002:00122ea8       _44p7_p3_1                 000000018015bea8     libvorbisenc:vorbisenc.obj
 0002:00122ee0       _vq_quantlist__44u4__p4_0  000000018015bee0     libvorbisenc:vorbisenc.obj
 0002:00122ef8       _vq_quantlist__8c1_s_p8_0  000000018015bef8     libvorbisenc:vorbisenc.obj
 0002:00122f30       _vq_lengthlist__44p7_p7_2  000000018015bf30     libvorbisenc:vorbisenc.obj
 0002:00122f98       _44p0_p4_0                 000000018015bf98     libvorbisenc:vorbisenc.obj
 0002:00122fd0       _vq_lengthlist__44p5_l1_0  000000018015bfd0     libvorbisenc:vorbisenc.obj
 0002:00122ff8       _vq_quantlist__44p0_l1_0   000000018015bff8     libvorbisenc:vorbisenc.obj
 0002:00123008       _huff_book__16c2_s_long    000000018015c008     libvorbisenc:vorbisenc.obj
 0002:00123040       _huff_book_line_512x17_class2 000000018015c040     libvorbisenc:vorbisenc.obj
 0002:00123078       _44u7__p8_0                000000018015c078     libvorbisenc:vorbisenc.obj
 0002:001230b0       _vq_lengthlist__16c2_s_p5_1 000000018015c0b0     libvorbisenc:vorbisenc.obj
 0002:00123298       _44u7__p7_1                000000018015c298     libvorbisenc:vorbisenc.obj
 0002:001232d0       _huff_lengthlist_line_2048x27_0sub0 000000018015c2d0     libvorbisenc:vorbisenc.obj
 0002:001234d0       _vq_lengthlist__44u2__p3_0 000000018015c4d0     libvorbisenc:vorbisenc.obj
 0002:00123e98       _vq_quantlist__16c0_s_p3_0 000000018015ce98     libvorbisenc:vorbisenc.obj
 0002:00123eb0       _vq_lengthlist__44u3__p2_0 000000018015ceb0     libvorbisenc:vorbisenc.obj
 0002:00123ff8       _44p3_p1_0                 000000018015cff8     libvorbisenc:vorbisenc.obj
 0002:00124030       _huff_lengthlist_line_1024x27_1sub1 000000018015d030     libvorbisenc:vorbisenc.obj
 0002:00124230       _vq_lengthlist__44u6__p7_0 000000018015d230     libvorbisenc:vorbisenc.obj
 0002:00124378       _16c0_s_p9_1               000000018015d378     libvorbisenc:vorbisenc.obj
 0002:001243b0       _huff_lengthlist__44c6_s_short 000000018015d3b0     libvorbisenc:vorbisenc.obj
 0002:00124540       _vq_lengthlist__44un1__p5_0 000000018015d540     libvorbisenc:vorbisenc.obj
 0002:00124688       _vq_quantlist__44cn1_sm_p8_1 000000018015d688     libvorbisenc:vorbisenc.obj
 0002:001246c0       _vq_lengthlist__44un1__p1_0 000000018015d6c0     libvorbisenc:vorbisenc.obj
 0002:00124808       _vq_quantlist__16u1__p5_0  000000018015d808     libvorbisenc:vorbisenc.obj
 0002:00124830       _resbook_44s_8             000000018015d830     libvorbisenc:vorbisenc.obj
 0002:001249b0       _vq_quantlist__8u0__p2_0   000000018015d9b0     libvorbisenc:vorbisenc.obj
 0002:001249c0       _vq_lengthlist__44u8_p3_0  000000018015d9c0     libvorbisenc:vorbisenc.obj
 0002:00124b08       _vq_quantlist__44p1_p3_0   000000018015db08     libvorbisenc:vorbisenc.obj
 0002:00124b18       _vq_quantlist__16u2_p1_0   000000018015db18     libvorbisenc:vorbisenc.obj
 0002:00124b28       _44p4_p5_0                 000000018015db28     libvorbisenc:vorbisenc.obj
 0002:00124b60       _vq_lengthlist__44p3_p2_0  000000018015db60     libvorbisenc:vorbisenc.obj
 0002:00127c38       _huff_book__44c6_s_short   0000000180160c38     libvorbisenc:vorbisenc.obj
 0002:00127c70       _vq_quantlist__44u8_p9_1   0000000180160c70     libvorbisenc:vorbisenc.obj
 0002:00127cc0       _floor_mapping_44c         0000000180160cc0     libvorbisenc:vorbisenc.obj
 0002:00127cf0       _huff_book__44u2__short    0000000180160cf0     libvorbisenc:vorbisenc.obj
 0002:00127d28       _vq_quantlist__8u1__p1_0   0000000180160d28     libvorbisenc:vorbisenc.obj
 0002:00127d38       _44c1_s_p3_0               0000000180160d38     libvorbisenc:vorbisenc.obj
 0002:00127d70       _vq_lengthlist__44u9_p5_1  0000000180160d70     libvorbisenc:vorbisenc.obj
 0002:00127f58       _44c8_s_p8_0               0000000180160f58     libvorbisenc:vorbisenc.obj
 0002:00127f90       _huff_lengthlist_line_512x17_2sub3 0000000180160f90     libvorbisenc:vorbisenc.obj
 0002:00128190       _noise_start_16            0000000180161190     libvorbisenc:vorbisenc.obj
 0002:001281a0       _mapres_template_44_stereo 00000001801611a0     libvorbisenc:vorbisenc.obj
 0002:00128250       _residue_44p               0000000180161250     libvorbisenc:vorbisenc.obj
 0002:00128d68       blocksize_16_short         0000000180161d68     libvorbisenc:vorbisenc.obj
 0002:00128d78       _44c0_sm_p2_0              0000000180161d78     libvorbisenc:vorbisenc.obj
 0002:00128db0       _psy_global_44             0000000180161db0     libvorbisenc:vorbisenc.obj
 0002:00129750       _vq_lengthlist__44c8_s_p6_1 0000000180162750     libvorbisenc:vorbisenc.obj
 0002:001297b8       _44p3_l0_1                 00000001801627b8     libvorbisenc:vorbisenc.obj
 0002:001297f0       _44cn1_sm_p7_1             00000001801627f0     libvorbisenc:vorbisenc.obj
 0002:00129828       _44c6_s_p9_2               0000000180162828     libvorbisenc:vorbisenc.obj
 0002:00129860       _vq_lengthlist__44u5__p7_1 0000000180162860     libvorbisenc:vorbisenc.obj
 0002:00129a48       _44p9_l1_0                 0000000180162a48     libvorbisenc:vorbisenc.obj
 0002:00129a80       _vq_lengthlist__16c2_s_p9_1 0000000180162a80     libvorbisenc:vorbisenc.obj
 0002:0012a028       _44c8_s_p9_0               0000000180163028     libvorbisenc:vorbisenc.obj
 0002:0012a060       _vq_lengthlist__44c5_s_p6_0 0000000180163060     libvorbisenc:vorbisenc.obj
 0002:0012a4e8       _16c2_s_p2_0               00000001801634e8     libvorbisenc:vorbisenc.obj
 0002:0012a520       _vq_lengthlist__16c1_s_p4_0 0000000180163520     libvorbisenc:vorbisenc.obj
 0002:0012a668       _vq_quantlist__44p9_p6_0   0000000180163668     libvorbisenc:vorbisenc.obj
 0002:0012a678       _vq_quantlist__44p6_p4_0   0000000180163678     libvorbisenc:vorbisenc.obj
 0002:0012a688       _huff_book__44p3_short     0000000180163688     libvorbisenc:vorbisenc.obj
 0002:0012a6c0       setup_list                 00000001801636c0     libvorbisenc:vorbisenc.obj
 0002:0012a750       _vq_quantlist__16u1__p9_0  0000000180163750     libvorbisenc:vorbisenc.obj
 0002:0012a790       _vq_quantlist__44p7_p7_3   0000000180163790     libvorbisenc:vorbisenc.obj
 0002:0012a7f8       _vq_quantlist__44c5_s_p1_0 00000001801637f8     libvorbisenc:vorbisenc.obj
 0002:0012a808       _44c8_s_p6_1               0000000180163808     libvorbisenc:vorbisenc.obj
 0002:0012a840       _vq_lengthlist__44p3_p7_0  0000000180163840     libvorbisenc:vorbisenc.obj
 0002:0012ac10       _vq_quantlist__44p7_p7_1   0000000180163c10     libvorbisenc:vorbisenc.obj
 0002:0012ac20       _16c2_s_p4_0               0000000180163c20     libvorbisenc:vorbisenc.obj
 0002:0012ac58       _huff_book_line_128x7_class1 0000000180163c58     libvorbisenc:vorbisenc.obj
 0002:0012ac90       _vq_quantlist__44c7_s_p4_0 0000000180163c90     libvorbisenc:vorbisenc.obj
 0002:0012acd8       _44u2__p1_0                0000000180163cd8     libvorbisenc:vorbisenc.obj
 0002:0012ad10       _huff_lengthlist__44c1_sm_long 0000000180163d10     libvorbisenc:vorbisenc.obj
 0002:0012ae58       _44c0_sm_p8_0              0000000180163e58     libvorbisenc:vorbisenc.obj
 0002:0012ae90       _vq_lengthlist__44p0_p5_0  0000000180163e90     libvorbisenc:vorbisenc.obj
 0002:0012b260       _floor_512x17_books        0000000180164260     libvorbisenc:vorbisenc.obj
 0002:0012b2c0       _huff_lengthlist_line_128x7_class1 00000001801642c0     libvorbisenc:vorbisenc.obj
 0002:0012b6c0       _44p6_p6_1                 00000001801646c0     libvorbisenc:vorbisenc.obj
 0002:0012b6f8       _huff_book__44p8_short     00000001801646f8     libvorbisenc:vorbisenc.obj
 0002:0012b730       _huff_lengthlist_line_256x7_0sub2 0000000180164730     libvorbisenc:vorbisenc.obj
 0002:0012b798       _vq_quantlist__44p4_p4_1   0000000180164798     libvorbisenc:vorbisenc.obj
 0002:0012b7b0       _vq_lengthlist__44p6_p7_1  00000001801647b0     libvorbisenc:vorbisenc.obj
 0002:0012bb80       _vq_lengthlist__44c5_s_p7_1 0000000180164b80     libvorbisenc:vorbisenc.obj
 0002:0012bd68       _vq_quantlist__44c4_s_p4_0 0000000180164d68     libvorbisenc:vorbisenc.obj
 0002:0012bd90       _16u2_p9_0                 0000000180164d90     libvorbisenc:vorbisenc.obj
 0002:0012bdc8       _vq_quantlist__16c1_s_p7_1 0000000180164dc8     libvorbisenc:vorbisenc.obj
 0002:0012bdf8       _44u7__p7_0                0000000180164df8     libvorbisenc:vorbisenc.obj
 0002:0012be30       _vq_lengthlist__44un1__p4_0 0000000180164e30     libvorbisenc:vorbisenc.obj
 0002:0012c7f8       _huff_book_line_128x7_0sub1 00000001801657f8     libvorbisenc:vorbisenc.obj
 0002:0012c830       _vq_lengthlist__44c6_s_p5_1 0000000180165830     libvorbisenc:vorbisenc.obj
 0002:0012ca18       _16u2_p7_0                 0000000180165a18     libvorbisenc:vorbisenc.obj
 0002:0012ca50       _vq_quantlist__44c9_s_p9_0 0000000180165a50     libvorbisenc:vorbisenc.obj
 0002:0012caa0       _44c6_s_p5_1               0000000180165aa0     libvorbisenc:vorbisenc.obj
 0002:0012cad8       _huff_book__44p4_lfe       0000000180165ad8     libvorbisenc:vorbisenc.obj
 0002:0012cb10       _vq_lengthlist__44p3_p1_0  0000000180165b10     libvorbisenc:vorbisenc.obj
 0002:0012cee0       _vq_quantlist__44u5__p4_0  0000000180165ee0     libvorbisenc:vorbisenc.obj
 0002:0012cef8       _psy_compand_8_mapping     0000000180165ef8     libvorbisenc:vorbisenc.obj
 0002:0012cf10       _huff_book__44p4_long      0000000180165f10     libvorbisenc:vorbisenc.obj
 0002:0012cf48       _44u8_p7_1                 0000000180165f48     libvorbisenc:vorbisenc.obj
 0002:0012cf80       _vq_lengthlist__44c7_s_p9_0 0000000180165f80     libvorbisenc:vorbisenc.obj
 0002:0012d228       _44c9_s_p9_1               0000000180166228     libvorbisenc:vorbisenc.obj
 0002:0012d260       _huff_lengthlist_line_2048x27_3sub3 0000000180166260     libvorbisenc:vorbisenc.obj
 0002:0012d460       _vq_quantlist__44u0__p2_0  0000000180166460     libvorbisenc:vorbisenc.obj
 0002:0012d470       _vq_quantlist__8u0__p7_2   0000000180166470     libvorbisenc:vorbisenc.obj
 0002:0012d4c8       _44c4_s_p2_0               00000001801664c8     libvorbisenc:vorbisenc.obj
 0002:0012d500       _vq_quantlist__16u0__p2_0  0000000180166500     libvorbisenc:vorbisenc.obj
 0002:0012d510       _vq_quantlist__44u3__p6_1  0000000180166510     libvorbisenc:vorbisenc.obj
 0002:0012d528       _huff_book__44p8_long      0000000180166528     libvorbisenc:vorbisenc.obj
 0002:0012d560       _vq_lengthlist__16c1_s_p9_0 0000000180166560     libvorbisenc:vorbisenc.obj
 0002:0012d808       _huff_book__8u1__single    0000000180166808     libvorbisenc:vorbisenc.obj
 0002:0012d840       _huff_lengthlist_line_1024x27_class3 0000000180166840     libvorbisenc:vorbisenc.obj
 0002:0012dc40       _vq_lengthlist__44c1_sm_p7_1 0000000180166c40     libvorbisenc:vorbisenc.obj
 0002:0012dca8       _44c2_s_p8_1               0000000180166ca8     libvorbisenc:vorbisenc.obj
 0002:0012dce0       _vq_lengthlist__44u0__p6_1 0000000180166ce0     libvorbisenc:vorbisenc.obj
 0002:0012dd48       _huff_book_line_512x17_2sub1 0000000180166d48     libvorbisenc:vorbisenc.obj
 0002:0012dd80       _vq_quantlist__16u2_p8_1   0000000180166d80     libvorbisenc:vorbisenc.obj
 0002:0012ddd8       _vq_quantlist__44u5__p2_0  0000000180166dd8     libvorbisenc:vorbisenc.obj
 0002:0012dde8       _vq_quantlist__16c2_s_p6_0 0000000180166de8     libvorbisenc:vorbisenc.obj
 0002:0012de20       _44p8_p5_0                 0000000180166e20     libvorbisenc:vorbisenc.obj
 0002:0012de58       _vq_quantlist__44p8_p3_0   0000000180166e58     libvorbisenc:vorbisenc.obj
 0002:0012de68       _vq_quantlist__44u2__p6_0  0000000180166e68     libvorbisenc:vorbisenc.obj
 0002:0012dea0       _mapres_template_44_uncoupled 0000000180166ea0     libvorbisenc:vorbisenc.obj
 0002:0012df50       _resbook_44p_5             0000000180166f50     libvorbisenc:vorbisenc.obj
 0002:0012e0d0       _huff_lengthlist_line_128x11_2sub3 00000001801670d0     libvorbisenc:vorbisenc.obj
 0002:0012e2d0       _vq_lengthlist__16u0__p7_1 00000001801672d0     libvorbisenc:vorbisenc.obj
 0002:0012e658       _44p9_p2_0                 0000000180167658     libvorbisenc:vorbisenc.obj
 0002:0012e690       _resbook_44s_9             0000000180167690     libvorbisenc:vorbisenc.obj
 0002:0012e810       _44p9_l0_0                 0000000180167810     libvorbisenc:vorbisenc.obj
 0002:0012e848       _44c0_sm_p8_1              0000000180167848     libvorbisenc:vorbisenc.obj
 0002:0012e880       _vq_lengthlist__44p3_p4_1  0000000180167880     libvorbisenc:vorbisenc.obj
 0002:00131958       _vq_quantlist__44u7__p2_0  000000018016a958     libvorbisenc:vorbisenc.obj
 0002:00131968       _44p0_p2_0                 000000018016a968     libvorbisenc:vorbisenc.obj
 0002:001319a0       _vq_lengthlist__44u8_p9_0  000000018016a9a0     libvorbisenc:vorbisenc.obj
 0002:00131ae8       _44p8_p4_0                 000000018016aae8     libvorbisenc:vorbisenc.obj
 0002:00131b20       _vq_lengthlist__44c4_s_p9_0 000000018016ab20     libvorbisenc:vorbisenc.obj
 0002:00131dc8       _44c4_s_p9_1               000000018016adc8     libvorbisenc:vorbisenc.obj
 0002:00131e00       _vq_quantlist__44p5_p7_2   000000018016ae00     libvorbisenc:vorbisenc.obj
 0002:00131e68       _44cn1_sm_p3_0             000000018016ae68     libvorbisenc:vorbisenc.obj
 0002:00131ea0       _vq_lengthlist__44u3__p6_0 000000018016aea0     libvorbisenc:vorbisenc.obj
 0002:00132148       _vq_quantlist__8u0__p6_1   000000018016b148     libvorbisenc:vorbisenc.obj
 0002:00132160       _8c0_s_p9_1                000000018016b160     libvorbisenc:vorbisenc.obj
 0002:00132198       _44c2_s_p9_2               000000018016b198     libvorbisenc:vorbisenc.obj
 0002:001321d0       _16u2_p8_0                 000000018016b1d0     libvorbisenc:vorbisenc.obj
 0002:00132208       _44p1_p3_0                 000000018016b208     libvorbisenc:vorbisenc.obj
 0002:00132240       _44u1__p4_0                000000018016b240     libvorbisenc:vorbisenc.obj
 0002:00132278       _huff_book__44u4__short    000000018016b278     libvorbisenc:vorbisenc.obj
 0002:001322b0       _vq_lengthlist__44p2_p7_2  000000018016b2b0     libvorbisenc:vorbisenc.obj
 0002:00132318       _vq_quantlist__44pn1_l0_1  000000018016b318     libvorbisenc:vorbisenc.obj
 0002:00132330       _vq_lengthlist__44p3_p7_1  000000018016b330     libvorbisenc:vorbisenc.obj
 0002:00132700       _res_44s_2                 000000018016b700     libvorbisenc:vorbisenc.obj
 0002:00132770       _vq_quantlist__44c2_s_p3_0 000000018016b770     libvorbisenc:vorbisenc.obj
 0002:00132788       _vq_quantlist__44p6_p6_1   000000018016b788     libvorbisenc:vorbisenc.obj
 0002:00132798       _huff_book__44p1_short     000000018016b798     libvorbisenc:vorbisenc.obj
 0002:001327d0       _vq_lengthlist__44u3__p7_0 000000018016b7d0     libvorbisenc:vorbisenc.obj
 0002:00132918       _44c9_s_p5_1               000000018016b918     libvorbisenc:vorbisenc.obj
 0002:00132950       _vq_lengthlist__44c5_s_p7_0 000000018016b950     libvorbisenc:vorbisenc.obj
 0002:00132a98       _44p2_p7_1                 000000018016ba98     libvorbisenc:vorbisenc.obj
 0002:00132ad0       _vq_lengthlist__44c1_sm_p8_1 000000018016bad0     libvorbisenc:vorbisenc.obj
 0002:00132d78       _vq_quantlist__44u0__p7_0  000000018016bd78     libvorbisenc:vorbisenc.obj
 0002:00132d90       _vq_lengthlist__44c8_s_p5_1 000000018016bd90     libvorbisenc:vorbisenc.obj
 0002:00132f78       _huff_lengthlist__44p4_lfe 000000018016bf78     libvorbisenc:vorbisenc.obj
 0002:00132f88       _44c2_s_p9_1               000000018016bf88     libvorbisenc:vorbisenc.obj
 0002:00132fc0       _vq_lengthlist__44p0_p6_2  000000018016bfc0     libvorbisenc:vorbisenc.obj
 0002:00133028       _huff_book__44c4_s_short   000000018016c028     libvorbisenc:vorbisenc.obj
 0002:00133060       _vq_lengthlist__44cn1_sm_p3_0 000000018016c060     libvorbisenc:vorbisenc.obj
 0002:001331a8       _44c5_s_p1_0               000000018016c1a8     libvorbisenc:vorbisenc.obj
 0002:001331e0       _vq_lengthlist__44cn1_s_p2_0 000000018016c1e0     libvorbisenc:vorbisenc.obj
 0002:00133ba8       _huff_book__16u2__short    000000018016cba8     libvorbisenc:vorbisenc.obj
 0002:00133be0       _huff_lengthlist_line_1024x27_0sub0 000000018016cbe0     libvorbisenc:vorbisenc.obj
 0002:00133de0       _vq_lengthlist__44c0_s_p8_1 000000018016cde0     libvorbisenc:vorbisenc.obj
 0002:00134088       _vq_quantlist__16u1__p7_0  000000018016d088     libvorbisenc:vorbisenc.obj
 0002:00134098       _44p0_p4_1                 000000018016d098     libvorbisenc:vorbisenc.obj
 0002:001340d0       _vq_lengthlist__44un1__p7_0 000000018016d0d0     libvorbisenc:vorbisenc.obj
 0002:00134a98       _huff_book__44c0_sm_short  000000018016da98     libvorbisenc:vorbisenc.obj
 0002:00134ad0       _vq_lengthlist__44c9_s_p7_0 000000018016dad0     libvorbisenc:vorbisenc.obj
 0002:00134d78       _psy_lowpass_22            000000018016dd78     libvorbisenc:vorbisenc.obj
 0002:00134d98       _44c7_s_p8_1               000000018016dd98     libvorbisenc:vorbisenc.obj
 0002:00134dd0       _resbook_44p_ln1           000000018016ddd0     libvorbisenc:vorbisenc.obj
 0002:00134f50       _vq_lengthlist__16u1__p2_0 000000018016df50     libvorbisenc:vorbisenc.obj
 0002:00135098       _44p3_p7_2                 000000018016e098     libvorbisenc:vorbisenc.obj
 0002:001350d0       _vq_lengthlist__44c0_s_p6_0 000000018016e0d0     libvorbisenc:vorbisenc.obj
 0002:00135218       rate_mapping_22_uncoupled  000000018016e218     libvorbisenc:vorbisenc.obj
 0002:00135238       _res_8u_1                  000000018016e238     libvorbisenc:vorbisenc.obj
 0002:00135270       _vq_lengthlist__44cn1_sm_p2_0 000000018016e270     libvorbisenc:vorbisenc.obj
 0002:00135c38       _huff_book_line_512x17_2sub3 000000018016ec38     libvorbisenc:vorbisenc.obj
 0002:00135c70       _vq_lengthlist__44c3_s_p5_0 000000018016ec70     libvorbisenc:vorbisenc.obj
 0002:00135db8       _44u1__p7_1                000000018016edb8     libvorbisenc:vorbisenc.obj
 0002:00135df0       _vq_lengthlist__44u1__p7_0 000000018016edf0     libvorbisenc:vorbisenc.obj
 0002:00135eb8       _44p6_p2_0                 000000018016eeb8     libvorbisenc:vorbisenc.obj
 0002:00135ef0       rate_mapping_32            000000018016eef0     libvorbisenc:vorbisenc.obj
 0002:00135f50       _huff_lengthlist__44u4__long 000000018016ef50     libvorbisenc:vorbisenc.obj
 0002:00136050       _vq_quantlist__8u1__p2_0   000000018016f050     libvorbisenc:vorbisenc.obj
 0002:00136060       _huff_lengthlist__16u2__short 000000018016f060     libvorbisenc:vorbisenc.obj
 0002:001361f0       _vq_lengthlist__44u9_p9_1  000000018016f1f0     libvorbisenc:vorbisenc.obj
 0002:00136798       _vq_quantlist__44u6__p8_1  000000018016f798     libvorbisenc:vorbisenc.obj
 0002:001367c8       _8u1__p3_0                 000000018016f7c8     libvorbisenc:vorbisenc.obj
 0002:00136800       _vq_lengthlist__44u8_p2_0  000000018016f800     libvorbisenc:vorbisenc.obj
 0002:001371c8       _vq_quantlist__16u0__p3_0  00000001801701c8     libvorbisenc:vorbisenc.obj
 0002:001371e0       _vq_lengthlist__44p9_l1_0  00000001801701e0     libvorbisenc:vorbisenc.obj
 0002:00137248       _44u9_p1_0                 0000000180170248     libvorbisenc:vorbisenc.obj
 0002:00137280       _vq_lengthlist__44p1_p5_0  0000000180170280     libvorbisenc:vorbisenc.obj
 0002:00137650       _vq_quantlist__8u1__p9_1   0000000180170650     libvorbisenc:vorbisenc.obj
 0002:00137690       _vq_quantlist__16c0_s_p1_0 0000000180170690     libvorbisenc:vorbisenc.obj
 0002:001376a0       _huff_lengthlist_line_2048x27_class4 00000001801706a0     libvorbisenc:vorbisenc.obj
 0002:001377a0       _vq_lengthlist__8u0__p6_0  00000001801707a0     libvorbisenc:vorbisenc.obj
 0002:00137a48       _huff_book__44c6_s_long    0000000180170a48     libvorbisenc:vorbisenc.obj
 0002:00137a80       _vq_lengthlist__44c6_s_p9_1 0000000180170a80     libvorbisenc:vorbisenc.obj
 0002:00137d28       _vq_quantlist__44cn1_s_p8_0 0000000180170d28     libvorbisenc:vorbisenc.obj
 0002:00137d40       _vq_lengthlist__44p3_p6_1  0000000180170d40     libvorbisenc:vorbisenc.obj
 0002:00138110       _vq_lengthlist__44u8_p9_2  0000000180171110     libvorbisenc:vorbisenc.obj
 0002:001381d8       _vq_quantlist__8c0_s_p3_0  00000001801711d8     libvorbisenc:vorbisenc.obj
 0002:001381f0       _huff_lengthlist__44cn1_s_long 00000001801711f0     libvorbisenc:vorbisenc.obj
 0002:00138338       _44c9_s_p7_0               0000000180171338     libvorbisenc:vorbisenc.obj
 0002:00138370       _huff_lengthlist_line_128x11_0sub0 0000000180171370     libvorbisenc:vorbisenc.obj
 0002:00138570       _vq_lengthlist__44c0_s_p3_0 0000000180171570     libvorbisenc:vorbisenc.obj
 0002:001386b8       _vq_quantlist__8u1__p9_0   00000001801716b8     libvorbisenc:vorbisenc.obj
 0002:001386f8       _8u1__p6_0                 00000001801716f8     libvorbisenc:vorbisenc.obj
 0002:00138730       _vq_lengthlist__8u1__p9_0  0000000180171730     libvorbisenc:vorbisenc.obj
 0002:00138ab8       _44p9_p4_1                 0000000180171ab8     libvorbisenc:vorbisenc.obj
 0002:00138af0       _vq_lengthlist__8u0__p7_1  0000000180171af0     libvorbisenc:vorbisenc.obj
 0002:00138e78       _vq_quantlist__8c1_s_p8_1  0000000180171e78     libvorbisenc:vorbisenc.obj
 0002:00138e90       _vq_quantlist__44p5_p6_0   0000000180171e90     libvorbisenc:vorbisenc.obj
 0002:00138ea0       _vq_quantlist__44c0_sm_p7_0 0000000180171ea0     libvorbisenc:vorbisenc.obj
 0002:00138ed8       _vq_quantlist__44p5_l0_0   0000000180171ed8     libvorbisenc:vorbisenc.obj
 0002:00138f10       _huff_lengthlist_line_2048x27_4sub3 0000000180171f10     libvorbisenc:vorbisenc.obj
 0002:00139110       _8u1__p7_0                 0000000180172110     libvorbisenc:vorbisenc.obj
 0002:00139148       _vq_quantlist__44p6_p1_0   0000000180172148     libvorbisenc:vorbisenc.obj
 0002:00139158       _vq_quantlist__44u9_p6_1   0000000180172158     libvorbisenc:vorbisenc.obj
 0002:00139170       _44c0_sm_p4_0              0000000180172170     libvorbisenc:vorbisenc.obj
 0002:001391a8       _44p5_p6_1                 00000001801721a8     libvorbisenc:vorbisenc.obj
 0002:001391e0       _vq_lengthlist__44u2__p6_1 00000001801721e0     libvorbisenc:vorbisenc.obj
 0002:00139248       _44c3_s_p1_0               0000000180172248     libvorbisenc:vorbisenc.obj
 0002:00139280       _vq_lengthlist__44p3_p3_0  0000000180172280     libvorbisenc:vorbisenc.obj
 0002:00139650       _vq_lengthlist__44p4_p5_0  0000000180172650     libvorbisenc:vorbisenc.obj
 0002:0013c728       _huff_book_line_128x11_3sub2 0000000180175728     libvorbisenc:vorbisenc.obj
 0002:0013c760       _vq_lengthlist__44u3__p1_0 0000000180175760     libvorbisenc:vorbisenc.obj
 0002:0013c8a8       _44u9_p8_0                 00000001801758a8     libvorbisenc:vorbisenc.obj
 0002:0013c8e0       _vq_lengthlist__44c7_s_p9_2 00000001801758e0     libvorbisenc:vorbisenc.obj
 0002:0013c9a8       _vq_quantlist__44p4_l1_0   00000001801759a8     libvorbisenc:vorbisenc.obj
 0002:0013c9b8       _vq_quantlist__44c1_sm_p6_1 00000001801759b8     libvorbisenc:vorbisenc.obj
 0002:0013c9e8       _16c0_s_p1_0               00000001801759e8     libvorbisenc:vorbisenc.obj
 0002:0013ca20       _vq_quantlist__44c1_s_p5_0 0000000180175a20     libvorbisenc:vorbisenc.obj
 0002:0013ca68       _huff_book_line_1024x27_3sub2 0000000180175a68     libvorbisenc:vorbisenc.obj
 0002:0013caa0       _vq_lengthlist__44u9_p6_1  0000000180175aa0     libvorbisenc:vorbisenc.obj
 0002:0013cb08       _44u1__p6_0                0000000180175b08     libvorbisenc:vorbisenc.obj
 0002:0013cb40       _vq_lengthlist__44c1_sm_p2_0 0000000180175b40     libvorbisenc:vorbisenc.obj
 0002:0013d508       _vq_quantlist__44p8_p6_1   0000000180176508     libvorbisenc:vorbisenc.obj
 0002:0013d518       _vq_quantlist__44p6_p3_0   0000000180176518     libvorbisenc:vorbisenc.obj
 0002:0013d528       _16c2_s_p9_0               0000000180176528     libvorbisenc:vorbisenc.obj
 0002:0013d560       _resbook_44p_l3            0000000180176560     libvorbisenc:vorbisenc.obj
 0002:0013d6e0       _vq_quantlist__44cn1_s_p8_2 00000001801766e0     libvorbisenc:vorbisenc.obj
 0002:0013d728       _44c7_s_p7_0               0000000180176728     libvorbisenc:vorbisenc.obj
 0002:0013d760       _huff_lengthlist__44c0_s_long 0000000180176760     libvorbisenc:vorbisenc.obj
 0002:0013d8a8       _44u2__p5_0                00000001801768a8     libvorbisenc:vorbisenc.obj
 0002:0013d8e0       _res_44u_6                 00000001801768e0     libvorbisenc:vorbisenc.obj
 0002:0013d950       _vq_lengthlist__8u0__p7_0  0000000180176950     libvorbisenc:vorbisenc.obj
 0002:0013da98       _vq_quantlist__44u0__p7_1  0000000180176a98     libvorbisenc:vorbisenc.obj
 0002:0013dad0       _vq_lengthlist__16u0__p1_0 0000000180176ad0     libvorbisenc:vorbisenc.obj
 0002:0013dc18       _44p8_p6_1                 0000000180176c18     libvorbisenc:vorbisenc.obj
 0002:0013dc50       _44u5__p3_0                0000000180176c50     libvorbisenc:vorbisenc.obj
 0002:0013dc88       _8c1_s_p8_0                0000000180176c88     libvorbisenc:vorbisenc.obj
 0002:0013dcc0       _psy_noisebias_impulse     0000000180176cc0     libvorbisenc:vorbisenc.obj
 0002:0013e650       _vq_lengthlist__8c1_s_p6_0 0000000180177650     libvorbisenc:vorbisenc.obj
 0002:0013ead8       _huff_book_line_512x17_class3 0000000180177ad8     libvorbisenc:vorbisenc.obj
 0002:0013eb10       _huff_lengthlist_line_2048x27_4sub2 0000000180177b10     libvorbisenc:vorbisenc.obj
