 ogg

 Timestamp is 57369456 (Fri May 13 22:58:30 2016)

 Preferred load address is 0000000180000000

 Start         Length     Name                   Class
 0001:00000000 000001e0H .text                   CODE
 0001:000001e0 00018260H .text$mn                CODE
 0001:00018440 00000020H .text$mn$00             CODE
 0001:00018460 00000270H .text$x                 CODE
 0002:00000000 00000278H .idata$5                DATA
 0002:00000278 00000010H .00cfg                  DATA
 0002:00000288 00000008H .CRT$XCA                DATA
 0002:00000290 00000008H .CRT$XCU                DATA
 0002:00000298 00000008H .CRT$XCZ                DATA
 0002:000002a0 00000008H .CRT$XIA                DATA
 0002:000002a8 00000018H .CRT$XIC                DATA
 0002:000002c0 00000008H .CRT$XIZ                DATA
 0002:000002c8 00000008H .CRT$XPA                DATA
 0002:000002d0 00000010H .CRT$XPX                DATA
 0002:000002e0 00000008H .CRT$XPXA               DATA
 0002:000002e8 00000008H .CRT$XPZ                DATA
 0002:000002f0 00000008H .CRT$XTA                DATA
 0002:000002f8 00000008H .CRT$XTZ                DATA
 0002:00000300 00008b38H .rdata                  DATA
 0002:00008e38 000001f8H .rdata$r                DATA
 0002:00009030 00000010H .rdata$zETW0            DATA
 0002:00009040 00000077H .rdata$zETW1            DATA
 0002:000090b7 0000002cH .rdata$zETW2            DATA
 0002:000090e3 00000001H .rdata$zETW9            DATA
 0002:000090e4 0000045cH .rdata$zzzdbg           DATA
 0002:00009540 00000008H .rtc$IAA                DATA
 0002:00009548 00000008H .rtc$IZZ                DATA
 0002:00009550 00000008H .rtc$TAA                DATA
 0002:00009558 00000008H .rtc$TZZ                DATA
 0002:00009560 00001340H .xdata                  DATA
 0002:0000a8a0 000000ecH .xdata$x                DATA
 0002:0000a98c 00000020H .didat$2                DATA
 0002:0000a9ac 00000024H .didat$3                DATA
 0002:0000a9d0 00000160H .didat$4                DATA
 0002:0000ab30 00000b88H .didat$6                DATA
 0002:0000b6b8 00000168H .didat$7                DATA
 0002:0000b820 000006f8H .edata                  DATA
 0002:0000bf18 00000028H .idata$2                DATA
 0002:0000bf40 00000018H .idata$3                DATA
 0002:0000bf58 00000278H .idata$4                DATA
 0002:0000c1d0 000005c4H .idata$6                DATA
 0003:00000000 000009b8H .data                   DATA
 0003:000009b8 000000a0H .data$r                 DATA
 0003:00000a58 00000168H .didat$5                DATA
 0003:00000bc0 00001200H .bss                    DATA
 0004:00000000 000017dcH .pdata                  DATA
 0005:00000000 00000084H .gfids$x                DATA
 0005:00000084 00000038H .gfids$y                DATA
 0006:00000000 00000060H .rsrc$01                DATA
 0006:00000060 00000180H .rsrc$02                DATA

  Address         Publics by Value              Rva+Base               Lib:Object

 0000:00000000       __dynamic_value_reloc_table 0000000000000000     <absolute>
 0000:00000000       __guard_longjmp_table      0000000000000000     <absolute>
 0000:00000000       __guard_longjmp_count      0000000000000000     <absolute>
 0000:00000000       __guard_iat_count          0000000000000000     <absolute>
 0000:00000000       __guard_fids_count         0000000000000000     <absolute>
 0000:00000000       __guard_iat_table          0000000000000000     <absolute>
 0000:00000000       ___safe_se_handler_table   0000000000000000     <absolute>
 0000:00000000       ___safe_se_handler_count   0000000000000000     <absolute>
 0000:00000000       __guard_fids_table         0000000000000000     <absolute>
 0000:00000100       __guard_flags              0000000000000100     <absolute>
 0000:00000000       __ImageBase                0000000180000000     <linker-defined>
 0001:00000000       ?TraceLoggingRegister@__vcrt_trace_logging_provider@@YAJPEBU_TlgProvider_t@1@PEBU_GUID@@P6AX1KE_K2PEAU_EVENT_FILTER_DESCRIPTOR@@PEAX@Z4@Z 0000000180001000 f i libvcruntime:telemetry.obj
 0001:0000007c       ?_TlgEnableCallback@__vcrt_trace_logging_provider@@YAXPEBU_GUID@@KE_K1PEAU_EVENT_FILTER_DESCRIPTOR@@PEAX@Z 000000018000107c f i libvcruntime:telemetry.obj
 0001:00000140       ?_TlgWrite@__vcrt_trace_logging_provider@@YAJPEBU_TlgProvider_t@1@PEFBXPEBU_GUID@@2IPEAU_EVENT_DATA_DESCRIPTOR@@@Z 0000000180001140 f i libvcruntime:telemetry.obj
 0001:00000290       ?New@?$Factory@VFunctionTemplate@v8@@@imp@Nan@@SA?AV?$Local@VFunctionTemplate@v8@@@v8@@P6AXAEBV?$FunctionCallbackInfo@VValue@v8@@@3@@ZV?$Local@VValue@v8@@@5@V?$Local@VSignature@v8@@@5@@Z 0000000180001290 f i binding.obj
 0001:00000420       ??0Callback@Nan@@QEAA@AEBV?$Local@VFunction@v8@@@v8@@@Z 0000000180001420 f i binding.obj
 0001:00000530       ??0AsyncWorker@Nan@@QEAA@PEAVCallback@1@@Z 0000000180001530 f i binding.obj
 0001:000005f0       ??1AsyncWorker@Nan@@UEAA@XZ 00000001800015f0 f i binding.obj
 0001:000006a0       ?WorkComplete@AsyncWorker@Nan@@UEAAXXZ 00000001800016a0 f i binding.obj
 0001:00000730       ?Destroy@AsyncWorker@Nan@@UEAAXXZ 0000000180001730 f i binding.obj
 0001:00000750       ?HandleOKCallback@AsyncWorker@Nan@@MEAAXXZ 0000000180001750 f i binding.obj
 0001:00000810       ?HandleErrorCallback@AsyncWorker@Nan@@MEAAXXZ 0000000180001810 f i binding.obj
 0001:00000960       ??_EAsyncWorker@Nan@@UEAAPEAXI@Z 0000000180001960 f i * CIL library *:* CIL module *
 0001:00000960       ??_GAsyncWorker@Nan@@UEAAPEAXI@Z 0000000180001960 f i binding.obj
 0001:000009a0       ?AsyncExecute@Nan@@YAXPEAUuv_work_s@@@Z 00000001800019a0 f i binding.obj
 0001:000009b0       ?AsyncExecuteComplete@Nan@@YAXPEAUuv_work_s@@@Z 00000001800019b0 f i binding.obj
 0001:000009f0       __except_validate_context_record 00000001800019f0 f   libvcruntime:jbcxrval.obj
 0001:000009f0       _guard_check_icall_nop     00000001800019f0 f   LIBCMT:guard_support.obj
 0001:00000a00       ?node_ogg_sync_init@nodeogg@@YAXAEBV?$FunctionCallbackInfo@VValue@v8@@@Nan@@@Z 0000000180001a00 f   binding.obj
 0001:00000b00       ?Execute@OggSyncWriteWorker@nodeogg@@UEAAXXZ 0000000180001b00 f i binding.obj
 0001:00000b80       ?HandleOKCallback@OggSyncWriteWorker@nodeogg@@UEAAXXZ 0000000180001b80 f i binding.obj
 0001:00000cf0       ??_EOggSyncWriteWorker@nodeogg@@UEAAPEAXI@Z 0000000180001cf0 f i * CIL library *:* CIL module *
 0001:00000cf0       ??_GOggSyncWriteWorker@nodeogg@@UEAAPEAXI@Z 0000000180001cf0 f i binding.obj
 0001:00000d30       ?node_ogg_sync_write@nodeogg@@YAXAEBV?$FunctionCallbackInfo@VValue@v8@@@Nan@@@Z 0000000180001d30 f   binding.obj
 0001:00000ec0       ?Execute@OggSyncPageoutWorker@nodeogg@@UEAAXXZ 0000000180001ec0 f i binding.obj
 0001:00000f50       ?HandleOKCallback@OggSyncPageoutWorker@nodeogg@@UEAAXXZ 0000000180001f50 f i binding.obj
 0001:00001180       ??_EOggSyncPageoutWorker@nodeogg@@UEAAPEAXI@Z 0000000180002180 f i * CIL library *:* CIL module *
 0001:00001180       ??_GOggSyncPageoutWorker@nodeogg@@UEAAPEAXI@Z 0000000180002180 f i binding.obj
 0001:000011c0       ?node_ogg_sync_pageout@nodeogg@@YAXAEBV?$FunctionCallbackInfo@VValue@v8@@@Nan@@@Z 00000001800021c0 f   binding.obj
 0001:00001320       ?node_ogg_stream_init@nodeogg@@YAXAEBV?$FunctionCallbackInfo@VValue@v8@@@Nan@@@Z 0000000180002320 f   binding.obj
 0001:00001430       ?Execute@OggStreamPageinWorker@nodeogg@@UEAAXXZ 0000000180002430 f i binding.obj
 0001:00001460       ?HandleOKCallback@OggStreamPacketinWorker@nodeogg@@UEAAXXZ 0000000180002460 f i binding.obj
 0001:00001460       ?HandleOKCallback@OggStreamPageinWorker@nodeogg@@UEAAXXZ 0000000180002460 f i binding.obj
 0001:000015d0       ??_GOggStreamPageinWorker@nodeogg@@UEAAPEAXI@Z 00000001800025d0 f i binding.obj
 0001:000015d0       ??_EOggStreamPageinWorker@nodeogg@@UEAAPEAXI@Z 00000001800025d0 f i * CIL library *:* CIL module *
 0001:00001610       ?node_ogg_stream_pagein@nodeogg@@YAXAEBV?$FunctionCallbackInfo@VValue@v8@@@Nan@@@Z 0000000180002610 f   binding.obj
 0001:00001770       ?Execute@OggStreamPacketoutWorker@nodeogg@@UEAAXXZ 0000000180002770 f i binding.obj
 0001:000017c0       ?HandleOKCallback@OggStreamPacketoutWorker@nodeogg@@UEAAXXZ 00000001800027c0 f i binding.obj
 0001:00001aa0       ??_EOggStreamPacketoutWorker@nodeogg@@UEAAPEAXI@Z 0000000180002aa0 f i * CIL library *:* CIL module *
 0001:00001aa0       ??_GOggStreamPacketoutWorker@nodeogg@@UEAAPEAXI@Z 0000000180002aa0 f i binding.obj
 0001:00001ae0       ?node_ogg_stream_packetout@nodeogg@@YAXAEBV?$FunctionCallbackInfo@VValue@v8@@@Nan@@@Z 0000000180002ae0 f   binding.obj
 0001:00001c40       ?Execute@OggStreamPacketinWorker@nodeogg@@UEAAXXZ 0000000180002c40 f i binding.obj
 0001:00001c90       ??_EOggStreamPacketinWorker@nodeogg@@UEAAPEAXI@Z 0000000180002c90 f i * CIL library *:* CIL module *
 0001:00001c90       ??_GOggStreamPacketinWorker@nodeogg@@UEAAPEAXI@Z 0000000180002c90 f i binding.obj
 0001:00001cd0       ?node_ogg_stream_packetin@nodeogg@@YAXAEBV?$FunctionCallbackInfo@VValue@v8@@@Nan@@@Z 0000000180002cd0 f   binding.obj
 0001:00001e30       ?HandleOKCallback@StreamWorker@nodeogg@@UEAAXXZ 0000000180002e30 f i binding.obj
 0001:000020c0       ?Execute@StreamPageoutWorker@nodeogg@@UEAAXXZ 00000001800030c0 f i binding.obj
 0001:00002120       ??_EStreamPageoutWorker@nodeogg@@UEAAPEAXI@Z 0000000180003120 f i * CIL library *:* CIL module *
 0001:00002120       ??_GStreamPageoutWorker@nodeogg@@UEAAPEAXI@Z 0000000180003120 f i binding.obj
 0001:00002160       ?node_ogg_stream_pageout@nodeogg@@YAXAEBV?$FunctionCallbackInfo@VValue@v8@@@Nan@@@Z 0000000180003160 f   binding.obj
 0001:000022c0       ?Execute@StreamFlushWorker@nodeogg@@UEAAXXZ 00000001800032c0 f i binding.obj
 0001:000022f0       ??_EStreamFlushWorker@nodeogg@@UEAAPEAXI@Z 00000001800032f0 f i * CIL library *:* CIL module *
 0001:000022f0       ??_GStreamFlushWorker@nodeogg@@UEAAPEAXI@Z 00000001800032f0 f i binding.obj
 0001:00002330       ?node_ogg_stream_flush@nodeogg@@YAXAEBV?$FunctionCallbackInfo@VValue@v8@@@Nan@@@Z 0000000180003330 f   binding.obj
 0001:00002490       ?node_ogg_page_to_buffer@nodeogg@@YAXAEBV?$FunctionCallbackInfo@VValue@v8@@@Nan@@@Z 0000000180003490 f   binding.obj
 0001:00002580       ?node_ogg_packet_set_packet@nodeogg@@YAXAEBV?$FunctionCallbackInfo@VValue@v8@@@Nan@@@Z 0000000180003580 f   binding.obj
 0001:00002650       ?node_ogg_packet_get_packet@nodeogg@@YAXAEBV?$FunctionCallbackInfo@VValue@v8@@@Nan@@@Z 0000000180003650 f   binding.obj
 0001:00002750       ?node_ogg_packet_bytes@nodeogg@@YAXAEBV?$FunctionCallbackInfo@VValue@v8@@@Nan@@@Z 0000000180003750 f   binding.obj
 0001:00002810       ?node_ogg_packet_b_o_s@nodeogg@@YAXAEBV?$FunctionCallbackInfo@VValue@v8@@@Nan@@@Z 0000000180003810 f   binding.obj
 0001:000028d0       ?node_ogg_packet_e_o_s@nodeogg@@YAXAEBV?$FunctionCallbackInfo@VValue@v8@@@Nan@@@Z 00000001800038d0 f   binding.obj
 0001:00002990       ?node_ogg_packet_granulepos@nodeogg@@YAXAEBV?$FunctionCallbackInfo@VValue@v8@@@Nan@@@Z 0000000180003990 f   binding.obj
 0001:00002a50       ?node_ogg_packet_packetno@nodeogg@@YAXAEBV?$FunctionCallbackInfo@VValue@v8@@@Nan@@@Z 0000000180003a50 f   binding.obj
 0001:00002b10       ?node_ogg_packet_replace_buffer@nodeogg@@YAXAEBV?$FunctionCallbackInfo@VValue@v8@@@Nan@@@Z 0000000180003b10 f   binding.obj
 0001:00002be0       ?Initialize@nodeogg@@YAXV?$Local@VObject@v8@@@v8@@@Z 0000000180003be0 f   binding.obj
 0001:00003d00       ogg_page_version           0000000180004d00 f   libogg:framing.obj
 0001:00003d10       ogg_page_continued         0000000180004d10 f   libogg:framing.obj
 0001:00003d20       ogg_page_bos               0000000180004d20 f   libogg:framing.obj
 0001:00003d30       ogg_page_eos               0000000180004d30 f   libogg:framing.obj
 0001:00003d40       ogg_page_granulepos        0000000180004d40 f   libogg:framing.obj
 0001:00003da0       ogg_page_serialno          0000000180004da0 f   libogg:framing.obj
 0001:00003dd0       ogg_page_pageno            0000000180004dd0 f   libogg:framing.obj
 0001:00003e00       ogg_page_packets           0000000180004e00 f   libogg:framing.obj
 0001:00003e30       ogg_stream_init            0000000180004e30 f   libogg:framing.obj
 0001:00003f00       ogg_stream_clear           0000000180004f00 f   libogg:framing.obj
 0001:00003f50       ogg_stream_destroy         0000000180004f50 f   libogg:framing.obj
 0001:00004130       ogg_page_checksum_set      0000000180005130 f   libogg:framing.obj
 0001:00004200       ogg_stream_iovecin         0000000180005200 f   libogg:framing.obj
 0001:000044b0       ogg_stream_packetin        00000001800054b0 f   libogg:framing.obj
 0001:000047a0       ogg_stream_flush           00000001800057a0 f   libogg:framing.obj
 0001:000047b0       ogg_stream_pageout         00000001800057b0 f   libogg:framing.obj
 0001:000047f0       ogg_stream_eos             00000001800057f0 f   libogg:framing.obj
 0001:00004810       ogg_sync_init              0000000180005810 f   libogg:framing.obj
 0001:00004840       ogg_sync_clear             0000000180005840 f   libogg:framing.obj
 0001:00004880       ogg_sync_destroy           0000000180005880 f   libogg:framing.obj
 0001:000048c0       ogg_sync_buffer            00000001800058c0 f   libogg:framing.obj
 0001:00004980       ogg_sync_wrote             0000000180005980 f   libogg:framing.obj
 0001:000049a0       ogg_sync_pageseek          00000001800059a0 f   libogg:framing.obj
 0001:00004b10       ogg_sync_pageout           0000000180005b10 f   libogg:framing.obj
 0001:00004cc0       ogg_stream_pagein          0000000180005cc0 f   libogg:framing.obj
 0001:00005050       ogg_sync_reset             0000000180006050 f   libogg:framing.obj
 0001:00005070       ogg_stream_reset           0000000180006070 f   libogg:framing.obj
 0001:000050c0       ogg_stream_reset_serialno  00000001800060c0 f   libogg:framing.obj
 0001:00005210       ogg_stream_packetout       0000000180006210 f   libogg:framing.obj
 0001:00005230       ogg_stream_packetpeek      0000000180006230 f   libogg:framing.obj
 0001:00005330       ogg_packet_clear           0000000180006330 f   libogg:framing.obj
 0001:00005360       oggpackB_writeinit         0000000180006360 f   libogg:bitwise.obj
 0001:00005360       oggpack_writeinit          0000000180006360 f   libogg:bitwise.obj
 0001:000053a0       oggpack_writetrunc         00000001800063a0 f   libogg:bitwise.obj
 0001:000053e0       oggpackB_writetrunc        00000001800063e0 f   libogg:bitwise.obj
 0001:00005420       oggpack_write              0000000180006420 f   libogg:bitwise.obj
 0001:00005580       oggpackB_write             0000000180006580 f   libogg:bitwise.obj
 0001:000056f0       oggpack_writealign         00000001800066f0 f   libogg:bitwise.obj
 0001:00005710       oggpackB_writealign        0000000180006710 f   libogg:bitwise.obj
 0001:00005880       oggpack_writecopy          0000000180006880 f   libogg:bitwise.obj
 0001:000058a0       oggpackB_writecopy         00000001800068a0 f   libogg:bitwise.obj
 0001:000058c0       oggpack_reset              00000001800068c0 f   libogg:bitwise.obj
 0001:000058c0       oggpackB_reset             00000001800068c0 f   libogg:bitwise.obj
 0001:000058e0       oggpack_writeclear         00000001800068e0 f   libogg:bitwise.obj
 0001:000058e0       oggpackB_writeclear        00000001800068e0 f   libogg:bitwise.obj
 0001:00005910       oggpack_readinit           0000000180006910 f   libogg:bitwise.obj
 0001:00005910       oggpackB_readinit          0000000180006910 f   libogg:bitwise.obj
 0001:00005930       oggpack_look               0000000180006930 f   libogg:bitwise.obj
 0001:00005a20       oggpackB_look              0000000180006a20 f   libogg:bitwise.obj
 0001:00005b00       oggpack_look1              0000000180006b00 f   libogg:bitwise.obj
 0001:00005b20       oggpackB_look1             0000000180006b20 f   libogg:bitwise.obj
 0001:00005b50       oggpack_adv                0000000180006b50 f   libogg:bitwise.obj
 0001:00005bb0       oggpackB_adv               0000000180006bb0 f   libogg:bitwise.obj
 0001:00005c10       oggpackB_adv1              0000000180006c10 f   libogg:bitwise.obj
 0001:00005c10       oggpack_adv1               0000000180006c10 f   libogg:bitwise.obj
 0001:00005c30       oggpack_read               0000000180006c30 f   libogg:bitwise.obj
 0001:00005d60       oggpackB_read              0000000180006d60 f   libogg:bitwise.obj
 0001:00005e80       oggpack_read1              0000000180006e80 f   libogg:bitwise.obj
 0001:00005ee0       oggpackB_read1             0000000180006ee0 f   libogg:bitwise.obj
 0001:00005f40       oggpackB_bytes             0000000180006f40 f   libogg:bitwise.obj
 0001:00005f40       oggpack_bytes              0000000180006f40 f   libogg:bitwise.obj
 0001:00005f60       oggpackB_bits              0000000180006f60 f   libogg:bitwise.obj
 0001:00005f60       oggpack_bits               0000000180006f60 f   libogg:bitwise.obj
 0001:00005f70       oggpackB_get_buffer        0000000180006f70 f   libogg:bitwise.obj
 0001:00005f70       oggpack_get_buffer         0000000180006f70 f   libogg:bitwise.obj
 0001:00005f75       __imp_load_uv_queue_work   0000000180006f75 f   node:node.exe
 0001:00005f81       __tailMerge_node_exe       0000000180006f81 f i node:node.exe
 0001:00005ffa       __imp_load_?Global@Context@v8@@QEAA?AV?$Local@VObject@v8@@@2@XZ 0000000180006ffa f   node:node.exe
 0001:00006006       __imp_load_?Value@External@v8@@QEBAPEAXXZ 0000000180007006 f   node:node.exe
 0001:00006012       __imp_load_?New@External@v8@@SA?AV?$Local@VExternal@v8@@@2@PEAVIsolate@2@PEAX@Z 0000000180007012 f   node:node.exe
 0001:0000601e       __imp_load_?New@Integer@v8@@SA?AV?$Local@VInteger@v8@@@2@PEAVIsolate@2@H@Z 000000018000701e f   node:node.exe
 0001:0000602a       __imp_load_?GetCurrentContext@Isolate@v8@@QEAA?AV?$Local@VContext@v8@@@2@XZ 000000018000702a f   node:node.exe
 0001:00006036       __imp_load_?GetCurrent@Isolate@v8@@SAPEAV12@XZ 0000000180007036 f   node:node.exe
 0001:00006042       __imp_load_?CreateHandle@HandleScope@v8@@KAPEAPEAVObject@internal@2@PEAVIsolate@42@PEAV342@@Z 0000000180007042 f   node:node.exe
 0001:0000604e       __imp_load_?CreateHandle@HandleScope@v8@@CAPEAPEAVObject@internal@2@PEAVHeapObject@42@PEAV342@@Z 000000018000704e f   node:node.exe
 0001:0000605a       __imp_load_??1HandleScope@v8@@QEAA@XZ 000000018000705a f   node:node.exe
 0001:00006066       __imp_load_??0HandleScope@v8@@QEAA@PEAVIsolate@1@@Z 0000000180007066 f   node:node.exe
 0001:00006072       __imp_load_?Error@Exception@v8@@SA?AV?$Local@VValue@v8@@@2@V?$Local@VString@v8@@@2@@Z 0000000180007072 f   node:node.exe
 0001:0000607e       __imp_load_?GetFunction@FunctionTemplate@v8@@QEAA?AV?$Local@VFunction@v8@@@2@XZ 000000018000707e f   node:node.exe
 0001:0000608a       __imp_load_?GetFunction@FunctionTemplate@v8@@QEAA?AV?$MaybeLocal@VFunction@v8@@@2@V?$Local@VContext@v8@@@2@@Z 000000018000708a f   node:node.exe
 0001:00006096       __imp_load_?New@FunctionTemplate@v8@@SA?AV?$Local@VFunctionTemplate@v8@@@2@PEAVIsolate@2@P6AXAEBV?$FunctionCallbackInfo@VValue@v8@@@2@@ZV?$Local@VValue@v8@@@2@V?$Local@VSignature@v8@@@2@H@Z 0000000180007096 f   node:node.exe
 0001:000060a2       __imp_load_?ToLocalEmpty@V8@v8@@CAXXZ 00000001800070a2 f   node:node.exe
 0001:000060ae       __imp_load_?DisposeGlobal@V8@v8@@CAXPEAPEAVObject@internal@2@@Z 00000001800070ae f   node:node.exe
 0001:000060ba       __imp_load_?GlobalizeReference@V8@v8@@CAPEAPEAVObject@internal@2@PEAVIsolate@42@PEAPEAV342@@Z 00000001800070ba f   node:node.exe
 0001:000060c6       __imp_load_?IntegerValue@Value@v8@@QEBA_JXZ 00000001800070c6 f   node:node.exe
 0001:000060d2       __imp_load_?NumberValue@Value@v8@@QEBANXZ 00000001800070d2 f   node:node.exe
 0001:000060de       __imp_load_?ToInteger@Value@v8@@QEBA?AV?$MaybeLocal@VInteger@v8@@@2@V?$Local@VContext@v8@@@2@@Z 00000001800070de f   node:node.exe
 0001:000060ea       __imp_load_?Escape@EscapableHandleScope@v8@@AEAAPEAPEAVObject@internal@2@PEAPEAV342@@Z 00000001800070ea f   node:node.exe
 0001:000060f6       __imp_load_??0EscapableHandleScope@v8@@QEAA@PEAVIsolate@1@@Z 00000001800070f6 f   node:node.exe
 0001:00006102       __imp_load_?NewFromUtf8@String@v8@@SA?AV?$MaybeLocal@VString@v8@@@2@PEAVIsolate@2@PEBDW4NewStringType@2@H@Z 0000000180007102 f   node:node.exe
 0001:0000610e       __imp_load_?New@Number@v8@@SA?AV?$Local@VNumber@v8@@@2@PEAVIsolate@2@N@Z 000000018000710e f   node:node.exe
 0001:0000611a       __imp_load_?SlowGetInternalField@Object@v8@@AEAA?AV?$Local@VValue@v8@@@2@H@Z 000000018000711a f   node:node.exe
 0001:00006126       __imp_load_?New@Object@v8@@SA?AV?$Local@VObject@v8@@@2@PEAVIsolate@2@@Z 0000000180007126 f   node:node.exe
 0001:00006132       __imp_load_?SetInternalField@Object@v8@@QEAAXHV?$Local@VValue@v8@@@2@@Z 0000000180007132 f   node:node.exe
 0001:0000613e       __imp_load_?Get@Object@v8@@QEAA?AV?$Local@VValue@v8@@@2@I@Z 000000018000713e f   node:node.exe
 0001:0000614a       __imp_load_?ForceSet@Object@v8@@QEAA?AV?$Maybe@_N@2@V?$Local@VContext@v8@@@2@V?$Local@VValue@v8@@@2@1W4PropertyAttribute@2@@Z 000000018000714a f   node:node.exe
 0001:00006156       __imp_load_?Set@Object@v8@@QEAA_NV?$Local@VValue@v8@@@2@0@Z 0000000180007156 f   node:node.exe
 0001:00006162       __imp_load_?Set@Object@v8@@QEAA?AV?$Maybe@_N@2@V?$Local@VContext@v8@@@2@V?$Local@VValue@v8@@@2@1@Z 0000000180007162 f   node:node.exe
 0001:0000616e       __imp_load_?Set@Object@v8@@QEAA?AV?$Maybe@_N@2@V?$Local@VContext@v8@@@2@IV?$Local@VValue@v8@@@2@@Z 000000018000716e f   node:node.exe
 0001:0000617a       __imp_load_?SetName@Function@v8@@QEAAXV?$Local@VString@v8@@@2@@Z 000000018000717a f   node:node.exe
 0001:00006186       __imp_load_?SetInternalFieldCount@ObjectTemplate@v8@@QEAAXH@Z 0000000180007186 f   node:node.exe
 0001:00006192       __imp_load_?NewInstance@ObjectTemplate@v8@@QEAA?AV?$MaybeLocal@VObject@v8@@@2@V?$Local@VContext@v8@@@2@@Z 0000000180007192 f   node:node.exe
 0001:0000619e       __imp_load_?New@ObjectTemplate@v8@@SA?AV?$Local@VObjectTemplate@v8@@@2@PEAVIsolate@2@V?$Local@VFunctionTemplate@v8@@@2@@Z 000000018000719e f   node:node.exe
 0001:000061aa       __imp_load_node_module_register 00000001800071aa f   node:node.exe
 0001:000061b6       __imp_load_?HasInstance@Buffer@node@@YA_NV?$Local@VValue@v8@@@v8@@@Z 00000001800071b6 f   node:node.exe
 0001:000061c2       __imp_load_?New@Buffer@node@@YA?AV?$MaybeLocal@VObject@v8@@@v8@@PEAVIsolate@4@PEAD_KP6AX1PEAX@Z3@Z 00000001800071c2 f   node:node.exe
 0001:000061ce       __imp_load_?Data@Buffer@node@@YAPEADV?$Local@VObject@v8@@@v8@@@Z 00000001800071ce f   node:node.exe
 0001:000061da       __imp_load_?MakeCallback@node@@YA?AV?$Local@VValue@v8@@@v8@@PEAVIsolate@3@V?$Local@VObject@v8@@@3@V?$Local@VFunction@v8@@@3@HPEAV23@@Z 00000001800071da f   node:node.exe
 0001:000061e6       __imp_load_uv_default_loop 00000001800071e6 f   node:node.exe
 0001:00006210       __security_check_cookie    0000000180007210 f   LIBCMT:_amdsecgs_.obj
 0001:00006234       ??2@YAPEAX_K@Z             0000000180007234 f   LIBCMT:new_scalar.obj
 0001:00006270       ??_V@YAXPEAX@Z             0000000180007270 f   LIBCMT:delete_array.obj
 0001:00006270       ??3@YAXPEAX_K@Z            0000000180007270 f   LIBCMT:delete_scalar_size.obj
 0001:000065e8       _DllMainCRTStartup         00000001800075e8 f   LIBCMT:dll_dllmain.obj
 0001:00006628       __raise_securityfailure    0000000180007628 f   LIBCMT:gs_report.obj
 0001:0000665c       __report_gsfailure         000000018000765c f   LIBCMT:gs_report.obj
 0001:00006730       __report_rangecheckfailure 0000000180007730 f   LIBCMT:gs_report.obj
 0001:00006744       __report_securityfailure   0000000180007744 f   LIBCMT:gs_report.obj
 0001:000068c4       ??3@YAXPEAX@Z              00000001800078c4 f   LIBCMT:delete_scalar.obj
 0001:000068cc       ??0bad_alloc@std@@QEAA@AEBV01@@Z 00000001800078cc f i LIBCMT:throw_bad_alloc.obj
 0001:0000690c       ??0bad_alloc@std@@QEAA@XZ  000000018000790c f i LIBCMT:throw_bad_alloc.obj
 0001:0000692c       ??0bad_array_new_length@std@@QEAA@AEBV01@@Z 000000018000792c f i LIBCMT:throw_bad_alloc.obj
 0001:0000696c       ??0bad_array_new_length@std@@QEAA@XZ 000000018000796c f i LIBCMT:throw_bad_alloc.obj
 0001:0000698c       ??0exception@std@@QEAA@AEBV01@@Z 000000018000798c f i LIBCMT:throw_bad_alloc.obj
 0001:000069c4       ??1bad_alloc@std@@UEAA@XZ  00000001800079c4 f i LIBCMT:throw_bad_alloc.obj
 0001:000069c4       ??1bad_array_new_length@std@@UEAA@XZ 00000001800079c4 f i LIBCMT:throw_bad_alloc.obj
 0001:000069d8       ??_Ebad_array_new_length@std@@UEAAPEAXI@Z 00000001800079d8 f i LIBCMT:throw_bad_alloc.obj
 0001:000069d8       ??_Ebad_alloc@std@@UEAAPEAXI@Z 00000001800079d8 f i LIBCMT:throw_bad_alloc.obj
 0001:000069d8       ??_Gexception@std@@UEAAPEAXI@Z 00000001800079d8 f i LIBCMT:throw_bad_alloc.obj
 0001:000069d8       ??_Eexception@std@@UEAAPEAXI@Z 00000001800079d8 f i LIBCMT:throw_bad_alloc.obj
 0001:000069d8       ??_Gbad_array_new_length@std@@UEAAPEAXI@Z 00000001800079d8 f i LIBCMT:throw_bad_alloc.obj
 0001:000069d8       ??_Gbad_alloc@std@@UEAAPEAXI@Z 00000001800079d8 f i LIBCMT:throw_bad_alloc.obj
 0001:00006a1c       ?__scrt_throw_std_bad_alloc@@YAXXZ 0000000180007a1c f   LIBCMT:throw_bad_alloc.obj
 0001:00006a3c       ?__scrt_throw_std_bad_array_new_length@@YAXXZ 0000000180007a3c f   LIBCMT:throw_bad_alloc.obj
 0001:00006a5c       ?what@exception@std@@UEBAPEBDXZ 0000000180007a5c f i LIBCMT:throw_bad_alloc.obj
 0001:00006a70       __scrt_acquire_startup_lock 0000000180007a70 f   LIBCMT:utility.obj
 0001:00006aac       __scrt_dllmain_after_initialize_c 0000000180007aac f   LIBCMT:utility.obj
 0001:00006ae0       __scrt_dllmain_before_initialize_c 0000000180007ae0 f   LIBCMT:utility.obj
 0001:00006af8       __scrt_dllmain_crt_thread_attach 0000000180007af8 f   LIBCMT:utility.obj
 0001:00006b20       __scrt_dllmain_crt_thread_detach 0000000180007b20 f   LIBCMT:utility.obj
 0001:00006b38       __scrt_dllmain_exception_filter 0000000180007b38 f   LIBCMT:utility.obj
 0001:00006b9c       __scrt_dllmain_uninitialize_c 0000000180007b9c f   LIBCMT:utility.obj
 0001:00006bcc       __scrt_dllmain_uninitialize_critical 0000000180007bcc f   LIBCMT:utility.obj
 0001:00006be0       __scrt_initialize_crt      0000000180007be0 f   LIBCMT:utility.obj
 0001:00006c2c       __scrt_initialize_onexit_tables 0000000180007c2c f   LIBCMT:utility.obj
 0001:00006cf8       __scrt_is_nonwritable_in_current_image 0000000180007cf8 f   LIBCMT:utility.obj
 0001:00006d94       __scrt_release_startup_lock 0000000180007d94 f   LIBCMT:utility.obj
 0001:00006db8       __scrt_uninitialize_crt    0000000180007db8 f   LIBCMT:utility.obj
 0001:00006de4       _onexit                    0000000180007de4 f   LIBCMT:utility.obj
 0001:00006e34       atexit                     0000000180007e34 f   LIBCMT:utility.obj
 0001:00006e4c       __security_init_cookie     0000000180007e4c f   LIBCMT:gs_support.obj
 0001:00006ef8       ?__scrt_initialize_type_info@@YAXXZ 0000000180007ef8 f   LIBCMT:tncleanup.obj
 0001:00006f08       ?__scrt_uninitialize_type_info@@YAXXZ 0000000180007f08 f   LIBCMT:tncleanup.obj
 0001:00006f14       __local_stdio_printf_options 0000000180007f14 f i LIBCMT:default_local_stdio_options.obj
 0001:00006f1c       __local_stdio_scanf_options 0000000180007f1c f i LIBCMT:default_local_stdio_options.obj
 0001:00006f24       __scrt_initialize_default_local_stdio_options 0000000180007f24 f   LIBCMT:default_local_stdio_options.obj
 0001:00006f40       __scrt_get_dyn_tls_init_callback 0000000180007f40 f   LIBCMT:dyn_tls_init.obj
 0001:00006f48       __crt_debugger_hook        0000000180007f48 f   LIBCMT:utility_desktop.obj
 0001:00006f50       __scrt_fastfail            0000000180007f50 f   LIBCMT:utility_desktop.obj
 0001:00007098       _RTC_Initialize            0000000180008098 f   LIBCMT:_initsect_.obj
 0001:000070e4       _RTC_Terminate             00000001800080e4 f   LIBCMT:_initsect_.obj
 0001:00007130       _guard_check_icall         0000000180008130 f i LIBCMT:checkcfg.obj
 0001:00007138       ??_Gtype_info@@UEAAPEAXI@Z 0000000180008138 f i LIBCMT:std_type_info_static.obj
 0001:00007138       ??_Etype_info@@UEAAPEAXI@Z 0000000180008138 f i LIBCMT:std_type_info_static.obj
 0001:00007164       __isa_available_init       0000000180008164 f   LIBCMT:_cpu_disp_.obj
 0001:00007328       DllMain                    0000000180008328 f   LIBCMT:dll_dllmain_stub.obj
 0001:00007328       _get_startup_argv_mode     0000000180008328 f   LIBCMT:argv_mode.obj
 0001:00007330       __scrt_is_ucrt_dll_in_use  0000000180008330 f   LIBCMT:ucrt_detection.obj
 0001:00007340       _purecall                  0000000180008340 f   libvcruntime:purevirt.obj
 0001:00007390       memmove                    0000000180008390 f   libvcruntime:memcpy.obj
 0001:00007390       memcpy                     0000000180008390 f   libvcruntime:memcpy.obj
 0001:000077c8       memchr                     00000001800087c8 f   libvcruntime:memchr.obj
 0001:000077e8       __telemetry_main_invoke_trigger 00000001800087e8 f   libvcruntime:telemetry.obj
 0001:00007900       __telemetry_main_return_trigger 0000000180008900 f   libvcruntime:telemetry.obj
 0001:00007a18       __vcrt_initialize_telemetry_provider 0000000180008a18 f   libvcruntime:telemetry.obj
 0001:00007a2c       __vcrt_uninitialize_telemetry_provider 0000000180008a2c f   libvcruntime:telemetry.obj
 0001:00007a4c       __C_specific_handler       0000000180008a4c f   libvcruntime:_chandler_.obj
 0001:00007c48       __std_exception_copy       0000000180008c48 f   libvcruntime:std_exception.obj
 0001:00007cd8       __std_exception_destroy    0000000180008cd8 f   libvcruntime:std_exception.obj
 0001:00007d00       _CxxThrowException         0000000180008d00 f   libvcruntime:throw.obj
 0001:00007dd8       __vcrt_initialize          0000000180008dd8 f   libvcruntime:initialization.obj
 0001:00007e10       __vcrt_thread_attach       0000000180008e10 f   libvcruntime:initialization.obj
 0001:00007e24       __vcrt_thread_detach       0000000180008e24 f   libvcruntime:initialization.obj
 0001:00007e38       __vcrt_uninitialize        0000000180008e38 f   libvcruntime:initialization.obj
 0001:00007e64       __vcrt_uninitialize_critical 0000000180008e64 f   libvcruntime:initialization.obj
 0001:00007e74       __std_type_info_destroy_list 0000000180008e74 f   libvcruntime:std_type_info.obj
 0001:00007eb0       memset                     0000000180008eb0 f   libvcruntime:memset.obj
 0001:00008050       __vcrt_initialize_pure_virtual_call_handler 0000000180009050 f   libvcruntime:purevirt_data.obj
 0001:0000823c       __vcrt_EventRegister       000000018000923c f   libvcruntime:winapi_downlevel.obj
 0001:000082c0       __vcrt_EventSetInformation 00000001800092c0 f   libvcruntime:winapi_downlevel.obj
 0001:00008344       __vcrt_EventUnregister     0000000180009344 f   libvcruntime:winapi_downlevel.obj
 0001:00008398       __vcrt_EventWriteTransfer  0000000180009398 f   libvcruntime:winapi_downlevel.obj
 0001:00008430       __vcrt_FlsAlloc            0000000180009430 f   libvcruntime:winapi_downlevel.obj
 0001:00008484       __vcrt_FlsFree             0000000180009484 f   libvcruntime:winapi_downlevel.obj
 0001:000084d8       __vcrt_FlsGetValue         00000001800094d8 f   libvcruntime:winapi_downlevel.obj
 0001:0000852c       __vcrt_FlsSetValue         000000018000952c f   libvcruntime:winapi_downlevel.obj
 0001:00008594       __vcrt_InitializeCriticalSectionEx 0000000180009594 f   libvcruntime:winapi_downlevel.obj
 0001:0000860c       __vcrt_initialize_winapi_thunks 000000018000960c f   libvcruntime:winapi_downlevel.obj
 0001:00008644       __vcrt_uninitialize_winapi_thunks 0000000180009644 f   libvcruntime:winapi_downlevel.obj
 0001:000086a0       _local_unwind              00000001800096a0 f   libvcruntime:_jmpuwind_.obj
 0001:000086d0       _NLG_Notify                00000001800096d0 f   libvcruntime:_jmpuwind_.obj
 0001:000086f0       __NLG_Dispatch2            00000001800096f0 f   libvcruntime:_jmpuwind_.obj
 0001:00008700       __NLG_Return2              0000000180009700 f   libvcruntime:_jmpuwind_.obj
 0001:00008704       __vcrt_freefls             0000000180009704 f   libvcruntime:per_thread_data.obj
 0001:00008724       __vcrt_freeptd             0000000180009724 f   libvcruntime:per_thread_data.obj
 0001:00008774       __vcrt_getptd_noexit       0000000180009774 f   libvcruntime:per_thread_data.obj
 0001:0000882c       __vcrt_initialize_ptd      000000018000982c f   libvcruntime:per_thread_data.obj
 0001:0000886c       __vcrt_uninitialize_ptd    000000018000986c f   libvcruntime:per_thread_data.obj
 0001:00008890       __vcrt_initialize_locks    0000000180009890 f   libvcruntime:locks.obj
 0001:000088d8       __vcrt_uninitialize_locks  00000001800098d8 f   libvcruntime:locks.obj
 0001:000092f8       ??$ftprintf@PEAU_iobuf@@PEB_WAEBQEB_WAEBQEB_WAEBI@?$__crt_char_traits@_W@@SAH$$QEAPEAU_iobuf@@$$QEAPEB_WAEBQEB_W2AEBI@Z 000000018000a2f8 f i libucrt:assert.obj
 0001:00009320       _wassert                   000000018000a320 f   libucrt:assert.obj
 0001:000093a4       fwprintf                   000000018000a3a4 f i libucrt:assert.obj
 0001:000093e8       swprintf                   000000018000a3e8 f i libucrt:assert.obj
 0001:0000943c       ??0_LocaleUpdate@@QEAA@QEAU__crt_locale_pointers@@@Z 000000018000a43c f i libucrt:stricmp.obj
 0001:000094cc       __ascii_stricmp            000000018000a4cc f   libucrt:stricmp.obj
 0001:00009508       _stricmp                   000000018000a508 f   libucrt:stricmp.obj
 0001:00009550       _stricmp_l                 000000018000a550 f   libucrt:stricmp.obj
 0001:00009604       realloc                    000000018000a604 f   libucrt:realloc.obj
 0001:0000960c       free                       000000018000a60c f   libucrt:free.obj
 0001:00009614       malloc                     000000018000a614 f   libucrt:malloc.obj
 0001:0000961c       __acrt_initialize_new_handler 000000018000a61c f   libucrt:new_handler.obj
 0001:00009624       _callnewh                  000000018000a624 f   libucrt:new_handler.obj
 0001:00009664       _query_new_handler         000000018000a664 f   libucrt:new_handler.obj
 0001:00009698       _initterm                  000000018000a698 f   libucrt:initterm.obj
 0001:00009710       _initterm_e                000000018000a710 f   libucrt:initterm.obj
 0001:0000975c       _seh_filter_dll            000000018000a75c f   libucrt:exception_filter.obj
 0001:00009770       _seh_filter_exe            000000018000a770 f   libucrt:exception_filter.obj
 0001:00009b30       __acrt_initialize_thread_local_exit_callback 000000018000ab30 f   libucrt:exit.obj
 0001:00009b38       _cexit                     000000018000ab38 f   libucrt:exit.obj
 0001:00009b48       _exit                      000000018000ab48 f   libucrt:exit.obj
 0001:00009b54       _is_c_termination_complete 000000018000ab54 f   libucrt:exit.obj
 0001:00009d18       __acrt_allocate_buffer_for_argv 000000018000ad18 f   libucrt:argv_parsing.obj
 0001:00009d7c       _configure_narrow_argv     000000018000ad7c f   libucrt:argv_parsing.obj
 0001:0000a0d8       __dcrt_uninitialize_environments_nolock 000000018000b0d8 f   libucrt:environment_initialization.obj
 0001:0000a110       _initialize_narrow_environment 000000018000b110 f   libucrt:environment_initialization.obj
 0001:0000a118       ??$?RV<lambda_b8c45f8f788dd370798f47cfe8ac3a86>@@AEAV<lambda_4e60a939b0d047cfe11ddc22648dfba9>@@V<lambda_332c3edc96d0294ec56c57d38c1cdfd5>@@@?$__crt_seh_guarded_call@H@@QEAAH$$QEAV<lambda_b8c45f8f788dd370798f47cfe8ac3a86>@@AEAV<lambda_4e60a939b0d047cfe11ddc22648dfba9>@@$$QEAV<lambda_332c3edc96d0294ec56c57d38c1cdfd5>@@@Z 000000018000b118 f i libucrt:onexit.obj
 0001:0000a154       ??$?RV<lambda_e24bbb7b643b32fcea6fa61b31d4c984>@@AEAV<lambda_275893d493268fdec8709772e3fcec0e>@@V<lambda_9d71df4d7cf3f480f8d633942495c3b0>@@@?$__crt_seh_guarded_call@H@@QEAAH$$QEAV<lambda_e24bbb7b643b32fcea6fa61b31d4c984>@@AEAV<lambda_275893d493268fdec8709772e3fcec0e>@@$$QEAV<lambda_9d71df4d7cf3f480f8d633942495c3b0>@@@Z 000000018000b154 f i libucrt:onexit.obj
 0001:0000a4d0       _crt_atexit                000000018000b4d0 f   libucrt:onexit.obj
 0001:0000a4e0       _execute_onexit_table      000000018000b4e0 f   libucrt:onexit.obj
 0001:0000a51c       _initialize_onexit_table   000000018000b51c f   libucrt:onexit.obj
 0001:0000a55c       _register_onexit_function  000000018000b55c f   libucrt:onexit.obj
 0001:0000a6d8       __acrt_initialize          000000018000b6d8 f   libucrt:initialization.obj
 0001:0000a6ec       __acrt_thread_attach       000000018000b6ec f   libucrt:initialization.obj
 0001:0000a700       __acrt_thread_detach       000000018000b700 f   libucrt:initialization.obj
 0001:0000a710       __acrt_uninitialize        000000018000b710 f   libucrt:initialization.obj
 0001:0000a724       __acrt_uninitialize_critical 000000018000b724 f   libucrt:initialization.obj
 0001:0000a734       terminate                  000000018000b734 f   libucrt:terminate.obj
 0001:0000a75c       abort                      000000018000b75c f   libucrt:abort.obj
 0001:0000a7b4       strcpy_s                   000000018000b7b4 f   libucrt:strcpy_s.obj
 0001:0000a814       _free_base                 000000018000b814 f   libucrt:free_base.obj
 0001:0000a854       _malloc_base               000000018000b854 f   libucrt:malloc_base.obj
 0001:0000a8b4       _calloc_base               000000018000b8b4 f   libucrt:calloc_base.obj
 0001:0000a92c       ??$?RV<lambda_7b91131dde12e1c3dfc74ff76b3f2eac>@@AEAV<lambda_dd75445284c072d0bd3768540cc698fa>@@V<lambda_16bc4ecb55b4718497c16bceaea2ceaf>@@@?$__crt_seh_guarded_call@H@@QEAAH$$QEAV<lambda_7b91131dde12e1c3dfc74ff76b3f2eac>@@AEAV<lambda_dd75445284c072d0bd3768540cc698fa>@@$$QEAV<lambda_16bc4ecb55b4718497c16bceaea2ceaf>@@@Z 000000018000b92c f i libucrt:output.obj
 0001:0000a96c       ??$ensure_buffer_is_big_enough@D@formatting_buffer@__crt_stdio_output@@QEAA_N_K@Z 000000018000b96c f i libucrt:output.obj
 0001:0000aa18       ??$is_wide_character_specifier@_W@__crt_stdio_output@@YA_N_K_WW4length_modifier@0@@Z 000000018000ba18 f i libucrt:output.obj
 0001:0000aa5c       ??$type_case_integer_parse_into_buffer@I@?$output_processor@_WV?$string_output_adapter@_W@__crt_stdio_output@@V?$standard_base@_WV?$string_output_adapter@_W@__crt_stdio_output@@@2@@__crt_stdio_output@@AEAAXII_N@Z 000000018000ba5c f i libucrt:output.obj
 0001:0000aa5c       ??$type_case_integer_parse_into_buffer@I@?$output_processor@_WV?$stream_output_adapter@_W@__crt_stdio_output@@V?$standard_base@_WV?$stream_output_adapter@_W@__crt_stdio_output@@@2@@__crt_stdio_output@@AEAAXII_N@Z 000000018000ba5c f i libucrt:output.obj
 0001:0000aaf8       ??$type_case_integer_parse_into_buffer@_K@?$output_processor@_WV?$string_output_adapter@_W@__crt_stdio_output@@V?$standard_base@_WV?$string_output_adapter@_W@__crt_stdio_output@@@2@@__crt_stdio_output@@AEAAX_KI_N@Z 000000018000baf8 f i libucrt:output.obj
 0001:0000aaf8       ??$type_case_integer_parse_into_buffer@_K@?$output_processor@_WV?$stream_output_adapter@_W@__crt_stdio_output@@V?$standard_base@_WV?$stream_output_adapter@_W@__crt_stdio_output@@@2@@__crt_stdio_output@@AEAAX_KI_N@Z 000000018000baf8 f i libucrt:output.obj
 0001:0000ab94       ??$write_multiple_characters@V?$stream_output_adapter@_W@__crt_stdio_output@@D@__crt_stdio_output@@YAXAEBV?$stream_output_adapter@_W@0@DHQEAH@Z 000000018000bb94 f i libucrt:output.obj
 0001:0000ac24       ??$write_multiple_characters@V?$string_output_adapter@_W@__crt_stdio_output@@D@__crt_stdio_output@@YAXAEBV?$string_output_adapter@_W@0@DHQEAH@Z 000000018000bc24 f i libucrt:output.obj
 0001:0000ac94       ??0?$output_processor@_WV?$string_output_adapter@_W@__crt_stdio_output@@V?$standard_base@_WV?$string_output_adapter@_W@__crt_stdio_output@@@2@@__crt_stdio_output@@QEAA@AEBV?$string_output_adapter@_W@1@_KQEB_WQEAU__crt_locale_pointers@@QEAD@Z 000000018000bc94 f i libucrt:output.obj
 0001:0000ac94       ??0?$output_processor@_WV?$stream_output_adapter@_W@__crt_stdio_output@@V?$standard_base@_WV?$stream_output_adapter@_W@__crt_stdio_output@@@2@@__crt_stdio_output@@QEAA@AEBV?$stream_output_adapter@_W@1@_KQEB_WQEAU__crt_locale_pointers@@QEAD@Z 000000018000bc94 f i libucrt:output.obj
 0001:0000ae04       ?force_decimal_point@__crt_stdio_output@@YAXPEADQEAU__crt_locale_pointers@@@Z 000000018000be04 f i libucrt:output.obj
 0001:0000ae74       ?parse_int_from_format_string@?$output_processor@_WV?$stream_output_adapter@_W@__crt_stdio_output@@V?$standard_base@_WV?$stream_output_adapter@_W@__crt_stdio_output@@@2@@__crt_stdio_output@@AEAA_NQEAH@Z 000000018000be74 f i libucrt:output.obj
 0001:0000ae74       ?parse_int_from_format_string@?$output_processor@_WV?$string_output_adapter@_W@__crt_stdio_output@@V?$standard_base@_WV?$string_output_adapter@_W@__crt_stdio_output@@@2@@__crt_stdio_output@@AEAA_NQEAH@Z 000000018000be74 f i libucrt:output.obj
 0001:0000aef4       ?process@?$output_processor@_WV?$stream_output_adapter@_W@__crt_stdio_output@@V?$standard_base@_WV?$stream_output_adapter@_W@__crt_stdio_output@@@2@@__crt_stdio_output@@QEAAHXZ 000000018000bef4 f i libucrt:output.obj
 0001:0000b16c       ?process@?$output_processor@_WV?$string_output_adapter@_W@__crt_stdio_output@@V?$standard_base@_WV?$string_output_adapter@_W@__crt_stdio_output@@@2@@__crt_stdio_output@@QEAAHXZ 000000018000c16c f i libucrt:output.obj
 0001:0000b3e8       ?state_case_size@?$output_processor@_WV?$stream_output_adapter@_W@__crt_stdio_output@@V?$standard_base@_WV?$stream_output_adapter@_W@__crt_stdio_output@@@2@@__crt_stdio_output@@AEAA_NXZ 000000018000c3e8 f i libucrt:output.obj
 0001:0000b58c       ?state_case_size@?$output_processor@_WV?$string_output_adapter@_W@__crt_stdio_output@@V?$standard_base@_WV?$string_output_adapter@_W@__crt_stdio_output@@@2@@__crt_stdio_output@@AEAA_NXZ 000000018000c58c f i libucrt:output.obj
 0001:0000b730       ?state_case_type@?$output_processor@_WV?$stream_output_adapter@_W@__crt_stdio_output@@V?$standard_base@_WV?$stream_output_adapter@_W@__crt_stdio_output@@@2@@__crt_stdio_output@@AEAA_NXZ 000000018000c730 f i libucrt:output.obj
 0001:0000b9fc       ?state_case_type@?$output_processor@_WV?$string_output_adapter@_W@__crt_stdio_output@@V?$standard_base@_WV?$string_output_adapter@_W@__crt_stdio_output@@@2@@__crt_stdio_output@@AEAA_NXZ 000000018000c9fc f i libucrt:output.obj
 0001:0000bcc8       ?type_case_Z@?$output_processor@_WV?$string_output_adapter@_W@__crt_stdio_output@@V?$standard_base@_WV?$string_output_adapter@_W@__crt_stdio_output@@@2@@__crt_stdio_output@@AEAA_NXZ 000000018000ccc8 f i libucrt:output.obj
 0001:0000bcc8       ?type_case_Z@?$output_processor@_WV?$stream_output_adapter@_W@__crt_stdio_output@@V?$standard_base@_WV?$stream_output_adapter@_W@__crt_stdio_output@@@2@@__crt_stdio_output@@AEAA_NXZ 000000018000ccc8 f i libucrt:output.obj
 0001:0000bd48       ?type_case_a@?$output_processor@_WV?$stream_output_adapter@_W@__crt_stdio_output@@V?$standard_base@_WV?$stream_output_adapter@_W@__crt_stdio_output@@@2@@__crt_stdio_output@@AEAA_NXZ 000000018000cd48 f i libucrt:output.obj
 0001:0000bd48       ?type_case_a@?$output_processor@_WV?$string_output_adapter@_W@__crt_stdio_output@@V?$standard_base@_WV?$string_output_adapter@_W@__crt_stdio_output@@@2@@__crt_stdio_output@@AEAA_NXZ 000000018000cd48 f i libucrt:output.obj
 0001:0000bf8c       ?type_case_c_tchar@?$output_processor@_WV?$stream_output_adapter@_W@__crt_stdio_output@@V?$standard_base@_WV?$stream_output_adapter@_W@__crt_stdio_output@@@2@@__crt_stdio_output@@AEAA_N_W@Z 000000018000cf8c f i libucrt:output.obj
 0001:0000bf8c       ?type_case_c_tchar@?$output_processor@_WV?$string_output_adapter@_W@__crt_stdio_output@@V?$standard_base@_WV?$string_output_adapter@_W@__crt_stdio_output@@@2@@__crt_stdio_output@@AEAA_N_W@Z 000000018000cf8c f i libucrt:output.obj
 0001:0000c034       ?type_case_integer@?$output_processor@_WV?$string_output_adapter@_W@__crt_stdio_output@@V?$standard_base@_WV?$string_output_adapter@_W@__crt_stdio_output@@@2@@__crt_stdio_output@@AEAA_NI_N@Z 000000018000d034 f i libucrt:output.obj
 0001:0000c034       ?type_case_integer@?$output_processor@_WV?$stream_output_adapter@_W@__crt_stdio_output@@V?$standard_base@_WV?$stream_output_adapter@_W@__crt_stdio_output@@@2@@__crt_stdio_output@@AEAA_NI_N@Z 000000018000d034 f i libucrt:output.obj
 0001:0000c1d4       ?type_case_n@?$output_processor@_WV?$string_output_adapter@_W@__crt_stdio_output@@V?$standard_base@_WV?$string_output_adapter@_W@__crt_stdio_output@@@2@@__crt_stdio_output@@AEAA_NXZ 000000018000d1d4 f i libucrt:output.obj
 0001:0000c1d4       ?type_case_n@?$output_processor@_WV?$stream_output_adapter@_W@__crt_stdio_output@@V?$standard_base@_WV?$stream_output_adapter@_W@__crt_stdio_output@@@2@@__crt_stdio_output@@AEAA_NXZ 000000018000d1d4 f i libucrt:output.obj
 0001:0000c2b0       ?type_case_s@?$output_processor@_WV?$stream_output_adapter@_W@__crt_stdio_output@@V?$standard_base@_WV?$stream_output_adapter@_W@__crt_stdio_output@@@2@@__crt_stdio_output@@AEAA_NXZ 000000018000d2b0 f i libucrt:output.obj
 0001:0000c2b0       ?type_case_s@?$output_processor@_WV?$string_output_adapter@_W@__crt_stdio_output@@V?$standard_base@_WV?$string_output_adapter@_W@__crt_stdio_output@@@2@@__crt_stdio_output@@AEAA_NXZ 000000018000d2b0 f i libucrt:output.obj
 0001:0000c378       ?write_stored_string_tchar@?$output_processor@_WV?$stream_output_adapter@_W@__crt_stdio_output@@V?$standard_base@_WV?$stream_output_adapter@_W@__crt_stdio_output@@@2@@__crt_stdio_output@@AEAA_N_W@Z 000000018000d378 f i libucrt:output.obj
 0001:0000c464       ?write_stored_string_tchar@?$output_processor@_WV?$string_output_adapter@_W@__crt_stdio_output@@V?$standard_base@_WV?$string_output_adapter@_W@__crt_stdio_output@@@2@@__crt_stdio_output@@AEAA_N_W@Z 000000018000d464 f i libucrt:output.obj
 0001:0000c554       ?write_string@?$stream_output_adapter@_W@__crt_stdio_output@@QEBAXQEB_WHQEAH1@Z 000000018000d554 f i libucrt:output.obj
 0001:0000c660       ?write_string@?$string_output_adapter@_W@__crt_stdio_output@@QEBAXQEB_WHQEAH1@Z 000000018000d660 f i libucrt:output.obj
 0001:0000c720       __stdio_common_vfwprintf   000000018000d720 f   libucrt:output.obj
 0001:0000c7ac       __stdio_common_vswprintf   000000018000d7ac f   libucrt:output.obj
 0001:0000c9e4       ??$is_overflow_condition@K@__crt_strtox@@YA_NIK@Z 000000018000d9e4 f i libucrt:atox.obj
 0001:0000ca10       ??$parse_integer@KV?$c_string_character_source@_W@__crt_strtox@@@__crt_strtox@@YAKQEAU__crt_locale_pointers@@V?$c_string_character_source@_W@0@H_N@Z 000000018000da10 f i libucrt:atox.obj
 0001:0000d0e4       __acrt_call_reportfault    000000018000e0e4 f   libucrt:invalid_parameter.obj
 0001:0000d240       __acrt_initialize_invalid_parameter_handler 000000018000e240 f   libucrt:invalid_parameter.obj
 0001:0000d248       _invalid_parameter         000000018000e248 f   libucrt:invalid_parameter.obj
 0001:0000d2f0       _invalid_parameter_noinfo  000000018000e2f0 f   libucrt:invalid_parameter.obj
 0001:0000d310       _invoke_watson             000000018000e310 f   libucrt:invalid_parameter.obj
 0001:0000d358       _query_app_type            000000018000e358 f   libucrt:report_runtime_error.obj
 0001:0000d360       __acrt_errno_from_os_error 000000018000e360 f   libucrt:errno.obj
 0001:0000d3a8       __acrt_errno_map_os_error  000000018000e3a8 f   libucrt:errno.obj
 0001:0000d3f8       __doserrno                 000000018000e3f8 f   libucrt:errno.obj
 0001:0000d418       _errno                     000000018000e418 f   libucrt:errno.obj
 0001:0000d560       _itow_s                    000000018000e560 f   libucrt:xtoa.obj
 0001:0000d580       _set_error_mode            000000018000e580 f   libucrt:set_error_mode.obj
 0001:0000d5c0       wcscat_s                   000000018000e5c0 f   libucrt:wcscat_s.obj
 0001:0000d640       wcscpy_s                   000000018000e640 f   libucrt:wcscpy_s.obj
 0001:0000d6a8       wcsncat_s                  000000018000e6a8 f   libucrt:wcsncat_s.obj
 0001:0000d7d0       __acrt_show_wide_message_box 000000018000e7d0 f   libucrt:crtmbox.obj
 0001:0000d8ec       __acrt_initialize_stdio    000000018000e8ec f   libucrt:_file.obj
 0001:0000da0c       __acrt_iob_func            000000018000ea0c f   libucrt:_file.obj
 0001:0000da20       __acrt_uninitialize_stdio  000000018000ea20 f   libucrt:_file.obj
 0001:0000da7c       _lock_file                 000000018000ea7c f   libucrt:_file.obj
 0001:0000da88       _unlock_file               000000018000ea88 f   libucrt:_file.obj
 0001:0000da94       __acrt_stdio_flush_nolock  000000018000ea94 f   libucrt:fflush.obj
 0001:0000db0c       _fflush_nolock             000000018000eb0c f   libucrt:fflush.obj
 0001:0000db58       _flushall                  000000018000eb58 f   libucrt:fflush.obj
 0001:0000dc48       fflush                     000000018000ec48 f   libucrt:fflush.obj
 0001:0000dc8c       ??$?RV<lambda_7a5ef57ff966f610505f1d28a3d40618>@@AEAV<lambda_b721fa326cdb32351d23dfa67958c160>@@V<lambda_5e0fb27672408a07956fe59e48ccb2aa>@@@?$__crt_seh_guarded_call@H@@QEAAH$$QEAV<lambda_7a5ef57ff966f610505f1d28a3d40618>@@AEAV<lambda_b721fa326cdb32351d23dfa67958c160>@@$$QEAV<lambda_5e0fb27672408a07956fe59e48ccb2aa>@@@Z 000000018000ec8c f i libucrt:setvbuf.obj
 0001:0000ddbc       setvbuf                    000000018000edbc f   libucrt:setvbuf.obj
 0001:0000de5c       ??$?RV<lambda_c36588078e9f5dfd39652860aa6b3aaf>@@AEAV<lambda_ec61778202f4f5fc7e7711acc23c3bca>@@V<lambda_dc9d2797ccde5d239b4a0efae8ebd7db>@@@?$__crt_seh_guarded_call@P6AXH@Z@@QEAAP6AXH@Z$$QEAV<lambda_c36588078e9f5dfd39652860aa6b3aaf>@@AEAV<lambda_ec61778202f4f5fc7e7711acc23c3bca>@@$$QEAV<lambda_dc9d2797ccde5d239b4a0efae8ebd7db>@@@Z 000000018000ee5c f i libucrt:signal.obj
 0001:0000dea4       __acrt_get_sigabrt_handler 000000018000eea4 f   libucrt:signal.obj
 0001:0000ded4       __acrt_initialize_signal_handlers 000000018000eed4 f   libucrt:signal.obj
 0001:0000def4       raise                      000000018000eef4 f   libucrt:signal.obj
 0001:0000e1e0       _tolower_l                 000000018000f1e0 f   libucrt:tolower_toupper.obj
 0001:0000e320       tolower                    000000018000f320 f   libucrt:tolower_toupper.obj
 0001:0000e34c       ??$?RV<lambda_46352004c1216016012b18bd6f87e700>@@AEAV<lambda_3bd07e1a1191394380780325891bf33f>@@V<lambda_334532d3f185bcaa59b5be82d7d22bff>@@@?$__crt_seh_guarded_call@X@@QEAAX$$QEAV<lambda_46352004c1216016012b18bd6f87e700>@@AEAV<lambda_3bd07e1a1191394380780325891bf33f>@@$$QEAV<lambda_334532d3f185bcaa59b5be82d7d22bff>@@@Z 000000018000f34c f i libucrt:per_thread_data.obj
 0001:0000e3ac       ??$?RV<lambda_5e887d1dcbef67a5eb4283622ba103bf>@@AEAV<lambda_4466841279450cc726390878d4a41900>@@V<lambda_341c25c0346d94847f1f3c463c57e077>@@@?$__crt_seh_guarded_call@X@@QEAAX$$QEAV<lambda_5e887d1dcbef67a5eb4283622ba103bf>@@AEAV<lambda_4466841279450cc726390878d4a41900>@@$$QEAV<lambda_341c25c0346d94847f1f3c463c57e077>@@@Z 000000018000f3ac f i libucrt:per_thread_data.obj
 0001:0000e3f4       ??$?RV<lambda_72d1df2b273a38828b1ce30cbf4cdab5>@@AEAV<lambda_876a65b173b8412d3a47c70a915b0cf4>@@V<lambda_41932305e351933ebe8f8be3ed8bb5dc>@@@?$__crt_seh_guarded_call@X@@QEAAX$$QEAV<lambda_72d1df2b273a38828b1ce30cbf4cdab5>@@AEAV<lambda_876a65b173b8412d3a47c70a915b0cf4>@@$$QEAV<lambda_41932305e351933ebe8f8be3ed8bb5dc>@@@Z 000000018000f3f4 f i libucrt:per_thread_data.obj
 0001:0000e434       ??$?RV<lambda_fb3a7dec4e47f37f22dae91bb15c9095>@@AEAV<lambda_698284760c8add0bfb0756c19673e34b>@@V<lambda_dfb8eca1e75fef3034a8fb18dd509707>@@@?$__crt_seh_guarded_call@X@@QEAAX$$QEAV<lambda_fb3a7dec4e47f37f22dae91bb15c9095>@@AEAV<lambda_698284760c8add0bfb0756c19673e34b>@@$$QEAV<lambda_dfb8eca1e75fef3034a8fb18dd509707>@@@Z 000000018000f434 f i libucrt:per_thread_data.obj
 0001:0000e6c4       __acrt_freeptd             000000018000f6c4 f   libucrt:per_thread_data.obj
 0001:0000e708       __acrt_getptd              000000018000f708 f   libucrt:per_thread_data.obj
 0001:0000e79c       __acrt_getptd_noexit       000000018000f79c f   libucrt:per_thread_data.obj
 0001:0000e83c       __acrt_initialize_ptd      000000018000f83c f   libucrt:per_thread_data.obj
 0001:0000e878       __acrt_uninitialize_ptd    000000018000f878 f   libucrt:per_thread_data.obj
 0001:0000e89c       __acrt_update_locale_info  000000018000f89c f   libucrt:locale_update.obj
 0001:0000e8d0       __acrt_update_multibyte_info 000000018000f8d0 f   libucrt:locale_update.obj
 0001:0000e904       __acrt_set_locale_changed  000000018000f904 f   libucrt:wsetlocale.obj
 0001:0000e910       __acrt_uninitialize_locale 000000018000f910 f   libucrt:wsetlocale.obj
 0001:0000e958       _realloc_base              000000018000f958 f   libucrt:realloc_base.obj
 0001:0000e9dc       __acrt_initialize_locks    000000018000f9dc f   libucrt:locks.obj
 0001:0000ea24       __acrt_lock                000000018000fa24 f   libucrt:locks.obj
 0001:0000ea40       __acrt_uninitialize_locks  000000018000fa40 f   libucrt:locks.obj
 0001:0000ea78       __acrt_unlock              000000018000fa78 f   libucrt:locks.obj
 0001:0000ec34       __acrt_FlsAlloc            000000018000fc34 f   libucrt:winapi_thunks.obj
 0001:0000ec8c       __acrt_FlsFree             000000018000fc8c f   libucrt:winapi_thunks.obj
 0001:0000ece4       __acrt_FlsGetValue         000000018000fce4 f   libucrt:winapi_thunks.obj
 0001:0000ed3c       __acrt_FlsSetValue         000000018000fd3c f   libucrt:winapi_thunks.obj
 0001:0000eda4       __acrt_InitializeCriticalSectionEx 000000018000fda4 f   libucrt:winapi_thunks.obj
 0001:0000ee1c       __acrt_LCMapStringEx       000000018000fe1c f   libucrt:winapi_thunks.obj
 0001:0000ef0c       __acrt_LocaleNameToLCID    000000018000ff0c f   libucrt:winapi_thunks.obj
 0001:0000ef74       __acrt_MessageBoxW         000000018000ff74 f   libucrt:winapi_thunks.obj
 0001:0000effc       __acrt_can_show_message_box 000000018000fffc f   libucrt:winapi_thunks.obj
 0001:0000f058       __acrt_get_parent_window   0000000180010058 f   libucrt:winapi_thunks.obj
 0001:0000f0e8       __acrt_initialize_winapi_thunks 00000001800100e8 f   libucrt:winapi_thunks.obj
 0001:0000f120       __acrt_is_interactive      0000000180010120 f   libucrt:winapi_thunks.obj
 0001:0000f1f4       __acrt_is_packaged_app     00000001800101f4 f   libucrt:winapi_thunks.obj
 0001:0000f27c       __acrt_uninitialize_winapi_thunks 000000018001027c f   libucrt:winapi_thunks.obj
 0001:0000f79c       ?expand_if_necessary@?$argument_list@D@?A0xca0879c4@@AEAAHXZ 000000018001079c f i libucrt:argv_wildcards.obj
 0001:0000f864       __acrt_expand_narrow_argv_wildcards 0000000180010864 f   libucrt:argv_wildcards.obj
 0001:0000f86c       ??$?RV<lambda_99476a1ad63dd22509b5d3e65b0ffc95>@@AEAV<lambda_ad1ced32f4ac17aa236e5ef05d6b3b7c>@@V<lambda_f7424dd8d45958661754dc4f2697e9c3>@@@?$__crt_seh_guarded_call@X@@QEAAX$$QEAV<lambda_99476a1ad63dd22509b5d3e65b0ffc95>@@AEAV<lambda_ad1ced32f4ac17aa236e5ef05d6b3b7c>@@$$QEAV<lambda_f7424dd8d45958661754dc4f2697e9c3>@@@Z 000000018001086c f i libucrt:mbctype.obj
 0001:0000ff68       __acrt_initialize_multibyte 0000000180010f68 f   libucrt:mbctype.obj
 0001:0000ff90       __acrt_update_thread_multibyte_data 0000000180010f90 f   libucrt:mbctype.obj
 0001:00010050       _setmbcp_nolock            0000000180011050 f   libucrt:mbctype.obj
 0001:00010370       _ismbblead                 0000000180011370 f   libucrt:ismbbyte.obj
 0001:00010384       __acrt_initialize_command_line 0000000180011384 f   libucrt:argv_data.obj
 0001:000103ac       __acrt_uninitialize_command_line 00000001800113ac f   libucrt:argv_data.obj
 0001:000103b0       __dcrt_get_narrow_environment_from_os 00000001800113b0 f   libucrt:get_environment_from_os.obj
 0001:000104b4       _recalloc                  00000001800114b4 f   libucrt:recalloc.obj
 0001:000104bc       _recalloc_base             00000001800114bc f   libucrt:recalloc.obj
 0001:00010554       __acrt_initialize_heap     0000000180011554 f   libucrt:heap_handle.obj
 0001:00010570       __acrt_uninitialize_heap   0000000180011570 f   libucrt:heap_handle.obj
 0001:00010764       __acrt_initialize_lowio    0000000180011764 f   libucrt:ioinit.obj
 0001:000107a0       __acrt_uninitialize_lowio  00000001800117a0 f   libucrt:ioinit.obj
 0001:000107e0       __acrt_execute_initializers 00000001800117e0 f   libucrt:shared_initialization.obj
 0001:00010874       __acrt_execute_uninitializers 0000000180011874 f   libucrt:shared_initialization.obj
 0001:000108c4       __acrt_has_user_matherr    00000001800118c4 f   libucrt:matherr.obj
 0001:000108e4       __acrt_initialize_user_matherr 00000001800118e4 f   libucrt:matherr.obj
 0001:000108ec       __acrt_invoke_user_matherr 00000001800118ec f   libucrt:matherr.obj
 0001:00010934       __acrt_stdio_begin_temporary_buffering_nolock 0000000180011934 f   libucrt:_sftbuf.obj
 0001:00010a04       __acrt_stdio_end_temporary_buffering_nolock 0000000180011a04 f   libucrt:_sftbuf.obj
 0001:00010a40       _query_new_mode            0000000180011a40 f   libucrt:new_mode.obj
 0001:00010a48       isdigit                    0000000180011a48 f i libucrt:_ctype.obj
 0001:00010abc       ??$make_c_string_character_source@_WPEAPEA_W@__crt_strtox@@YA?AV?$c_string_character_source@_W@0@QEB_WQEAPEA_W@Z 0000000180011abc f i libucrt:strtox.obj
 0001:00010ad0       wcstol                     0000000180011ad0 f   libucrt:strtox.obj
 0001:00010b00       _mbtowc_l                  0000000180011b00 f   libucrt:mbtowc.obj
 0001:00010c48       mbtowc                     0000000180011c48 f   libucrt:mbtowc.obj
 0001:00010c50       _wctomb_s_l                0000000180011c50 f   libucrt:wctomb.obj
 0001:00010dd4       wctomb_s                   0000000180011dd4 f   libucrt:wctomb.obj
 0001:00010de8       wcsnlen                    0000000180011de8 f   libucrt:strnlen.obj
 0001:00010fd8       ?__acrt_fp_classify@@YA?AW4__acrt_fp_class@@AEBN@Z 0000000180011fd8 f i libucrt:cvt.obj
 0001:00011a10       __acrt_fp_format           0000000180012a10 f   libucrt:cvt.obj
 0001:00011c54       _fputwc_nolock             0000000180012c54 f   libucrt:fputwc.obj
 0001:00011dd0       _fileno                    0000000180012dd0 f   libucrt:fileno.obj
 0001:00011df8       _fputc_nolock              0000000180012df8 f   libucrt:fputc.obj
 0001:00011e10       _get_printf_count_output   0000000180012e10 f   libucrt:printf_count_output.obj
 0001:00011e28       __pctype_func              0000000180012e28 f   libucrt:ctype.obj
 0001:00011e58       iswctype                   0000000180012e58 f   libucrt:iswctype.obj
 0001:00011ec8       _isctype_l                 0000000180012ec8 f   libucrt:isctype.obj
 0001:00011fd8       _fcloseall                 0000000180012fd8 f   libucrt:closeall.obj
 0001:0001208c       __acrt_stdio_free_buffer_nolock 000000018001308c f   libucrt:_freebuf.obj
 0001:000120cc       ??$?RV<lambda_b521505b218e5242e90febf6bfebc422>@@AEAV<lambda_6978c1fb23f02e42e1d9e99668cc68aa>@@V<lambda_314360699dd331753a4119843814e9a7>@@@?$__crt_seh_guarded_call@H@@QEAAH$$QEAV<lambda_b521505b218e5242e90febf6bfebc422>@@AEAV<lambda_6978c1fb23f02e42e1d9e99668cc68aa>@@$$QEAV<lambda_314360699dd331753a4119843814e9a7>@@@Z 00000001800130cc f i libucrt:commit.obj
 0001:00012158       _commit                    0000000180013158 f   libucrt:commit.obj
 0001:0001278c       _write                     000000018001378c f   libucrt:write.obj
 0001:00012878       _write_nolock              0000000180013878 f   libucrt:write.obj
 0001:00012b5c       _isleadbyte_l              0000000180013b5c f i libucrt:_wctype.obj
 0001:00012ef8       __acrt_LCMapStringA        0000000180013ef8 f   libucrt:lcmapstringa.obj
 0001:00012f90       __acrt_add_locale_ref      0000000180013f90 f   libucrt:locale_refcounting.obj
 0001:0001301c       __acrt_free_locale         000000018001401c f   libucrt:locale_refcounting.obj
 0001:00013194       __acrt_locale_add_lc_time_reference 0000000180014194 f   libucrt:locale_refcounting.obj
 0001:000131bc       __acrt_locale_free_lc_time_if_unreferenced 00000001800141bc f   libucrt:locale_refcounting.obj
 0001:000131f4       __acrt_locale_release_lc_time_reference 00000001800141f4 f   libucrt:locale_refcounting.obj
 0001:0001321c       __acrt_release_locale_ref  000000018001421c f   libucrt:locale_refcounting.obj
 0001:000132c4       __acrt_update_thread_locale_data 00000001800142c4 f   libucrt:locale_refcounting.obj
 0001:00013334       _updatetlocinfoEx_nolock   0000000180014334 f   libucrt:locale_refcounting.obj
 0001:0001339c       __acrt_locale_free_monetary 000000018001439c f   libucrt:initmon.obj
 0001:000134a8       __acrt_locale_free_numeric 00000001800144a8 f   libucrt:initnum.obj
 0001:0001356c       __acrt_locale_free_time    000000018001456c f   libucrt:inittime.obj
 0001:00013674       __acrt_GetStringTypeA      0000000180014674 f   libucrt:getstringtypea.obj
 0001:000138f0       __acrt_DownlevelLocaleNameToLCID 00000001800148f0 f   libucrt:lcidtoname_downlevel.obj
 0001:00013a00       qsort                      0000000180014a00 f   libucrt:qsort.obj
 0001:00013d34       strncpy_s                  0000000180014d34 f   libucrt:strncpy_s.obj
 0001:00013e08       strpbrk                    0000000180014e08 f   libucrt:strpbrk.obj
 0001:00013ea8       _mbsdec                    0000000180014ea8 f   libucrt:mbsdec.obj
 0001:00013eb0       _mbsdec_l                  0000000180014eb0 f   libucrt:mbsdec.obj
 0001:00013f60       _msize                     0000000180014f60 f   libucrt:msize.obj
 0001:00013f9c       __acrt_lowio_create_handle_array 0000000180014f9c f   libucrt:osfinfo.obj
 0001:00014034       __acrt_lowio_destroy_handle_array 0000000180015034 f   libucrt:osfinfo.obj
 0001:00014084       __acrt_lowio_ensure_fh_exists 0000000180015084 f   libucrt:osfinfo.obj
 0001:0001413c       __acrt_lowio_lock_fh       000000018001513c f   libucrt:osfinfo.obj
 0001:00014160       __acrt_lowio_unlock_fh     0000000180015160 f   libucrt:osfinfo.obj
 0001:00014184       _free_osfhnd               0000000180015184 f   libucrt:osfinfo.obj
 0001:00014240       _get_osfhandle             0000000180015240 f   libucrt:osfinfo.obj
 0001:000142b8       _isatty                    00000001800152b8 f   libucrt:isatty.obj
 0001:00014318       __acrt_fp_strflt_to_string 0000000180015318 f   libucrt:_fptostr.obj
 0001:000143e0       ?divide@__crt_strtox@@YA_KAEAUbig_integer@1@AEBU21@@Z 00000001800153e0 f i libucrt:cfout.obj
 0001:000148b0       __acrt_fltout              00000001800158b0 f   libucrt:cfout.obj
 0001:00015eb4       __acrt_stdio_flush_and_write_narrow_nolock 0000000180016eb4 f   libucrt:_flsbuf.obj
 0001:00015f9c       __acrt_stdio_flush_and_write_wide_nolock 0000000180016f9c f   libucrt:_flsbuf.obj
 0001:00016088       _fclose_nolock             0000000180017088 f   libucrt:fclose.obj
 0001:0001610c       fclose                     000000018001710c f   libucrt:fclose.obj
 0001:00016304       _lseeki64                  0000000180017304 f   libucrt:lseek.obj
 0001:0001630c       _lseeki64_nolock           000000018001730c f   libucrt:lseek.obj
 0001:00016314       _putwch_nolock             0000000180017314 f   libucrt:putwch.obj
 0001:00016370       __strncnt                  0000000180017370 f   libucrt:strncnt.obj
 0001:00016388       fegetenv                   0000000180017388 f   libucrt:fegetenv.obj
 0001:000163a8       fesetenv                   00000001800173a8 f   libucrt:fesetenv.obj
 0001:000163f4       feholdexcept               00000001800173f4 f   libucrt:feholdexcept.obj
 0001:00016444       ceil                       0000000180017444 f   libucrt:ceil.obj
 0001:00016510       log10                      0000000180017510 f   libucrt:log10.obj
 0001:00016abc       __acrt_stdio_allocate_buffer_nolock 0000000180017abc f   libucrt:_getbuf.obj
 0001:00016b20       ??$?RV<lambda_bfedae4ebbf01fab1bb6dcc6a9e276e0>@@AEAV<lambda_2fe9b910cf3cbf4a0ab98a02ba45b3ec>@@V<lambda_237c231691f317818eb88cc1d5d642d6>@@@?$__crt_seh_guarded_call@H@@QEAAH$$QEAV<lambda_bfedae4ebbf01fab1bb6dcc6a9e276e0>@@AEAV<lambda_2fe9b910cf3cbf4a0ab98a02ba45b3ec>@@$$QEAV<lambda_237c231691f317818eb88cc1d5d642d6>@@@Z 0000000180017b20 f i libucrt:close.obj
 0001:00016b94       _close                     0000000180017b94 f   libucrt:close.obj
 0001:00016c38       _close_nolock              0000000180017c38 f   libucrt:close.obj
 0001:00016cf4       ?__acrt_stdio_free_stream@@YAXV__crt_stdio_stream@@@Z 0000000180017cf4 f   libucrt:stream.obj
 0001:00016d38       __dcrt_lowio_initialize_console_output 0000000180017d38 f   libucrt:initcon.obj
 0001:00016d74       __dcrt_terminate_console_output 0000000180017d74 f   libucrt:initcon.obj
 0001:00016d94       _getfpcontrolword          0000000180017d94 f   libucrt:_fenvutils.obj
 0001:00016dac       _getfpstatusword           0000000180017dac f   libucrt:_fenvutils.obj
 0001:00016dc0       _setfpcontrolword          0000000180017dc0 f   libucrt:_fenvutils.obj
 0001:00016dcc       _setfpstatusword           0000000180017dcc f   libucrt:_fenvutils.obj
 0001:00016e1c       _clearfp                   0000000180017e1c f   libucrt:ieee.obj
 0001:00016e70       _controlfp                 0000000180017e70 f   libucrt:ieee.obj
 0001:00016e7c       _statusfp                  0000000180017e7c f   libucrt:ieee.obj
 0001:00017280       _handle_error              0000000180018280 f   libucrt:libm_error.obj
 0001:000173a8       _handle_nan                00000001800183a8 f   libucrt:libm_error.obj
 0001:000173d0       __acrt_initialize_fma3     00000001800183d0 f   libucrt:fma3_available.obj
 0001:00017440       _log10_special             0000000180018440 f   libucrt:log_special.obj
 0001:00017510       _get_fpsr                  0000000180018510 f   libucrt:fpsr.obj
 0001:00017520       _set_fpsr                  0000000180018520 f   libucrt:fpsr.obj
 0001:0001752a       _fclrf                     000000018001852a f   libucrt:fpsr.obj
 0001:0001753e       _frnd                      000000018001853e f   libucrt:fpsr.obj
 0001:00017560       _raise_exc                 0000000180018560 f   libucrt:fpexcept.obj
 0001:00017588       _raise_exc_ex              0000000180018588 f   libucrt:fpexcept.obj
 0001:00017890       _set_errno_from_matherr    0000000180018890 f   libucrt:fpexcept.obj
 0001:000178c0       _clrfp                     00000001800188c0 f   libucrt:fpctrl.obj
 0001:000178e0       _ctrlfp                    00000001800188e0 f   libucrt:fpctrl.obj
 0001:0001795c       _set_statfp                000000018001895c f   libucrt:fpctrl.obj
 0001:0001797c       _statfp                    000000018001897c f   libucrt:fpctrl.obj
 0001:0001798e       IsProcessorFeaturePresent  000000018001898e f   kernel32:KERNEL32.dll
 0001:00017994       RtlUnwindEx                0000000180018994 f   kernel32:KERNEL32.dll
 0001:0001799a       SystemFunction036          000000018001899a f   advapi32:ADVAPI32.dll
 0001:000179a0       ?DloadAcquireSectionWriteAccess@@YAXXZ 00000001800189a0 f i DelayImp:delayhlp.obj
 0001:00017a5c       ?DloadGetSRWLockFunctionPointers@@YAEXZ 0000000180018a5c f i DelayImp:delayhlp.obj
 0001:00017af8       ?DloadMakePermanentImageCommit@@YAXPEAX_K@Z 0000000180018af8 f i DelayImp:delayhlp.obj
 0001:00017b90       ?DloadObtainSection@@YAPEAXPEAK0@Z 0000000180018b90 f i DelayImp:delayhlp.obj
 0001:00017c28       ?DloadProtectSection@@YAXKPEAK@Z 0000000180018c28 f i DelayImp:delayhlp.obj
 0001:00017cb8       ?DloadReleaseSectionWriteAccess@@YAXXZ 0000000180018cb8 f i DelayImp:delayhlp.obj
 0001:00017d5c       __delayLoadHelper2         0000000180018d5c f   DelayImp:delayhlp.obj
 0001:00018064       __GSHandlerCheck           0000000180019064 f   LIBCMT:_gshandler_.obj
 0001:00018084       __GSHandlerCheckCommon     0000000180019084 f   LIBCMT:_gshandler_.obj
 0001:000180e0       _FindPESection             00000001800190e0 f   LIBCMT:pesect.obj
 0001:00018130       _IsNonwritableInCurrentImage 0000000180019130 f   LIBCMT:pesect.obj
 0001:00018180       _ValidateImageBase         0000000180019180 f   LIBCMT:pesect.obj
 0001:000181c0       _alloca_probe              00000001800191c0 f   LIBCMT:_chkstk_.obj
 0001:000181c0       __chkstk                   00000001800191c0 f   LIBCMT:_chkstk_.obj
 0001:00018230       memcmp                     0000000180019230 f   libvcruntime:memcmp.obj
 0001:000182f8       strrchr                    00000001800192f8 f   libvcruntime:strrchr.obj
 0001:00018450       _guard_dispatch_icall_nop  0000000180019450 f   LIBCMT:_guard_dispatch_.obj
 0002:00000000       __imp_SystemFunction036    000000018001a000     advapi32:ADVAPI32.dll
 0002:00000008       \177ADVAPI32_NULL_THUNK_DATA 000000018001a008     advapi32:ADVAPI32.dll
 0002:00000010       __imp_RtlCaptureContext    000000018001a010     kernel32:KERNEL32.dll
 0002:00000018       __imp_RtlLookupFunctionEntry 000000018001a018     kernel32:KERNEL32.dll
 0002:00000020       __imp_RtlVirtualUnwind     000000018001a020     kernel32:KERNEL32.dll
 0002:00000028       __imp_UnhandledExceptionFilter 000000018001a028     kernel32:KERNEL32.dll
 0002:00000030       __imp_SetUnhandledExceptionFilter 000000018001a030     kernel32:KERNEL32.dll
 0002:00000038       __imp_GetCurrentProcess    000000018001a038     kernel32:KERNEL32.dll
 0002:00000040       __imp_TerminateProcess     000000018001a040     kernel32:KERNEL32.dll
 0002:00000048       __imp_IsProcessorFeaturePresent 000000018001a048     kernel32:KERNEL32.dll
 0002:00000050       __imp_QueryPerformanceCounter 000000018001a050     kernel32:KERNEL32.dll
 0002:00000058       __imp_GetCurrentProcessId  000000018001a058     kernel32:KERNEL32.dll
 0002:00000060       __imp_GetCurrentThreadId   000000018001a060     kernel32:KERNEL32.dll
 0002:00000068       __imp_GetSystemTimeAsFileTime 000000018001a068     kernel32:KERNEL32.dll
 0002:00000070       __imp_InitializeSListHead  000000018001a070     kernel32:KERNEL32.dll
 0002:00000078       __imp_IsDebuggerPresent    000000018001a078     kernel32:KERNEL32.dll
 0002:00000080       __imp_GetStartupInfoW      000000018001a080     kernel32:KERNEL32.dll
 0002:00000088       __imp_GetModuleHandleW     000000018001a088     kernel32:KERNEL32.dll
 0002:00000090       __imp_GetLastError         000000018001a090     kernel32:KERNEL32.dll
 0002:00000098       __imp_GetModuleFileNameW   000000018001a098     kernel32:KERNEL32.dll
 0002:000000a0       __imp_RtlUnwindEx          000000018001a0a0     kernel32:KERNEL32.dll
 0002:000000a8       __imp_RtlPcToFileHeader    000000018001a0a8     kernel32:KERNEL32.dll
 0002:000000b0       __imp_RaiseException       000000018001a0b0     kernel32:KERNEL32.dll
 0002:000000b8       __imp_InterlockedFlushSList 000000018001a0b8     kernel32:KERNEL32.dll
 0002:000000c0       __imp_InitializeCriticalSectionAndSpinCount 000000018001a0c0     kernel32:KERNEL32.dll
 0002:000000c8       __imp_TlsAlloc             000000018001a0c8     kernel32:KERNEL32.dll
 0002:000000d0       __imp_TlsGetValue          000000018001a0d0     kernel32:KERNEL32.dll
 0002:000000d8       __imp_TlsSetValue          000000018001a0d8     kernel32:KERNEL32.dll
 0002:000000e0       __imp_TlsFree              000000018001a0e0     kernel32:KERNEL32.dll
 0002:000000e8       __imp_FreeLibrary          000000018001a0e8     kernel32:KERNEL32.dll
 0002:000000f0       __imp_GetProcAddress       000000018001a0f0     kernel32:KERNEL32.dll
 0002:000000f8       __imp_LoadLibraryExW       000000018001a0f8     kernel32:KERNEL32.dll
 0002:00000100       __imp_SetLastError         000000018001a100     kernel32:KERNEL32.dll
 0002:00000108       __imp_EnterCriticalSection 000000018001a108     kernel32:KERNEL32.dll
 0002:00000110       __imp_LeaveCriticalSection 000000018001a110     kernel32:KERNEL32.dll
 0002:00000118       __imp_DeleteCriticalSection 000000018001a118     kernel32:KERNEL32.dll
 0002:00000120       __imp_GetStdHandle         000000018001a120     kernel32:KERNEL32.dll
 0002:00000128       __imp_GetFileType          000000018001a128     kernel32:KERNEL32.dll
 0002:00000130       __imp_GetModuleFileNameA   000000018001a130     kernel32:KERNEL32.dll
 0002:00000138       __imp_GetModuleHandleExW   000000018001a138     kernel32:KERNEL32.dll
 0002:00000140       __imp_WriteConsoleW        000000018001a140     kernel32:KERNEL32.dll
 0002:00000148       __imp_ExitProcess          000000018001a148     kernel32:KERNEL32.dll
 0002:00000150       __imp_MultiByteToWideChar  000000018001a150     kernel32:KERNEL32.dll
 0002:00000158       __imp_HeapFree             000000018001a158     kernel32:KERNEL32.dll
 0002:00000160       __imp_HeapAlloc            000000018001a160     kernel32:KERNEL32.dll
 0002:00000168       __imp_WriteFile            000000018001a168     kernel32:KERNEL32.dll
 0002:00000170       __imp_OutputDebugStringW   000000018001a170     kernel32:KERNEL32.dll
 0002:00000178       __imp_CloseHandle          000000018001a178     kernel32:KERNEL32.dll
 0002:00000180       __imp_WaitForSingleObjectEx 000000018001a180     kernel32:KERNEL32.dll
 0002:00000188       __imp_CreateThread         000000018001a188     kernel32:KERNEL32.dll
 0002:00000190       __imp_GetACP               000000018001a190     kernel32:KERNEL32.dll
 0002:00000198       __imp_HeapReAlloc          000000018001a198     kernel32:KERNEL32.dll
 0002:000001a0       __imp_LCMapStringW         000000018001a1a0     kernel32:KERNEL32.dll
 0002:000001a8       __imp_FindClose            000000018001a1a8     kernel32:KERNEL32.dll
 0002:000001b0       __imp_FindFirstFileExA     000000018001a1b0     kernel32:KERNEL32.dll
 0002:000001b8       __imp_FindNextFileA        000000018001a1b8     kernel32:KERNEL32.dll
 0002:000001c0       __imp_IsValidCodePage      000000018001a1c0     kernel32:KERNEL32.dll
 0002:000001c8       __imp_GetOEMCP             000000018001a1c8     kernel32:KERNEL32.dll
 0002:000001d0       __imp_GetCPInfo            000000018001a1d0     kernel32:KERNEL32.dll
 0002:000001d8       __imp_GetCommandLineA      000000018001a1d8     kernel32:KERNEL32.dll
 0002:000001e0       __imp_GetCommandLineW      000000018001a1e0     kernel32:KERNEL32.dll
 0002:000001e8       __imp_GetEnvironmentStringsW 000000018001a1e8     kernel32:KERNEL32.dll
 0002:000001f0       __imp_FreeEnvironmentStringsW 000000018001a1f0     kernel32:KERNEL32.dll
 0002:000001f8       __imp_GetProcessHeap       000000018001a1f8     kernel32:KERNEL32.dll
 0002:00000200       __imp_GetStringTypeW       000000018001a200     kernel32:KERNEL32.dll
 0002:00000208       __imp_FlushFileBuffers     000000018001a208     kernel32:KERNEL32.dll
 0002:00000210       __imp_GetConsoleCP         000000018001a210     kernel32:KERNEL32.dll
 0002:00000218       __imp_GetConsoleMode       000000018001a218     kernel32:KERNEL32.dll
 0002:00000220       __imp_HeapSize             000000018001a220     kernel32:KERNEL32.dll
 0002:00000228       __imp_SetStdHandle         000000018001a228     kernel32:KERNEL32.dll
 0002:00000230       __imp_SetFilePointerEx     000000018001a230     kernel32:KERNEL32.dll
 0002:00000238       __imp_CreateFileW          000000018001a238     kernel32:KERNEL32.dll
 0002:00000240       __imp_WideCharToMultiByte  000000018001a240     kernel32:KERNEL32.dll
 0002:00000248       __imp_GetModuleHandleA     000000018001a248     kernel32:KERNEL32.dll
 0002:00000250       __imp_GetSystemInfo        000000018001a250     kernel32:KERNEL32.dll
 0002:00000258       __imp_VirtualProtect       000000018001a258     kernel32:KERNEL32.dll
 0002:00000260       __imp_VirtualQuery         000000018001a260     kernel32:KERNEL32.dll
 0002:00000268       __imp_LoadLibraryExA       000000018001a268     kernel32:KERNEL32.dll
 0002:00000270       \177KERNEL32_NULL_THUNK_DATA 000000018001a270     kernel32:KERNEL32.dll
 0002:00000278       __guard_check_icall_fptr   000000018001a278     LIBCMT:guard_support.obj
 0002:00000280       __guard_dispatch_icall_fptr 000000018001a280     LIBCMT:guard_support.obj
 0002:00000288       __xc_a                     000000018001a288     LIBCMT:initializers.obj
 0002:00000290       _register_ogg_             000000018001a290     binding.obj
 0002:00000298       __xc_z                     000000018001a298     LIBCMT:initializers.obj
 0002:000002a0       __xi_a                     000000018001a2a0     LIBCMT:initializers.obj
 0002:000002a8       __acrt_stdio_initializer   000000018001a2a8     libucrt:stdio_initializer.obj
 0002:000002b0       __acrt_multibyte_initializer 000000018001a2b0     libucrt:multibyte_initializer.obj
 0002:000002b8       __acrt_tran_fma3_initializer 000000018001a2b8     libucrt:fma3_initializer.obj
 0002:000002c0       __xi_z                     000000018001a2c0     LIBCMT:initializers.obj
 0002:000002c8       __xp_a                     000000018001a2c8     LIBCMT:initializers.obj
 0002:000002d0       __acrt_locale_terminator   000000018001a2d0     libucrt:locale_initializer.obj
 0002:000002d8       __dcrt_console_output_terminator 000000018001a2d8     libucrt:console_output_initializer.obj
 0002:000002e0       __acrt_stdio_terminator    000000018001a2e0     libucrt:stdio_initializer.obj
 0002:000002e8       __xp_z                     000000018001a2e8     LIBCMT:initializers.obj
 0002:000002f0       __xt_a                     000000018001a2f0     LIBCMT:initializers.obj
 0002:000002f8       __xt_z                     000000018001a2f8     LIBCMT:initializers.obj
 0002:00000300       __sz_node_exe              000000018001a300     node:node.exe
 0002:00000310       _pDefaultRawDllMain        000000018001a310     LIBCMT:dll_dllmain.obj
 0002:00000310       _pRawDllMain               000000018001a310     LIBCMT:dll_dllmain.obj
 0002:00000330       ??_7exception@std@@6B@     000000018001a330     LIBCMT:throw_bad_alloc.obj
 0002:00000340       ??_C@_0BC@EOODALEL@Unknown?5exception?$AA@ 000000018001a340     LIBCMT:throw_bad_alloc.obj
 0002:00000360       ??_7bad_alloc@std@@6B@     000000018001a360     LIBCMT:throw_bad_alloc.obj
 0002:00000370       ??_C@_0P@GHFPNOJB@bad?5allocation?$AA@ 000000018001a370     LIBCMT:throw_bad_alloc.obj
 0002:00000388       ??_7bad_array_new_length@std@@6B@ 000000018001a388     LIBCMT:throw_bad_alloc.obj
 0002:00000398       ??_C@_0BF@KINCDENJ@bad?5array?5new?5length?$AA@ 000000018001a398     LIBCMT:throw_bad_alloc.obj
 0002:000003b8       ??_7type_info@@6B@         000000018001a3b8     LIBCMT:std_type_info_static.obj
 0002:000003c0       _Microsoft_CRTProvider     000000018001a3c0     libvcruntime:telemetry.obj
 0002:000003c8       ??_C@_00CNPNBAHC@?$AA@     000000018001a3c8     libvcruntime:telemetry.obj
 0002:000003cc       ??_C@_11LOCGONAA@?$AA?$AA@ 000000018001a3cc     libvcruntime:telemetry.obj
 0002:000003d0       ??_C@_0O@JEOPJOMI@Main?5Invoked?4?$AA@ 000000018001a3d0     libvcruntime:telemetry.obj
 0002:000003e0       ??_C@_0P@NEAEIBDO@Main?5Returned?4?$AA@ 000000018001a3e0     libvcruntime:telemetry.obj
 0002:00000450       ??_C@_1BC@DNHGCMLG@?$AAa?$AAd?$AAv?$AAa?$AAp?$AAi?$AA3?$AA2?$AA?$AA@ 000000018001a450     libvcruntime:winapi_downlevel.obj
 0002:00000468       ??_C@_1DM@KHCHBNEB@?$AAa?$AAp?$AAi?$AA?9?$AAm?$AAs?$AA?9?$AAw?$AAi?$AAn?$AA?9?$AAc?$AAo?$AAr?$AAe?$AA?9?$AAf?$AAi?$AAb?$AAe?$AAr?$AAs?$AA?9?$AAl?$AA1?$AA?9?$AA1?$AA?9?$AA1?$AA?$AA@ 000000018001a468     libvcruntime:winapi_downlevel.obj
 0002:000004a8       ??_C@_1DK@LPPGFMPP@?$AAa?$AAp?$AAi?$AA?9?$AAm?$AAs?$AA?9?$AAw?$AAi?$AAn?$AA?9?$AAc?$AAo?$AAr?$AAe?$AA?9?$AAs?$AAy?$AAn?$AAc?$AAh?$AA?9?$AAl?$AA1?$AA?9?$AA2?$AA?9?$AA0?$AA?$AA@ 000000018001a4a8     libvcruntime:winapi_downlevel.obj
 0002:000004e8       ??_C@_1BC@GDMECMAK@?$AAk?$AAe?$AAr?$AAn?$AAe?$AAl?$AA3?$AA2?$AA?$AA@ 000000018001a4e8     libvcruntime:winapi_downlevel.obj
 0002:00000500       ??_C@_0O@BAMBGLIE@EventRegister?$AA@ 000000018001a500     libvcruntime:winapi_downlevel.obj
 0002:00000518       ??_C@_0BE@BJEEGHGK@EventSetInformation?$AA@ 000000018001a518     libvcruntime:winapi_downlevel.obj
 0002:00000530       ??_C@_0BA@FAKLIPIC@EventUnregister?$AA@ 000000018001a530     libvcruntime:winapi_downlevel.obj
 0002:00000548       ??_C@_0BD@PKLHJPHD@EventWriteTransfer?$AA@ 000000018001a548     libvcruntime:winapi_downlevel.obj
 0002:00000568       ??_C@_08KNHFBNJ@FlsAlloc?$AA@ 000000018001a568     libvcruntime:winapi_downlevel.obj
 0002:00000580       ??_C@_07PEJMOBNF@FlsFree?$AA@ 000000018001a580     libvcruntime:winapi_downlevel.obj
 0002:00000590       ??_C@_0M@GDNOONDI@FlsGetValue?$AA@ 000000018001a590     libvcruntime:winapi_downlevel.obj
 0002:000005a8       ??_C@_0M@JCPCPOEF@FlsSetValue?$AA@ 000000018001a5a8     libvcruntime:winapi_downlevel.obj
 0002:000005c0       ??_C@_0BM@HCFOFFN@InitializeCriticalSectionEx?$AA@ 000000018001a5c0     libvcruntime:winapi_downlevel.obj
 0002:00000900       ??_C@_08EHJDFFNH@__based?$CI?$AA@ 000000018001a900     libvcruntime:undname.obj
 0002:00000910       ??_C@_07KOLFKCDI@__cdecl?$AA@ 000000018001a910     libvcruntime:undname.obj
 0002:00000918       ??_C@_08GHMPAG@__pascal?$AA@ 000000018001a918     libvcruntime:undname.obj
 0002:00000928       ??_C@_09IFJBGAPI@__stdcall?$AA@ 000000018001a928     libvcruntime:undname.obj
 0002:00000938       ??_C@_0L@NPHFGOKO@__thiscall?$AA@ 000000018001a938     libvcruntime:undname.obj
 0002:00000948       ??_C@_0L@JMKHOMEK@__fastcall?$AA@ 000000018001a948     libvcruntime:undname.obj
 0002:00000958       ??_C@_0N@BCKKPABJ@__vectorcall?$AA@ 000000018001a958     libvcruntime:undname.obj
 0002:00000968       ??_C@_09HIJEGCPM@__clrcall?$AA@ 000000018001a968     libvcruntime:undname.obj
 0002:00000974       ??_C@_06GHPCKEAG@__eabi?$AA@ 000000018001a974     libvcruntime:undname.obj
 0002:00000980       ??_C@_07JOMMBBKO@__ptr64?$AA@ 000000018001a980     libvcruntime:undname.obj
 0002:00000988       ??_C@_0L@PILCLIHE@__restrict?$AA@ 000000018001a988     libvcruntime:undname.obj
 0002:00000998       ??_C@_0M@GFIIJFMG@__unaligned?$AA@ 000000018001a998     libvcruntime:undname.obj
 0002:000009a8       ??_C@_09DHDLOLLB@restrict?$CI?$AA@ 000000018001a9a8     libvcruntime:undname.obj
 0002:000009b4       ??_C@_04NIHEBCM@?5new?$AA@ 000000018001a9b4     libvcruntime:undname.obj
 0002:000009c0       ??_C@_07FPCDHGMM@?5delete?$AA@ 000000018001a9c0     libvcruntime:undname.obj
 0002:000009c8       ??_C@_01NEMOKFLO@?$DN?$AA@ 000000018001a9c8     libvcruntime:undname.obj
 0002:000009cc       ??_C@_02GPIOPFAK@?$DO?$DO?$AA@ 000000018001a9cc     libvcruntime:undname.obj
 0002:000009d0       ??_C@_02FODMEDOG@?$DM?$DM?$AA@ 000000018001a9d0     libvcruntime:undname.obj
 0002:000009d4       ??_C@_01DCLJPIOD@?$CB?$AA@ 000000018001a9d4     libvcruntime:undname.obj
 0002:000009d8       ??_C@_02EGOFBIJA@?$DN?$DN?$AA@ 000000018001a9d8     libvcruntime:undname.obj
 0002:000009dc       ??_C@_02FDNJECIE@?$CB?$DN?$AA@ 000000018001a9dc     libvcruntime:undname.obj
 0002:000009e0       ??_C@_02GPECMEKF@?$FL?$FN?$AA@ 000000018001a9e0     libvcruntime:undname.obj
 0002:000009e8       ??_C@_08LHJFAFGD@operator?$AA@ 000000018001a9e8     libvcruntime:undname.obj
 0002:000009f4       ??_C@_02HBOOOICD@?9?$DO?$AA@ 000000018001a9f4     libvcruntime:undname.obj
 0002:000009f8       ??_C@_01NBENCBCI@?$CK?$AA@ 000000018001a9f8     libvcruntime:undname.obj
 0002:000009fc       ??_C@_02ECNGHCIF@?$CL?$CL?$AA@ 000000018001a9fc     libvcruntime:undname.obj
 0002:00000a00       ??_C@_02BAABKJLB@?9?9?$AA@ 000000018001aa00     libvcruntime:undname.obj
 0002:00000a04       ??_C@_01JOAMLHOP@?9?$AA@   000000018001aa04     libvcruntime:undname.obj
 0002:00000a08       ??_C@_01MIFGBAGJ@?$CL?$AA@ 000000018001aa08     libvcruntime:undname.obj
 0002:00000a0c       ??_C@_01HNPIGOCE@?$CG?$AA@ 000000018001aa0c     libvcruntime:undname.obj
 0002:00000a10       ??_C@_03MNHNFDLC@?9?$DO?$CK?$AA@ 000000018001aa10     libvcruntime:undname.obj
 0002:00000a14       ??_C@_01KMDKNFGN@?1?$AA@   000000018001aa14     libvcruntime:undname.obj
 0002:00000a18       ??_C@_01FGNFDNOH@?$CF?$AA@ 000000018001aa18     libvcruntime:undname.obj
 0002:00000a1c       ??_C@_01MNNFJEPP@?$DM?$AA@ 000000018001aa1c     libvcruntime:undname.obj
 0002:00000a20       ??_C@_02EHCHHCKH@?$DM?$DN?$AA@ 000000018001aa20     libvcruntime:undname.obj
 0002:00000a24       ??_C@_01PPODPGHN@?$DO?$AA@ 000000018001aa24     libvcruntime:undname.obj
 0002:00000a28       ??_C@_02EEKDKGMJ@?$DO?$DN?$AA@ 000000018001aa28     libvcruntime:undname.obj
 0002:00000a2c       ??_C@_01IHBHIGKO@?0?$AA@   000000018001aa2c     libvcruntime:undname.obj
 0002:00000a30       ??_C@_02HCKGKOFO@?$CI?$CJ?$AA@ 000000018001aa30     libvcruntime:undname.obj
 0002:00000a34       ??_C@_01PJKLJHI@?$HO?$AA@  000000018001aa34     libvcruntime:undname.obj
 0002:00000a38       ??_C@_01JKBOJNNK@?$FO?$AA@ 000000018001aa38     libvcruntime:undname.obj
 0002:00000a3c       ??_C@_01DNKMNLPK@?$HM?$AA@ 000000018001aa3c     libvcruntime:undname.obj
 0002:00000a40       ??_C@_02PPKAJPJL@?$CG?$CG?$AA@ 000000018001aa40     libvcruntime:undname.obj
 0002:00000a44       ??_C@_02NONPIBCD@?$HM?$HM?$AA@ 000000018001aa44     libvcruntime:undname.obj
 0002:00000a48       ??_C@_02FPIMKNGF@?$CK?$DN?$AA@ 000000018001aa48     libvcruntime:undname.obj
 0002:00000a4c       ??_C@_02FOEOMHFC@?$CL?$DN?$AA@ 000000018001aa4c     libvcruntime:undname.obj
 0002:00000a50       ??_C@_02FKMDLLOA@?9?$DN?$AA@ 000000018001aa50     libvcruntime:undname.obj
 0002:00000a54       ??_C@_02FJEHGPIO@?1?$DN?$AA@ 000000018001aa54     libvcruntime:undname.obj
 0002:00000a58       ??_C@_02FENAOKFI@?$CF?$DN?$AA@ 000000018001aa58     libvcruntime:undname.obj
 0002:00000a5c       ??_C@_03IKFCCPFF@?$DO?$DO?$DN?$AA@ 000000018001aa5c     libvcruntime:undname.obj
 0002:00000a60       ??_C@_03CDNPDDLA@?$DM?$DM?$DN?$AA@ 000000018001aa60     libvcruntime:undname.obj
 0002:00000a64       ??_C@_02FGJGFEAB@?$CG?$DN?$AA@ 000000018001aa64     libvcruntime:undname.obj
 0002:00000a68       ??_C@_02DHLNPPGH@?$HM?$DN?$AA@ 000000018001aa68     libvcruntime:undname.obj
 0002:00000a6c       ??_C@_02MHEGNOJ@?$FO?$DN?$AA@ 000000018001aa6c     libvcruntime:undname.obj
 0002:00000a70       ??_C@_09IFPLHPGF@?$GAvftable?8?$AA@ 000000018001aa70     libvcruntime:undname.obj
 0002:00000a80       ??_C@_09BLBHBJP@?$GAvbtable?8?$AA@ 000000018001aa80     libvcruntime:undname.obj
 0002:00000a90       ??_C@_07FEEIOKP@?$GAvcall?8?$AA@ 000000018001aa90     libvcruntime:undname.obj
 0002:00000a98       ??_C@_08LLFFHHDJ@?$GAtypeof?8?$AA@ 000000018001aa98     libvcruntime:undname.obj
 0002:00000aa8       ??_C@_0BF@KDPPACIK@?$GAlocal?5static?5guard?8?$AA@ 000000018001aaa8     libvcruntime:undname.obj
 0002:00000ac0       ??_C@_08OBABFOLI@?$GAstring?8?$AA@ 000000018001aac0     libvcruntime:undname.obj
 0002:00000ad0       ??_C@_0BD@JDLKDPAB@?$GAvbase?5destructor?8?$AA@ 000000018001aad0     libvcruntime:undname.obj
 0002:00000ae8       ??_C@_0BN@DEGPLNFK@?$GAvector?5deleting?5destructor?8?$AA@ 000000018001aae8     libvcruntime:undname.obj
 0002:00000b08       ??_C@_0BO@OBMKPJIG@?$GAdefault?5constructor?5closure?8?$AA@ 000000018001ab08     libvcruntime:undname.obj
 0002:00000b28       ??_C@_0BN@IMDCHIKM@?$GAscalar?5deleting?5destructor?8?$AA@ 000000018001ab28     libvcruntime:undname.obj
 0002:00000b48       ??_C@_0BO@PFGOCPJJ@?$GAvector?5constructor?5iterator?8?$AA@ 000000018001ab48     libvcruntime:undname.obj
 0002:00000b68       ??_C@_0BN@LFPFMEDL@?$GAvector?5destructor?5iterator?8?$AA@ 000000018001ab68     libvcruntime:undname.obj
 0002:00000b88       ??_C@_0CE@IKBNEHA@?$GAvector?5vbase?5constructor?5iterat@ 000000018001ab88     libvcruntime:undname.obj
 0002:00000bb0       ??_C@_0BL@NILFHHPC@?$GAvirtual?5displacement?5map?8?$AA@ 000000018001abb0     libvcruntime:undname.obj
 0002:00000bd0       ??_C@_0CB@JONCMFFK@?$GAeh?5vector?5constructor?5iterator?8@ 000000018001abd0     libvcruntime:undname.obj
 0002:00000bf8       ??_C@_0CA@GCEOPDGL@?$GAeh?5vector?5destructor?5iterator?8?$AA@ 000000018001abf8     libvcruntime:undname.obj
 0002:00000c18       ??_C@_0CH@OOJPLCPH@?$GAeh?5vector?5vbase?5constructor?5ite@ 000000018001ac18     libvcruntime:undname.obj
 0002:00000c40       ??_C@_0BL@LLKPOHJI@?$GAcopy?5constructor?5closure?8?$AA@ 000000018001ac40     libvcruntime:undname.obj
 0002:00000c60       ??_C@_0BA@KBCDOMBN@?$GAudt?5returning?8?$AA@ 000000018001ac60     libvcruntime:undname.obj
 0002:00000c70       ??_C@_03KLGMFNMG@?$GAEH?$AA@ 000000018001ac70     libvcruntime:undname.obj
 0002:00000c74       ??_C@_05KHLCHHI@?$GARTTI?$AA@ 000000018001ac74     libvcruntime:undname.obj
 0002:00000c80       ??_C@_0BA@KKLDJDLB@?$GAlocal?5vftable?8?$AA@ 000000018001ac80     libvcruntime:undname.obj
 0002:00000c90       ??_C@_0CE@IIHCMGGL@?$GAlocal?5vftable?5constructor?5closu@ 000000018001ac90     libvcruntime:undname.obj
 0002:00000cb4       ??_C@_06FHBGPFGH@?5new?$FL?$FN?$AA@ 000000018001acb4     libvcruntime:undname.obj
 0002:00000cc0       ??_C@_09LBNFPBCA@?5delete?$FL?$FN?$AA@ 000000018001acc0     libvcruntime:undname.obj
 0002:00000cd0       ??_C@_0P@HJKNJFNN@?$GAomni?5callsig?8?$AA@ 000000018001acd0     libvcruntime:undname.obj
 0002:00000ce0       ??_C@_0BL@CNOONJFP@?$GAplacement?5delete?5closure?8?$AA@ 000000018001ace0     libvcruntime:undname.obj
 0002:00000d00       ??_C@_0BN@CKNJLHMB@?$GAplacement?5delete?$FL?$FN?5closure?8?$AA@ 000000018001ad00     libvcruntime:undname.obj
 0002:00000d20       ??_C@_0CG@CFDHKGGD@?$GAmanaged?5vector?5constructor?5iter@ 000000018001ad20     libvcruntime:undname.obj
 0002:00000d48       ??_C@_0CF@IMGKMJNO@?$GAmanaged?5vector?5destructor?5itera@ 000000018001ad48     libvcruntime:undname.obj
 0002:00000d70       ??_C@_0CG@HLDDJMAG@?$GAeh?5vector?5copy?5constructor?5iter@ 000000018001ad70     libvcruntime:undname.obj
 0002:00000d98       ??_C@_0CM@FCBBDIGB@?$GAeh?5vector?5vbase?5copy?5constructo@ 000000018001ad98     libvcruntime:undname.obj
 0002:00000dc8       ??_C@_0BL@CLIPGLGB@?$GAdynamic?5initializer?5for?5?8?$AA@ 000000018001adc8     libvcruntime:undname.obj
 0002:00000de8       ??_C@_0CB@PDBIFEP@?$GAdynamic?5atexit?5destructor?5for?5?8@ 000000018001ade8     libvcruntime:undname.obj
 0002:00000e10       ??_C@_0CD@CGAJBKEJ@?$GAvector?5copy?5constructor?5iterato@ 000000018001ae10     libvcruntime:undname.obj
 0002:00000e38       ??_C@_0CJ@GJELGAMM@?$GAvector?5vbase?5copy?5constructor?5i@ 000000018001ae38     libvcruntime:undname.obj
 0002:00000e68       ??_C@_0CL@FGIJHLCE@?$GAmanaged?5vector?5copy?5constructor@ 000000018001ae68     libvcruntime:undname.obj
 0002:00000e98       ??_C@_0BM@PMGGMLDN@?$GAlocal?5static?5thread?5guard?8?$AA@ 000000018001ae98     libvcruntime:undname.obj
 0002:00000eb8       ??_C@_0N@BDNMDMOL@operator?5?$CC?$CC?5?$AA@ 000000018001aeb8     libvcruntime:undname.obj
 0002:00000ec8       ??_C@_0BC@DAFEJGAK@?5Type?5Descriptor?8?$AA@ 000000018001aec8     libvcruntime:undname.obj
 0002:00000ee0       ??_C@_0BM@LDKODKLH@?5Base?5Class?5Descriptor?5at?5?$CI?$AA@ 000000018001aee0     libvcruntime:undname.obj
 0002:00000f00       ??_C@_0BD@LGICGFMM@?5Base?5Class?5Array?8?$AA@ 000000018001af00     libvcruntime:undname.obj
 0002:00000f18       ??_C@_0BN@MECKDCOJ@?5Class?5Hierarchy?5Descriptor?8?$AA@ 000000018001af18     libvcruntime:undname.obj
 0002:00000f38       ??_C@_0BK@CFCOFLF@?5Complete?5Object?5Locator?8?$AA@ 000000018001af38     libvcruntime:undname.obj
 0002:00000f60       ??_C@_1EK@MBDPDCGA@?$AAM?$AAi?$AAc?$AAr?$AAo?$AAs?$AAo?$AAf?$AAt?$AA?5?$AAV?$AAi?$AAs?$AAu?$AAa?$AAl?$AA?5?$AAC?$AA?$CL?$AA?$CL?$AA?5?$AAR?$AAu?$AAn?$AAt?$AAi?$AAm?$AAe?$AA?5?$AAL?$AAi?$AAb@ 000000018001af60     libucrt:assert.obj
 0002:00000fb0       ??_C@_1FE@LHBLIKM@?$AAA?$AAs?$AAs?$AAe?$AAr?$AAt?$AAi?$AAo?$AAn?$AA?5?$AAf?$AAa?$AAi?$AAl?$AAe?$AAd?$AA?3?$AA?5?$AA?$CF?$AAT?$AAs?$AA?0?$AA?5?$AAf?$AAi?$AAl?$AAe?$AA?5?$AA?$CF?$AAT?$AAs?$AA?0@ 000000018001afb0     libucrt:assert.obj
 0002:00001008       ??_C@_1CE@OJBNHDMO@?$AAA?$AAs?$AAs?$AAe?$AAr?$AAt?$AAi?$AAo?$AAn?$AA?5?$AAf?$AAa?$AAi?$AAl?$AAe?$AAd?$AA?$CB?$AA?$AA@ 000000018001b008     libucrt:assert.obj
 0002:00001030       ??_C@_1BE@PHKBBGE@?$AAP?$AAr?$AAo?$AAg?$AAr?$AAa?$AAm?$AA?3?$AA?5?$AA?$AA@ 000000018001b030     libucrt:assert.obj
 0002:00001048       ??_C@_1O@HEMHKNDC@?$AAF?$AAi?$AAl?$AAe?$AA?3?$AA?5?$AA?$AA@ 000000018001b048     libucrt:assert.obj
 0002:00001058       ??_C@_1O@KCAFKHJE@?$AAL?$AAi?$AAn?$AAe?$AA?3?$AA?5?$AA?$AA@ 000000018001b058     libucrt:assert.obj
 0002:00001068       ??_C@_1BK@PEDCIPMA@?$AAE?$AAx?$AAp?$AAr?$AAe?$AAs?$AAs?$AAi?$AAo?$AAn?$AA?3?$AA?5?$AA?$AA@ 000000018001b068     libucrt:assert.obj
 0002:00001090       ??_C@_1OA@EGMLFBHJ@?$AAF?$AAo?$AAr?$AA?5?$AAi?$AAn?$AAf?$AAo?$AAr?$AAm?$AAa?$AAt?$AAi?$AAo?$AAn?$AA?5?$AAo?$AAn?$AA?5?$AAh?$AAo?$AAw?$AA?5?$AAy?$AAo?$AAu?$AAr?$AA?5?$AAp?$AAr?$AAo?$AAg@ 000000018001b090     libucrt:assert.obj
 0002:00001170       ??_C@_1HK@POCJMFGK@?$AA?$CI?$AAP?$AAr?$AAe?$AAs?$AAs?$AA?5?$AAR?$AAe?$AAt?$AAr?$AAy?$AA?5?$AAt?$AAo?$AA?5?$AAd?$AAe?$AAb?$AAu?$AAg?$AA?5?$AAt?$AAh?$AAe?$AA?5?$AAa?$AAp?$AAp?$AAl?$AAi?$AAc@ 000000018001b170     libucrt:assert.obj
 0002:000011f0       ??_C@_17LGKOMLJ@?$AA?4?$AA?4?$AA?4?$AA?$AA@ 000000018001b1f0     libucrt:assert.obj
 0002:000011f8       ??_C@_13LBAGMAIH@?$AA?6?$AA?$AA@ 000000018001b1f8     libucrt:assert.obj
 0002:000011fc       ??_C@_15IABLJNFO@?$AA?6?$AA?6?$AA?$AA@ 000000018001b1fc     libucrt:assert.obj
 0002:00001208       ??_C@_1CO@EAEJAADC@?$AA?$DM?$AAp?$AAr?$AAo?$AAg?$AAr?$AAa?$AAm?$AA?5?$AAn?$AAa?$AAm?$AAe?$AA?5?$AAu?$AAn?$AAk?$AAn?$AAo?$AAw?$AAn?$AA?$DO?$AA?$AA@ 000000018001b208     libucrt:assert.obj
 0002:00001240       __acrt_exception_action_table 000000018001b240     libucrt:exception_filter.obj
 0002:00001300       __acrt_signal_action_table_count 000000018001b300     libucrt:exception_filter.obj
 0002:00001308       __acrt_signal_action_first_fpe_index 000000018001b308     libucrt:exception_filter.obj
 0002:00001310       __acrt_signal_action_fpe_count 000000018001b310     libucrt:exception_filter.obj
 0002:00001318       ??_C@_1BI@BGOHAHKC@?$AAm?$AAs?$AAc?$AAo?$AAr?$AAe?$AAe?$AA?4?$AAd?$AAl?$AAl?$AA?$AA@ 000000018001b318     libucrt:exit.obj
 0002:00001330       ??_C@_0P@MIGLKIOC@CorExitProcess?$AA@ 000000018001b330     libucrt:exit.obj
 0002:00001430       standard_lookup_table      000000018001b430     libucrt:output.obj
 0002:0000148c       ??_C@_06OJHGLDPL@?$CInull?$CJ?$AA@ 000000018001b48c     libucrt:output.obj
 0002:00001498       ??_C@_1O@CEDCILHN@?$AA?$CI?$AAn?$AAu?$AAl?$AAl?$AA?$CJ?$AA?$AA@ 000000018001b498     libucrt:output.obj
 0002:00001620       __lc_time_c                000000018001b620     libucrt:nlsdata.obj
 0002:000018e0       ??_C@_03KOEHGMDN@Sun?$AA@  000000018001b8e0     libucrt:nlsdata.obj
 0002:000018e4       ??_C@_03PDAGKDH@Mon?$AA@   000000018001b8e4     libucrt:nlsdata.obj
 0002:000018e8       ??_C@_03NAGEINEP@Tue?$AA@  000000018001b8e8     libucrt:nlsdata.obj
 0002:000018ec       ??_C@_03MHOMLAJA@Wed?$AA@  000000018001b8ec     libucrt:nlsdata.obj
 0002:000018f0       ??_C@_03IOFIKPDN@Thu?$AA@  000000018001b8f0     libucrt:nlsdata.obj
 0002:000018f4       ??_C@_03IDIOELNC@Fri?$AA@  000000018001b8f4     libucrt:nlsdata.obj
 0002:000018f8       ??_C@_03FEFJNEK@Sat?$AA@   000000018001b8f8     libucrt:nlsdata.obj
 0002:000018fc       ??_C@_06OOPIFAJ@Sunday?$AA@ 000000018001b8fc     libucrt:nlsdata.obj
 0002:00001904       ??_C@_06JLEDEDGH@Monday?$AA@ 000000018001b904     libucrt:nlsdata.obj
 0002:00001910       ??_C@_07BAAGCFCM@Tuesday?$AA@ 000000018001b910     libucrt:nlsdata.obj
 0002:00001918       ??_C@_09DLIGFAKA@Wednesday?$AA@ 000000018001b918     libucrt:nlsdata.obj
 0002:00001928       ??_C@_08HACCIKIA@Thursday?$AA@ 000000018001b928     libucrt:nlsdata.obj
 0002:00001934       ??_C@_06JECMNKMI@Friday?$AA@ 000000018001b934     libucrt:nlsdata.obj
 0002:00001940       ??_C@_08INBOOONO@Saturday?$AA@ 000000018001b940     libucrt:nlsdata.obj
 0002:0000194c       ??_C@_03JIHJHPIE@Jan?$AA@  000000018001b94c     libucrt:nlsdata.obj
 0002:00001950       ??_C@_03HJBDCHOM@Feb?$AA@  000000018001b950     libucrt:nlsdata.obj
 0002:00001954       ??_C@_03ODNJBKGA@Mar?$AA@  000000018001b954     libucrt:nlsdata.obj
 0002:00001958       ??_C@_03LEOLGMJP@Apr?$AA@  000000018001b958     libucrt:nlsdata.obj
 0002:0000195c       ??_C@_03CNMDKL@May?$AA@    000000018001b95c     libucrt:nlsdata.obj
 0002:00001960       ??_C@_03IDFGHECI@Jun?$AA@  000000018001b960     libucrt:nlsdata.obj
 0002:00001964       ??_C@_03LBGABGKK@Jul?$AA@  000000018001b964     libucrt:nlsdata.obj
 0002:00001968       ??_C@_03IFJFEIGA@Aug?$AA@  000000018001b968     libucrt:nlsdata.obj
 0002:0000196c       ??_C@_03GGCAPAJC@Sep?$AA@  000000018001b96c     libucrt:nlsdata.obj
 0002:00001970       ??_C@_03BMAOKBAD@Oct?$AA@  000000018001b970     libucrt:nlsdata.obj
 0002:00001974       ??_C@_03JPJOFNIA@Nov?$AA@  000000018001b974     libucrt:nlsdata.obj
 0002:00001978       ??_C@_03MKABNOCG@Dec?$AA@  000000018001b978     libucrt:nlsdata.obj
 0002:00001980       ??_C@_07CGJPFGJA@January?$AA@ 000000018001b980     libucrt:nlsdata.obj
 0002:00001988       ??_C@_08GNJGEPFN@February?$AA@ 000000018001b988     libucrt:nlsdata.obj
 0002:00001994       ??_C@_05HPCKOFNC@March?$AA@ 000000018001b994     libucrt:nlsdata.obj
 0002:0000199c       ??_C@_05DMJDNLEJ@April?$AA@ 000000018001b99c     libucrt:nlsdata.obj
 0002:000019a4       ??_C@_04CNLMGBGM@June?$AA@ 000000018001b9a4     libucrt:nlsdata.obj
 0002:000019ac       ??_C@_04MIEPOIFP@July?$AA@ 000000018001b9ac     libucrt:nlsdata.obj
 0002:000019b4       ??_C@_06LBBHFDDG@August?$AA@ 000000018001b9b4     libucrt:nlsdata.obj
 0002:000019c0       ??_C@_09BHHEALKD@September?$AA@ 000000018001b9c0     libucrt:nlsdata.obj
 0002:000019d0       ??_C@_07JJNFCEND@October?$AA@ 000000018001b9d0     libucrt:nlsdata.obj
 0002:000019d8       ??_C@_08HCHEGEOA@November?$AA@ 000000018001b9d8     libucrt:nlsdata.obj
 0002:000019e8       ??_C@_08EDHMEBNP@December?$AA@ 000000018001b9e8     libucrt:nlsdata.obj
 0002:000019f4       ??_C@_02DEDBPAFC@AM?$AA@   000000018001b9f4     libucrt:nlsdata.obj
 0002:000019f8       ??_C@_02CJNFDJBF@PM?$AA@   000000018001b9f8     libucrt:nlsdata.obj
 0002:00001a00       ??_C@_08BPBNCDIB@MM?1dd?1yy?$AA@ 000000018001ba00     libucrt:nlsdata.obj
 0002:00001a10       ??_C@_0BE@CKGJFCPC@dddd?0?5MMMM?5dd?0?5yyyy?$AA@ 000000018001ba10     libucrt:nlsdata.obj
 0002:00001a28       ??_C@_08JCCMCCIL@HH?3mm?3ss?$AA@ 000000018001ba28     libucrt:nlsdata.obj
 0002:00001a38       ??_C@_17MBGCMIPB@?$AAS?$AAu?$AAn?$AA?$AA@ 000000018001ba38     libucrt:nlsdata.obj
 0002:00001a40       ??_C@_17KBOMKBF@?$AAM?$AAo?$AAn?$AA?$AA@ 000000018001ba40     libucrt:nlsdata.obj
 0002:00001a48       ??_C@_17BMKGEGOJ@?$AAT?$AAu?$AAe?$AA?$AA@ 000000018001ba48     libucrt:nlsdata.obj
 0002:00001a50       ??_C@_17CJEDCEPE@?$AAW?$AAe?$AAd?$AA?$AA@ 000000018001ba50     libucrt:nlsdata.obj
 0002:00001a58       ??_C@_17PDPHAADD@?$AAT?$AAh?$AAu?$AA?$AA@ 000000018001ba58     libucrt:nlsdata.obj
 0002:00001a60       ??_C@_17HFOLPPLP@?$AAF?$AAr?$AAi?$AA?$AA@ 000000018001ba60     libucrt:nlsdata.obj
 0002:00001a68       ??_C@_17GGIBDPIH@?$AAS?$AAa?$AAt?$AA?$AA@ 000000018001ba68     libucrt:nlsdata.obj
 0002:00001a70       ??_C@_1O@IHNHDHPB@?$AAS?$AAu?$AAn?$AAd?$AAa?$AAy?$AA?$AA@ 000000018001ba70     libucrt:nlsdata.obj
 0002:00001a80       ??_C@_1O@MMNBFLIA@?$AAM?$AAo?$AAn?$AAd?$AAa?$AAy?$AA?$AA@ 000000018001ba80     libucrt:nlsdata.obj
 0002:00001a90       ??_C@_1BA@ENFBFFEK@?$AAT?$AAu?$AAe?$AAs?$AAd?$AAa?$AAy?$AA?$AA@ 000000018001ba90     libucrt:nlsdata.obj
 0002:00001aa0       ??_C@_1BE@EBOGMDOH@?$AAW?$AAe?$AAd?$AAn?$AAe?$AAs?$AAd?$AAa?$AAy?$AA?$AA@ 000000018001baa0     libucrt:nlsdata.obj
 0002:00001ab8       ??_C@_1BC@HHMNLIHE@?$AAT?$AAh?$AAu?$AAr?$AAs?$AAd?$AAa?$AAy?$AA?$AA@ 000000018001bab8     libucrt:nlsdata.obj
 0002:00001ad0       ??_C@_1O@PDICJHAG@?$AAF?$AAr?$AAi?$AAd?$AAa?$AAy?$AA?$AA@ 000000018001bad0     libucrt:nlsdata.obj
 0002:00001ae0       ??_C@_1BC@ENMNNPAJ@?$AAS?$AAa?$AAt?$AAu?$AAr?$AAd?$AAa?$AAy?$AA?$AA@ 000000018001bae0     libucrt:nlsdata.obj
 0002:00001af8       ??_C@_17DKNBKCHM@?$AAJ?$AAa?$AAn?$AA?$AA@ 000000018001baf8     libucrt:nlsdata.obj
 0002:00001b00       ??_C@_17LMDJEKJN@?$AAF?$AAe?$AAb?$AA?$AA@ 000000018001bb00     libucrt:nlsdata.obj
 0002:00001b08       ??_C@_17CKNLEDEC@?$AAM?$AAa?$AAr?$AA?$AA@ 000000018001bb08     libucrt:nlsdata.obj
 0002:00001b10       ??_C@_17LFPOIHDD@?$AAA?$AAp?$AAr?$AA?$AA@ 000000018001bb10     libucrt:nlsdata.obj
 0002:00001b18       ??_C@_17PNNKMEED@?$AAM?$AAa?$AAy?$AA?$AA@ 000000018001bb18     libucrt:nlsdata.obj
 0002:00001b20       ??_C@_17KCJGOCPB@?$AAJ?$AAu?$AAn?$AA?$AA@ 000000018001bb20     libucrt:nlsdata.obj
 0002:00001b28       ??_C@_17IJPCKHK@?$AAJ?$AAu?$AAl?$AA?$AA@ 000000018001bb28     libucrt:nlsdata.obj
 0002:00001b30       ??_C@_17ICPELBCN@?$AAA?$AAu?$AAg?$AA?$AA@ 000000018001bb30     libucrt:nlsdata.obj
 0002:00001b38       ??_C@_17HCHCOKMG@?$AAS?$AAe?$AAp?$AA?$AA@ 000000018001bb38     libucrt:nlsdata.obj
 0002:00001b40       ??_C@_17FNLKOI@?$AAO?$AAc?$AAt?$AA?$AA@ 000000018001bb40     libucrt:nlsdata.obj
 0002:00001b48       ??_C@_17BBDMLCIG@?$AAN?$AAo?$AAv?$AA?$AA@ 000000018001bb48     libucrt:nlsdata.obj
 0002:00001b50       ??_C@_17EGKACKIF@?$AAD?$AAe?$AAc?$AA?$AA@ 000000018001bb50     libucrt:nlsdata.obj
 0002:00001b58       ??_C@_1BA@EFMEIEBA@?$AAJ?$AAa?$AAn?$AAu?$AAa?$AAr?$AAy?$AA?$AA@ 000000018001bb58     libucrt:nlsdata.obj
 0002:00001b68       ??_C@_1BC@JGDDFFAM@?$AAF?$AAe?$AAb?$AAr?$AAu?$AAa?$AAr?$AAy?$AA?$AA@ 000000018001bb68     libucrt:nlsdata.obj
 0002:00001b80       ??_C@_1M@IKEENEDF@?$AAM?$AAa?$AAr?$AAc?$AAh?$AA?$AA@ 000000018001bb80     libucrt:nlsdata.obj
 0002:00001b90       ??_C@_1M@GJNLMHFD@?$AAA?$AAp?$AAr?$AAi?$AAl?$AA?$AA@ 000000018001bb90     libucrt:nlsdata.obj
 0002:00001ba0       ??_C@_19EPFLPGAP@?$AAJ?$AAu?$AAn?$AAe?$AA?$AA@ 000000018001bba0     libucrt:nlsdata.obj
 0002:00001bb0       ??_C@_19BIFMLPCD@?$AAJ?$AAu?$AAl?$AAy?$AA?$AA@ 000000018001bbb0     libucrt:nlsdata.obj
 0002:00001bc0       ??_C@_1O@PAHLKOAC@?$AAA?$AAu?$AAg?$AAu?$AAs?$AAt?$AA?$AA@ 000000018001bbc0     libucrt:nlsdata.obj
 0002:00001bd0       ??_C@_1BE@DKAAMBJL@?$AAS?$AAe?$AAp?$AAt?$AAe?$AAm?$AAb?$AAe?$AAr?$AA?$AA@ 000000018001bbd0     libucrt:nlsdata.obj
 0002:00001be8       ??_C@_1BA@EPANDLNG@?$AAO?$AAc?$AAt?$AAo?$AAb?$AAe?$AAr?$AA?$AA@ 000000018001bbe8     libucrt:nlsdata.obj
 0002:00001bf8       ??_C@_1BC@BGLIFPF@?$AAN?$AAo?$AAv?$AAe?$AAm?$AAb?$AAe?$AAr?$AA?$AA@ 000000018001bbf8     libucrt:nlsdata.obj
 0002:00001c10       ??_C@_1BC@FEMKIFH@?$AAD?$AAe?$AAc?$AAe?$AAm?$AAb?$AAe?$AAr?$AA?$AA@ 000000018001bc10     libucrt:nlsdata.obj
 0002:00001c24       ??_C@_15ODEHAHHF@?$AAA?$AAM?$AA?$AA@ 000000018001bc24     libucrt:nlsdata.obj
 0002:00001c2c       ??_C@_15CLMNNGEL@?$AAP?$AAM?$AA?$AA@ 000000018001bc2c     libucrt:nlsdata.obj
 0002:00001c38       ??_C@_1BC@IEBCMHCM@?$AAM?$AAM?$AA?1?$AAd?$AAd?$AA?1?$AAy?$AAy?$AA?$AA@ 000000018001bc38     libucrt:nlsdata.obj
 0002:00001c50       ??_C@_1CI@KNAKOEBC@?$AAd?$AAd?$AAd?$AAd?$AA?0?$AA?5?$AAM?$AAM?$AAM?$AAM?$AA?5?$AAd?$AAd?$AA?0?$AA?5?$AAy?$AAy?$AAy?$AAy?$AA?$AA@ 000000018001bc50     libucrt:nlsdata.obj
 0002:00001c78       ??_C@_1BC@GDGBMEMK@?$AAH?$AAH?$AA?3?$AAm?$AAm?$AA?3?$AAs?$AAs?$AA?$AA@ 000000018001bc78     libucrt:nlsdata.obj
 0002:00001c90       ??_C@_1M@BMHNFIME@?$AAe?$AAn?$AA?9?$AAU?$AAS?$AA?$AA@ 000000018001bc90     libucrt:nlsdata.obj
 0002:00001d40       ??_C@_1EG@CNNIPFIM@?$AAa?$AAp?$AAi?$AA?9?$AAm?$AAs?$AA?9?$AAw?$AAi?$AAn?$AA?9?$AAa?$AAp?$AAp?$AAm?$AAo?$AAd?$AAe?$AAl?$AA?9?$AAr?$AAu?$AAn?$AAt?$AAi?$AAm?$AAe?$AA?9?$AAl?$AA1?$AA?9?$AA1@ 000000018001bd40     libucrt:winapi_thunks.obj
 0002:00001d90       ??_C@_1EA@JGEFHKEI@?$AAa?$AAp?$AAi?$AA?9?$AAm?$AAs?$AA?9?$AAw?$AAi?$AAn?$AA?9?$AAc?$AAo?$AAr?$AAe?$AA?9?$AAd?$AAa?$AAt?$AAe?$AAt?$AAi?$AAm?$AAe?$AA?9?$AAl?$AA1?$AA?9?$AA1?$AA?9?$AA1?$AA?$AA@ 000000018001bd90     libucrt:winapi_thunks.obj
 0002:00001dd0       ??_C@_1DI@GCIAAENM@?$AAa?$AAp?$AAi?$AA?9?$AAm?$AAs?$AA?9?$AAw?$AAi?$AAn?$AA?9?$AAc?$AAo?$AAr?$AAe?$AA?9?$AAf?$AAi?$AAl?$AAe?$AA?9?$AAl?$AA2?$AA?9?$AA1?$AA?9?$AA1?$AA?$AA@ 000000018001bdd0     libucrt:winapi_thunks.obj
 0002:00001e10       ??_C@_1EI@MPIAOHOC@?$AAa?$AAp?$AAi?$AA?9?$AAm?$AAs?$AA?9?$AAw?$AAi?$AAn?$AA?9?$AAc?$AAo?$AAr?$AAe?$AA?9?$AAl?$AAo?$AAc?$AAa?$AAl?$AAi?$AAz?$AAa?$AAt?$AAi?$AAo?$AAn?$AA?9?$AAl?$AA1?$AA?9@ 000000018001be10     libucrt:winapi_thunks.obj
 0002:00001e60       ??_C@_1FK@FPHCKFIE@?$AAa?$AAp?$AAi?$AA?9?$AAm?$AAs?$AA?9?$AAw?$AAi?$AAn?$AA?9?$AAc?$AAo?$AAr?$AAe?$AA?9?$AAl?$AAo?$AAc?$AAa?$AAl?$AAi?$AAz?$AAa?$AAt?$AAi?$AAo?$AAn?$AA?9?$AAo?$AAb?$AAs@ 000000018001be60     libucrt:winapi_thunks.obj
 0002:00001ec0       ??_C@_1EM@DILCGIIO@?$AAa?$AAp?$AAi?$AA?9?$AAm?$AAs?$AA?9?$AAw?$AAi?$AAn?$AA?9?$AAc?$AAo?$AAr?$AAe?$AA?9?$AAp?$AAr?$AAo?$AAc?$AAe?$AAs?$AAs?$AAt?$AAh?$AAr?$AAe?$AAa?$AAd?$AAs?$AA?9?$AAl@ 000000018001bec0     libucrt:winapi_thunks.obj
 0002:00001f10       ??_C@_1DM@LNCGDDPN@?$AAa?$AAp?$AAi?$AA?9?$AAm?$AAs?$AA?9?$AAw?$AAi?$AAn?$AA?9?$AAc?$AAo?$AAr?$AAe?$AA?9?$AAs?$AAt?$AAr?$AAi?$AAn?$AAg?$AA?9?$AAl?$AA1?$AA?9?$AA1?$AA?9?$AA0?$AA?$AA@ 000000018001bf10     libucrt:winapi_thunks.obj
 0002:00001f50       ??_C@_1DO@FPAPJEMD@?$AAa?$AAp?$AAi?$AA?9?$AAm?$AAs?$AA?9?$AAw?$AAi?$AAn?$AA?9?$AAc?$AAo?$AAr?$AAe?$AA?9?$AAs?$AAy?$AAs?$AAi?$AAn?$AAf?$AAo?$AA?9?$AAl?$AA1?$AA?9?$AA2?$AA?9?$AA1?$AA?$AA@ 000000018001bf50     libucrt:winapi_thunks.obj
 0002:00001f90       ??_C@_1DK@NDHNAHIO@?$AAa?$AAp?$AAi?$AA?9?$AAm?$AAs?$AA?9?$AAw?$AAi?$AAn?$AA?9?$AAc?$AAo?$AAr?$AAe?$AA?9?$AAw?$AAi?$AAn?$AAr?$AAt?$AA?9?$AAl?$AA1?$AA?9?$AA1?$AA?9?$AA0?$AA?$AA@ 000000018001bf90     libucrt:winapi_thunks.obj
 0002:00001fd0       ??_C@_1DM@KGHDGBCM@?$AAa?$AAp?$AAi?$AA?9?$AAm?$AAs?$AA?9?$AAw?$AAi?$AAn?$AA?9?$AAc?$AAo?$AAr?$AAe?$AA?9?$AAx?$AAs?$AAt?$AAa?$AAt?$AAe?$AA?9?$AAl?$AA2?$AA?9?$AA1?$AA?9?$AA0?$AA?$AA@ 000000018001bfd0     libucrt:winapi_thunks.obj
 0002:00002010       ??_C@_1EO@IJIOEFOH@?$AAa?$AAp?$AAi?$AA?9?$AAm?$AAs?$AA?9?$AAw?$AAi?$AAn?$AA?9?$AAr?$AAt?$AAc?$AAo?$AAr?$AAe?$AA?9?$AAn?$AAt?$AAu?$AAs?$AAe?$AAr?$AA?9?$AAw?$AAi?$AAn?$AAd?$AAo?$AAw?$AA?9@ 000000018001c010     libucrt:winapi_thunks.obj
 0002:00002060       ??_C@_1FG@HHGEKANL@?$AAa?$AAp?$AAi?$AA?9?$AAm?$AAs?$AA?9?$AAw?$AAi?$AAn?$AA?9?$AAs?$AAe?$AAc?$AAu?$AAr?$AAi?$AAt?$AAy?$AA?9?$AAs?$AAy?$AAs?$AAt?$AAe?$AAm?$AAf?$AAu?$AAn?$AAc?$AAt?$AAi@ 000000018001c060     libucrt:winapi_thunks.obj
 0002:000020c0       ??_C@_1FG@NCKKOLKO@?$AAe?$AAx?$AAt?$AA?9?$AAm?$AAs?$AA?9?$AAw?$AAi?$AAn?$AA?9?$AAk?$AAe?$AAr?$AAn?$AAe?$AAl?$AA3?$AA2?$AA?9?$AAp?$AAa?$AAc?$AAk?$AAa?$AAg?$AAe?$AA?9?$AAc?$AAu?$AAr?$AAr@ 000000018001c0c0     libucrt:winapi_thunks.obj
 0002:00002120       ??_C@_1EG@DBIOJECG@?$AAe?$AAx?$AAt?$AA?9?$AAm?$AAs?$AA?9?$AAw?$AAi?$AAn?$AA?9?$AAn?$AAt?$AAu?$AAs?$AAe?$AAr?$AA?9?$AAd?$AAi?$AAa?$AAl?$AAo?$AAg?$AAb?$AAo?$AAx?$AA?9?$AAl?$AA1?$AA?9?$AA1@ 000000018001c120     libucrt:winapi_thunks.obj
 0002:00002170       ??_C@_1EO@FIHMJCLF@?$AAe?$AAx?$AAt?$AA?9?$AAm?$AAs?$AA?9?$AAw?$AAi?$AAn?$AA?9?$AAn?$AAt?$AAu?$AAs?$AAe?$AAr?$AA?9?$AAw?$AAi?$AAn?$AAd?$AAo?$AAw?$AAs?$AAt?$AAa?$AAt?$AAi?$AAo?$AAn?$AA?9@ 000000018001c170     libucrt:winapi_thunks.obj
 0002:000021c0       ??_C@_1O@BCCLBEOE@?$AAu?$AAs?$AAe?$AAr?$AA3?$AA2?$AA?$AA@ 000000018001c1c0     libucrt:winapi_thunks.obj
 0002:000021f8       ??_C@_0BA@HNOPNCHB@GetActiveWindow?$AA@ 000000018001c1f8     libucrt:winapi_thunks.obj
 0002:00002210       ??_C@_0BE@JOGNEJCI@GetCurrentPackageId?$AA@ 000000018001c210     libucrt:winapi_thunks.obj
 0002:00002230       ??_C@_0BD@HHGDFDBJ@GetLastActivePopup?$AA@ 000000018001c230     libucrt:winapi_thunks.obj
 0002:00002250       ??_C@_0BI@DFKBFLJE@GetProcessWindowStation?$AA@ 000000018001c250     libucrt:winapi_thunks.obj
 0002:00002270       ??_C@_0BK@DEKFELLI@GetUserObjectInformationW?$AA@ 000000018001c270     libucrt:winapi_thunks.obj
 0002:000022a0       ??_C@_0O@KKBNKAPF@LCMapStringEx?$AA@ 000000018001c2a0     libucrt:winapi_thunks.obj
 0002:000022b8       ??_C@_0BB@HBDEELFH@LocaleNameToLCID?$AA@ 000000018001c2b8     libucrt:winapi_thunks.obj
 0002:000022d8       ??_C@_0M@CHKKJDAI@MessageBoxA?$AA@ 000000018001c2d8     libucrt:winapi_thunks.obj
 0002:000022f0       ??_C@_0M@DLDCCGNP@MessageBoxW?$AA@ 000000018001c2f0     libucrt:winapi_thunks.obj
 0002:00002320       ??_C@_1M@HPNHIDJI@?$AAj?$AAa?$AA?9?$AAJ?$AAP?$AA?$AA@ 000000018001c320     libucrt:mbctype.obj
 0002:00002330       ??_C@_1M@BIBDDEMK@?$AAz?$AAh?$AA?9?$AAC?$AAN?$AA?$AA@ 000000018001c330     libucrt:mbctype.obj
 0002:00002340       ??_C@_1M@JLOOOEGK@?$AAk?$AAo?$AA?9?$AAK?$AAR?$AA?$AA@ 000000018001c340     libucrt:mbctype.obj
 0002:00002350       ??_C@_1M@CLNBBOPM@?$AAz?$AAh?$AA?9?$AAT?$AAW?$AA?$AA@ 000000018001c350     libucrt:mbctype.obj
 0002:0000235c       ??_C@_03OEIAHPBN@INF?$AA@  000000018001c35c     libucrt:cvt.obj
 0002:00002360       ??_C@_03OJHLLCGB@inf?$AA@  000000018001c360     libucrt:cvt.obj
 0002:00002364       ??_C@_03LKNCIKJB@NAN?$AA@  000000018001c364     libucrt:cvt.obj
 0002:00002368       ??_C@_03LHCJEHON@nan?$AA@  000000018001c368     libucrt:cvt.obj
 0002:00002370       ??_C@_09OFJJIMPC@NAN?$CISNAN?$CJ?$AA@ 000000018001c370     libucrt:cvt.obj
 0002:00002380       ??_C@_09IPFBKMDL@nan?$CIsnan?$CJ?$AA@ 000000018001c380     libucrt:cvt.obj
 0002:00002390       ??_C@_08IKHNHAJ@NAN?$CIIND?$CJ?$AA@ 000000018001c390     libucrt:cvt.obj
 0002:000023a0       ??_C@_08OFCDMILK@nan?$CIind?$CJ?$AA@ 000000018001c3a0     libucrt:cvt.obj
 0002:000023ac       ??_C@_05KLBDPFGC@e?$CL000?$AA@ 000000018001c3ac     libucrt:cvt.obj
 0002:000023c0       __newctype                 000000018001c3c0     libucrt:ctype.obj
 0002:000026c0       __newclmap                 000000018001c6c0     libucrt:ctype.obj
 0002:00002840       __newcumap                 000000018001c840     libucrt:ctype.obj
 0002:000029c0       _wctype                    000000018001c9c0     libucrt:ctype.obj
 0002:00002bc4       ??_C@_15PJPFLCCM@?$AAu?$AAk?$AA?$AA@ 000000018001cbc4     libucrt:get_qualified_locale.obj
 0002:00003a10       ??_C@_15EMKDOKLE@?$AAa?$AAr?$AA?$AA@ 000000018001da10     libucrt:lcidtoname_downlevel.obj
 0002:00003a18       ??_C@_15KNPADPLH@?$AAb?$AAg?$AA?$AA@ 000000018001da18     libucrt:lcidtoname_downlevel.obj
 0002:00003a20       ??_C@_15EDMHLDMO@?$AAc?$AAa?$AA?$AA@ 000000018001da20     libucrt:lcidtoname_downlevel.obj
 0002:00003a28       ??_C@_1O@BPEAJADD@?$AAz?$AAh?$AA?9?$AAC?$AAH?$AAS?$AA?$AA@ 000000018001da28     libucrt:lcidtoname_downlevel.obj
 0002:00003a38       ??_C@_15LJNHCMNK@?$AAc?$AAs?$AA?$AA@ 000000018001da38     libucrt:lcidtoname_downlevel.obj
 0002:00003a40       ??_C@_15FOMCIDHG@?$AAd?$AAa?$AA?$AA@ 000000018001da40     libucrt:lcidtoname_downlevel.obj
 0002:00003a48       ??_C@_15NBKABECB@?$AAd?$AAe?$AA?$AA@ 000000018001da48     libucrt:lcidtoname_downlevel.obj
 0002:00003a50       ??_C@_15GHPEIIAO@?$AAe?$AAl?$AA?$AA@ 000000018001da50     libucrt:lcidtoname_downlevel.obj
 0002:00003a58       ??_C@_15MNPNEAIF@?$AAe?$AAn?$AA?$AA@ 000000018001da58     libucrt:lcidtoname_downlevel.obj
 0002:00003a60       ??_C@_15GPIOMPMH@?$AAe?$AAs?$AA?$AA@ 000000018001da60     libucrt:lcidtoname_downlevel.obj
 0002:00003a68       ??_C@_15NGLOAKJC@?$AAf?$AAi?$AA?$AA@ 000000018001da68     libucrt:lcidtoname_downlevel.obj
 0002:00003a70       ??_C@_15FBKGNKAM@?$AAf?$AAr?$AA?$AA@ 000000018001da70     libucrt:lcidtoname_downlevel.obj
 0002:00003a78       ??_C@_15KGGCNEFK@?$AAh?$AAe?$AA?$AA@ 000000018001da78     libucrt:lcidtoname_downlevel.obj
 0002:00003a80       ??_C@_15PGHLIDMF@?$AAh?$AAu?$AA?$AA@ 000000018001da80     libucrt:lcidtoname_downlevel.obj
 0002:00003a88       ??_C@_15BIEMAPLM@?$AAi?$AAs?$AA?$AA@ 000000018001da88     libucrt:lcidtoname_downlevel.obj
 0002:00003a90       ??_C@_15IFJLDHAF@?$AAi?$AAt?$AA?$AA@ 000000018001da90     libucrt:lcidtoname_downlevel.obj
 0002:00003a98       ??_C@_15GEMIOCAG@?$AAj?$AAa?$AA?$AA@ 000000018001da98     libucrt:lcidtoname_downlevel.obj
 0002:00003aa0       ??_C@_15EPELEGJA@?$AAk?$AAo?$AA?$AA@ 000000018001daa0     libucrt:lcidtoname_downlevel.obj
 0002:00003aa8       ??_C@_15NDDHIMN@?$AAn?$AAl?$AA?$AA@ 000000018001daa8     libucrt:lcidtoname_downlevel.obj
 0002:00003ab0       ??_C@_15BPIGNHCD@?$AAn?$AAo?$AA?$AA@ 000000018001dab0     libucrt:lcidtoname_downlevel.obj
 0002:00003ab8       ??_C@_15DEOPBLCG@?$AAp?$AAl?$AA?$AA@ 000000018001dab8     libucrt:lcidtoname_downlevel.obj
 0002:00003ac0       ??_C@_15KBECGEFG@?$AAp?$AAt?$AA?$AA@ 000000018001dac0     libucrt:lcidtoname_downlevel.obj
 0002:00003ac8       ??_C@_15GLJCBFMD@?$AAr?$AAo?$AA?$AA@ 000000018001dac8     libucrt:lcidtoname_downlevel.obj
 0002:00003ad0       ??_C@_15FEDGKCDI@?$AAr?$AAu?$AA?$AA@ 000000018001dad0     libucrt:lcidtoname_downlevel.obj
 0002:00003ad8       ??_C@_15GLKMLLHM@?$AAh?$AAr?$AA?$AA@ 000000018001dad8     libucrt:lcidtoname_downlevel.obj
 0002:00003ae0       ??_C@_15CPKMFBDB@?$AAs?$AAk?$AA?$AA@ 000000018001dae0     libucrt:lcidtoname_downlevel.obj
 0002:00003ae8       ??_C@_15BAAIOGMK@?$AAs?$AAq?$AA?$AA@ 000000018001dae8     libucrt:lcidtoname_downlevel.obj
 0002:00003af0       ??_C@_15INNPNOHD@?$AAs?$AAv?$AA?$AA@ 000000018001daf0     libucrt:lcidtoname_downlevel.obj
 0002:00003af8       ??_C@_15CABMMOGH@?$AAt?$AAh?$AA?$AA@ 000000018001daf8     libucrt:lcidtoname_downlevel.obj
 0002:00003b00       ??_C@_15BPLIHJJM@?$AAt?$AAr?$AA?$AA@ 000000018001db00     libucrt:lcidtoname_downlevel.obj
 0002:00003b08       ??_C@_15NEOEKKDJ@?$AAu?$AAr?$AA?$AA@ 000000018001db08     libucrt:lcidtoname_downlevel.obj
 0002:00003b10       ??_C@_15NFICGAJK@?$AAi?$AAd?$AA?$AA@ 000000018001db10     libucrt:lcidtoname_downlevel.obj
 0002:00003b18       ??_C@_15HPJPHDM@?$AAb?$AAe?$AA?$AA@ 000000018001db18     libucrt:lcidtoname_downlevel.obj
 0002:00003b20       ??_C@_15LCHLGJII@?$AAs?$AAl?$AA?$AA@ 000000018001db20     libucrt:lcidtoname_downlevel.obj
 0002:00003b28       ??_C@_15PCFJPHHO@?$AAe?$AAt?$AA?$AA@ 000000018001db28     libucrt:lcidtoname_downlevel.obj
 0002:00003b30       ??_C@_15HPFPGODN@?$AAl?$AAv?$AA?$AA@ 000000018001db30     libucrt:lcidtoname_downlevel.obj
 0002:00003b38       ??_C@_15NFFGKGLG@?$AAl?$AAt?$AA?$AA@ 000000018001db38     libucrt:lcidtoname_downlevel.obj
 0002:00003b40       ??_C@_15BDAKCCHN@?$AAf?$AAa?$AA?$AA@ 000000018001db40     libucrt:lcidtoname_downlevel.obj
 0002:00003b48       ??_C@_15NFGIAIAJ@?$AAv?$AAi?$AA?$AA@ 000000018001db48     libucrt:lcidtoname_downlevel.obj
 0002:00003b50       ??_C@_15LMKNDMHN@?$AAh?$AAy?$AA?$AA@ 000000018001db50     libucrt:lcidtoname_downlevel.obj
 0002:00003b58       ??_C@_15IJBHMCFL@?$AAa?$AAz?$AA?$AA@ 000000018001db58     libucrt:lcidtoname_downlevel.obj
 0002:00003b60       ??_C@_15EKOFJABL@?$AAe?$AAu?$AA?$AA@ 000000018001db60     libucrt:lcidtoname_downlevel.obj
 0002:00003b68       ??_C@_15BGHADCNK@?$AAm?$AAk?$AA?$AA@ 000000018001db68     libucrt:lcidtoname_downlevel.obj
 0002:00003b70       ??_C@_15JDNICKHM@?$AAa?$AAf?$AA?$AA@ 000000018001db70     libucrt:lcidtoname_downlevel.obj
 0002:00003b78       ??_C@_15KPJEDBKD@?$AAk?$AAa?$AA?$AA@ 000000018001db78     libucrt:lcidtoname_downlevel.obj
 0002:00003b80       ??_C@_15PDNFFFEO@?$AAf?$AAo?$AA?$AA@ 000000018001db80     libucrt:lcidtoname_downlevel.obj
 0002:00003b88       ??_C@_15OMLEGLOC@?$AAh?$AAi?$AA?$AA@ 000000018001db88     libucrt:lcidtoname_downlevel.obj
 0002:00003b90       ??_C@_15IDNNENKK@?$AAm?$AAs?$AA?$AA@ 000000018001db90     libucrt:lcidtoname_downlevel.obj
 0002:00003b98       ??_C@_15MACJNBMH@?$AAk?$AAk?$AA?$AA@ 000000018001db98     libucrt:lcidtoname_downlevel.obj
 0002:00003ba0       ??_C@_15DKDJEOND@?$AAk?$AAy?$AA?$AA@ 000000018001dba0     libucrt:lcidtoname_downlevel.obj
 0002:00003ba8       ??_C@_15DFGDLJBG@?$AAs?$AAw?$AA?$AA@ 000000018001dba8     libucrt:lcidtoname_downlevel.obj
 0002:00003bb0       ??_C@_15BBFAICNG@?$AAu?$AAz?$AA?$AA@ 000000018001dbb0     libucrt:lcidtoname_downlevel.obj
 0002:00003bb8       ??_C@_15DKNDCGEA@?$AAt?$AAt?$AA?$AA@ 000000018001dbb8     libucrt:lcidtoname_downlevel.obj
 0002:00003bc0       ??_C@_15MGIFMDPL@?$AAp?$AAa?$AA?$AA@ 000000018001dbc0     libucrt:lcidtoname_downlevel.obj
 0002:00003bc8       ??_C@_15HCNDBBA@?$AAg?$AAu?$AA?$AA@ 000000018001dbc8     libucrt:lcidtoname_downlevel.obj
 0002:00003bd0       ??_C@_15FNBEIBON@?$AAt?$AAa?$AA?$AA@ 000000018001dbd0     libucrt:lcidtoname_downlevel.obj
 0002:00003bd8       ??_C@_15NCHGBGLK@?$AAt?$AAe?$AA?$AA@ 000000018001dbd8     libucrt:lcidtoname_downlevel.obj
 0002:00003be0       ??_C@_15PHPHCBPF@?$AAk?$AAn?$AA?$AA@ 000000018001dbe0     libucrt:lcidtoname_downlevel.obj
 0002:00003be8       ??_C@_15DLGBCKMP@?$AAm?$AAr?$AA?$AA@ 000000018001dbe8     libucrt:lcidtoname_downlevel.obj
 0002:00003bf0       ??_C@_15EABBLBFF@?$AAs?$AAa?$AA?$AA@ 000000018001dbf0     libucrt:lcidtoname_downlevel.obj
 0002:00003bf8       ??_C@_15CBKOMCOI@?$AAm?$AAn?$AA?$AA@ 000000018001dbf8     libucrt:lcidtoname_downlevel.obj
 0002:00003c00       ??_C@_15CKDMCJAF@?$AAg?$AAl?$AA?$AA@ 000000018001dc00     libucrt:lcidtoname_downlevel.obj
 0002:00003c08       ??_C@_17CNJFBPG@?$AAk?$AAo?$AAk?$AA?$AA@ 000000018001dc08     libucrt:lcidtoname_downlevel.obj
 0002:00003c10       ??_C@_17FFBJICPL@?$AAs?$AAy?$AAr?$AA?$AA@ 000000018001dc10     libucrt:lcidtoname_downlevel.obj
 0002:00003c18       ??_C@_17KPNDCPAF@?$AAd?$AAi?$AAv?$AA?$AA@ 000000018001dc18     libucrt:lcidtoname_downlevel.obj
 0002:00003c20       ??_C@_1M@OKAHONE@?$AAa?$AAr?$AA?9?$AAS?$AAA?$AA?$AA@ 000000018001dc20     libucrt:lcidtoname_downlevel.obj
 0002:00003c30       ??_C@_1M@FFFIGIGK@?$AAb?$AAg?$AA?9?$AAB?$AAG?$AA?$AA@ 000000018001dc30     libucrt:lcidtoname_downlevel.obj
 0002:00003c40       ??_C@_1M@BJNKEDC@?$AAc?$AAa?$AA?9?$AAE?$AAS?$AA?$AA@ 000000018001dc40     libucrt:lcidtoname_downlevel.obj
 0002:00003c50       ??_C@_1M@IJJHFJHA@?$AAc?$AAs?$AA?9?$AAC?$AAZ?$AA?$AA@ 000000018001dc50     libucrt:lcidtoname_downlevel.obj
 0002:00003c60       ??_C@_1M@CLPEOBGI@?$AAd?$AAa?$AA?9?$AAD?$AAK?$AA?$AA@ 000000018001dc60     libucrt:lcidtoname_downlevel.obj
 0002:00003c70       ??_C@_1M@MCMADGCB@?$AAd?$AAe?$AA?9?$AAD?$AAE?$AA?$AA@ 000000018001dc70     libucrt:lcidtoname_downlevel.obj
 0002:00003c80       ??_C@_1M@OOCKEMAM@?$AAe?$AAl?$AA?9?$AAG?$AAR?$AA?$AA@ 000000018001dc80     libucrt:lcidtoname_downlevel.obj
 0002:00003c90       ??_C@_1M@DDNJFGID@?$AAf?$AAi?$AA?9?$AAF?$AAI?$AA?$AA@ 000000018001dc90     libucrt:lcidtoname_downlevel.obj
 0002:00003ca0       ??_C@_1M@GLIPPMAC@?$AAf?$AAr?$AA?9?$AAF?$AAR?$AA?$AA@ 000000018001dca0     libucrt:lcidtoname_downlevel.obj
 0002:00003cb0       ??_C@_1M@GFMCHPE@?$AAh?$AAe?$AA?9?$AAI?$AAL?$AA?$AA@ 000000018001dcb0     libucrt:lcidtoname_downlevel.obj
 0002:00003cc0       ??_C@_1M@MHLPGNKM@?$AAh?$AAu?$AA?9?$AAH?$AAU?$AA?$AA@ 000000018001dcc0     libucrt:lcidtoname_downlevel.obj
 0002:00003cd0       ??_C@_1M@LPDDNNPN@?$AAi?$AAs?$AA?9?$AAI?$AAS?$AA?$AA@ 000000018001dcd0     libucrt:lcidtoname_downlevel.obj
 0002:00003ce0       ??_C@_1M@MADIPODN@?$AAi?$AAt?$AA?9?$AAI?$AAT?$AA?$AA@ 000000018001dce0     libucrt:lcidtoname_downlevel.obj
 0002:00003cf0       ??_C@_1M@IHBJJGG@?$AAn?$AAl?$AA?9?$AAN?$AAL?$AA?$AA@ 000000018001dcf0     libucrt:lcidtoname_downlevel.obj
 0002:00003d00       ??_C@_1M@EANAGDL@?$AAn?$AAb?$AA?9?$AAN?$AAO?$AA?$AA@ 000000018001dd00     libucrt:lcidtoname_downlevel.obj
 0002:00003d10       ??_C@_1M@NEIEMEGP@?$AAp?$AAl?$AA?9?$AAP?$AAL?$AA?$AA@ 000000018001dd10     libucrt:lcidtoname_downlevel.obj
 0002:00003d20       ??_C@_1M@BOCFIGEP@?$AAp?$AAt?$AA?9?$AAB?$AAR?$AA?$AA@ 000000018001dd20     libucrt:lcidtoname_downlevel.obj
 0002:00003d30       ??_C@_1M@IMPFOPBG@?$AAr?$AAo?$AA?9?$AAR?$AAO?$AA?$AA@ 000000018001dd30     libucrt:lcidtoname_downlevel.obj
 0002:00003d40       ??_C@_1M@IDNNEJMM@?$AAr?$AAu?$AA?9?$AAR?$AAU?$AA?$AA@ 000000018001dd40     libucrt:lcidtoname_downlevel.obj
 0002:00003d50       ??_C@_1M@LILEEOGM@?$AAh?$AAr?$AA?9?$AAH?$AAR?$AA?$AA@ 000000018001dd50     libucrt:lcidtoname_downlevel.obj
 0002:00003d60       ??_C@_1M@FKIFEHPB@?$AAs?$AAk?$AA?9?$AAS?$AAK?$AA?$AA@ 000000018001dd60     libucrt:lcidtoname_downlevel.obj
 0002:00003d70       ??_C@_1M@LJMAMNPJ@?$AAs?$AAq?$AA?9?$AAA?$AAL?$AA?$AA@ 000000018001dd70     libucrt:lcidtoname_downlevel.obj
 0002:00003d80       ??_C@_1M@GIAKDKJK@?$AAs?$AAv?$AA?9?$AAS?$AAE?$AA?$AA@ 000000018001dd80     libucrt:lcidtoname_downlevel.obj
 0002:00003d90       ??_C@_1M@MKJKIKCL@?$AAt?$AAh?$AA?9?$AAT?$AAH?$AA?$AA@ 000000018001dd90     libucrt:lcidtoname_downlevel.obj
 0002:00003da0       ??_C@_1M@MFLCCMPB@?$AAt?$AAr?$AA?9?$AAT?$AAR?$AA?$AA@ 000000018001dda0     libucrt:lcidtoname_downlevel.obj
 0002:00003db0       ??_C@_1M@OIJHDKJN@?$AAu?$AAr?$AA?9?$AAP?$AAK?$AA?$AA@ 000000018001ddb0     libucrt:lcidtoname_downlevel.obj
 0002:00003dc0       ??_C@_1M@LHIPCIEK@?$AAi?$AAd?$AA?9?$AAI?$AAD?$AA?$AA@ 000000018001ddc0     libucrt:lcidtoname_downlevel.obj
 0002:00003dd0       ??_C@_1M@MFMOBGI@?$AAu?$AAk?$AA?9?$AAU?$AAA?$AA?$AA@ 000000018001ddd0     libucrt:lcidtoname_downlevel.obj
 0002:00003de0       ??_C@_1M@OBGLJIPL@?$AAb?$AAe?$AA?9?$AAB?$AAY?$AA?$AA@ 000000018001dde0     libucrt:lcidtoname_downlevel.obj
 0002:00003df0       ??_C@_1M@BCFAJEAD@?$AAs?$AAl?$AA?9?$AAS?$AAI?$AA?$AA@ 000000018001ddf0     libucrt:lcidtoname_downlevel.obj
 0002:00003e00       ??_C@_1M@FKFFEDDN@?$AAe?$AAt?$AA?9?$AAE?$AAE?$AA?$AA@ 000000018001de00     libucrt:lcidtoname_downlevel.obj
 0002:00003e10       ??_C@_1M@KGKKAACI@?$AAl?$AAv?$AA?9?$AAL?$AAV?$AA?$AA@ 000000018001de10     libucrt:lcidtoname_downlevel.obj
 0002:00003e20       ??_C@_1M@IFGBIJO@?$AAl?$AAt?$AA?9?$AAL?$AAT?$AA?$AA@ 000000018001de20     libucrt:lcidtoname_downlevel.obj
 0002:00003e30       ??_C@_1M@FGEAHEDM@?$AAf?$AAa?$AA?9?$AAI?$AAR?$AA?$AA@ 000000018001de30     libucrt:lcidtoname_downlevel.obj
 0002:00003e40       ??_C@_1M@KBMAIBFN@?$AAv?$AAi?$AA?9?$AAV?$AAN?$AA?$AA@ 000000018001de40     libucrt:lcidtoname_downlevel.obj
 0002:00003e50       ??_C@_1M@GPCBKDJK@?$AAh?$AAy?$AA?9?$AAA?$AAM?$AA?$AA@ 000000018001de50     libucrt:lcidtoname_downlevel.obj
 0002:00003e60       ??_C@_1BG@BECMDDJB@?$AAa?$AAz?$AA?9?$AAA?$AAZ?$AA?9?$AAL?$AAa?$AAt?$AAn?$AA?$AA@ 000000018001de60     libucrt:lcidtoname_downlevel.obj
 0002:00003e78       ??_C@_1M@MAOFCAEA@?$AAe?$AAu?$AA?9?$AAE?$AAS?$AA?$AA@ 000000018001de78     libucrt:lcidtoname_downlevel.obj
 0002:00003e88       ??_C@_1M@IGHABKPI@?$AAm?$AAk?$AA?9?$AAM?$AAK?$AA?$AA@ 000000018001de88     libucrt:lcidtoname_downlevel.obj
 0002:00003e98       ??_C@_1M@IAIGNEJG@?$AAt?$AAn?$AA?9?$AAZ?$AAA?$AA?$AA@ 000000018001de98     libucrt:lcidtoname_downlevel.obj
 0002:00003ea8       ??_C@_1M@IIJCOJFA@?$AAx?$AAh?$AA?9?$AAZ?$AAA?$AA?$AA@ 000000018001dea8     libucrt:lcidtoname_downlevel.obj
 0002:00003eb8       ??_C@_1M@LGPJHNJH@?$AAz?$AAu?$AA?9?$AAZ?$AAA?$AA?$AA@ 000000018001deb8     libucrt:lcidtoname_downlevel.obj
 0002:00003ec8       ??_C@_1M@HOKAOIO@?$AAa?$AAf?$AA?9?$AAZ?$AAA?$AA?$AA@ 000000018001dec8     libucrt:lcidtoname_downlevel.obj
 0002:00003ed8       ??_C@_1M@DPCLHLIE@?$AAk?$AAa?$AA?9?$AAG?$AAE?$AA?$AA@ 000000018001ded8     libucrt:lcidtoname_downlevel.obj
 0002:00003ee8       ??_C@_1M@BLKMHJBI@?$AAf?$AAo?$AA?9?$AAF?$AAO?$AA?$AA@ 000000018001dee8     libucrt:lcidtoname_downlevel.obj
 0002:00003ef8       ??_C@_1M@LGGJAPPB@?$AAh?$AAi?$AA?9?$AAI?$AAN?$AA?$AA@ 000000018001def8     libucrt:lcidtoname_downlevel.obj
 0002:00003f08       ??_C@_1M@FIKPIHFE@?$AAm?$AAt?$AA?9?$AAM?$AAT?$AA?$AA@ 000000018001df08     libucrt:lcidtoname_downlevel.obj
 0002:00003f18       ??_C@_1M@HEGGPBFA@?$AAs?$AAe?$AA?9?$AAN?$AAO?$AA?$AA@ 000000018001df18     libucrt:lcidtoname_downlevel.obj
 0002:00003f28       ??_C@_1M@EIBJEEPA@?$AAm?$AAs?$AA?9?$AAM?$AAY?$AA?$AA@ 000000018001df28     libucrt:lcidtoname_downlevel.obj
 0002:00003f38       ??_C@_1M@FHLBGMPP@?$AAk?$AAk?$AA?9?$AAK?$AAZ?$AA?$AA@ 000000018001df38     libucrt:lcidtoname_downlevel.obj
 0002:00003f48       ??_C@_1M@NGJJLCGI@?$AAk?$AAy?$AA?9?$AAK?$AAG?$AA?$AA@ 000000018001df48     libucrt:lcidtoname_downlevel.obj
 0002:00003f58       ??_C@_1M@GIENNBFC@?$AAs?$AAw?$AA?9?$AAK?$AAE?$AA?$AA@ 000000018001df58     libucrt:lcidtoname_downlevel.obj
 0002:00003f68       ??_C@_1BG@NDGMJIMJ@?$AAu?$AAz?$AA?9?$AAU?$AAZ?$AA?9?$AAL?$AAa?$AAt?$AAn?$AA?$AA@ 000000018001df68     libucrt:lcidtoname_downlevel.obj
 0002:00003f80       ??_C@_1M@IDCCIHBC@?$AAt?$AAt?$AA?9?$AAR?$AAU?$AA?$AA@ 000000018001df80     libucrt:lcidtoname_downlevel.obj
 0002:00003f90       ??_C@_1M@LOICPMOJ@?$AAb?$AAn?$AA?9?$AAI?$AAN?$AA?$AA@ 000000018001df90     libucrt:lcidtoname_downlevel.obj
 0002:00003fa0       ??_C@_1M@KPKKNEAH@?$AAp?$AAa?$AA?9?$AAI?$AAN?$AA?$AA@ 000000018001dfa0     libucrt:lcidtoname_downlevel.obj
 0002:00003fb0       ??_C@_1M@PJGPPBOG@?$AAg?$AAu?$AA?9?$AAI?$AAN?$AA?$AA@ 000000018001dfb0     libucrt:lcidtoname_downlevel.obj
 0002:00003fc0       ??_C@_1M@KMKMOPHI@?$AAt?$AAa?$AA?9?$AAI?$AAN?$AA?$AA@ 000000018001dfc0     libucrt:lcidtoname_downlevel.obj
 0002:00003fd0       ??_C@_1M@KFEHEPAC@?$AAt?$AAe?$AA?9?$AAI?$AAN?$AA?$AA@ 000000018001dfd0     libucrt:lcidtoname_downlevel.obj
 0002:00003fe0       ??_C@_1M@CDCLMGHI@?$AAk?$AAn?$AA?9?$AAI?$AAN?$AA?$AA@ 000000018001dfe0     libucrt:lcidtoname_downlevel.obj
 0002:00003ff0       ??_C@_1M@MIODLDKF@?$AAm?$AAl?$AA?9?$AAI?$AAN?$AA?$AA@ 000000018001dff0     libucrt:lcidtoname_downlevel.obj
 0002:00004000       ??_C@_1M@PBIEACPO@?$AAm?$AAr?$AA?9?$AAI?$AAN?$AA?$AA@ 000000018001e000     libucrt:lcidtoname_downlevel.obj
 0002:00004010       ??_C@_1M@NIDEAGPH@?$AAs?$AAa?$AA?9?$AAI?$AAN?$AA?$AA@ 000000018001e010     libucrt:lcidtoname_downlevel.obj
 0002:00004020       ??_C@_1M@FHIHCBIO@?$AAm?$AAn?$AA?9?$AAM?$AAN?$AA?$AA@ 000000018001e020     libucrt:lcidtoname_downlevel.obj
 0002:00004030       ??_C@_1M@JAIJPENP@?$AAc?$AAy?$AA?9?$AAG?$AAB?$AA?$AA@ 000000018001e030     libucrt:lcidtoname_downlevel.obj
 0002:00004040       ??_C@_1M@PHGFBEPN@?$AAg?$AAl?$AA?9?$AAE?$AAS?$AA?$AA@ 000000018001e040     libucrt:lcidtoname_downlevel.obj
 0002:00004050       ??_C@_1O@KPIPDNCP@?$AAk?$AAo?$AAk?$AA?9?$AAI?$AAN?$AA?$AA@ 000000018001e050     libucrt:lcidtoname_downlevel.obj
 0002:00004060       ??_C@_1O@KNHJLDJA@?$AAs?$AAy?$AAr?$AA?9?$AAS?$AAY?$AA?$AA@ 000000018001e060     libucrt:lcidtoname_downlevel.obj
 0002:00004070       ??_C@_1O@MKEKBLAH@?$AAd?$AAi?$AAv?$AA?9?$AAM?$AAV?$AA?$AA@ 000000018001e070     libucrt:lcidtoname_downlevel.obj
 0002:00004080       ??_C@_1O@OHDCKDDF@?$AAq?$AAu?$AAz?$AA?9?$AAB?$AAO?$AA?$AA@ 000000018001e080     libucrt:lcidtoname_downlevel.obj
 0002:00004090       ??_C@_1M@LEPJNLFD@?$AAn?$AAs?$AA?9?$AAZ?$AAA?$AA?$AA@ 000000018001e090     libucrt:lcidtoname_downlevel.obj
 0002:000040a0       ??_C@_1M@OMLEIIJB@?$AAm?$AAi?$AA?9?$AAN?$AAZ?$AA?$AA@ 000000018001e0a0     libucrt:lcidtoname_downlevel.obj
 0002:000040b0       ??_C@_1M@PMPEAILG@?$AAa?$AAr?$AA?9?$AAI?$AAQ?$AA?$AA@ 000000018001e0b0     libucrt:lcidtoname_downlevel.obj
 0002:000040c0       ??_C@_1M@CNKPNOEE@?$AAd?$AAe?$AA?9?$AAC?$AAH?$AA?$AA@ 000000018001e0c0     libucrt:lcidtoname_downlevel.obj
 0002:000040d0       ??_C@_1M@LKMGMLKO@?$AAe?$AAn?$AA?9?$AAG?$AAB?$AA?$AA@ 000000018001e0d0     libucrt:lcidtoname_downlevel.obj
 0002:000040e0       ??_C@_1M@PGKJFFGL@?$AAe?$AAs?$AA?9?$AAM?$AAX?$AA?$AA@ 000000018001e0e0     libucrt:lcidtoname_downlevel.obj
 0002:000040f0       ??_C@_1M@DNNANBDC@?$AAf?$AAr?$AA?9?$AAB?$AAE?$AA?$AA@ 000000018001e0f0     libucrt:lcidtoname_downlevel.obj
 0002:00004100       ??_C@_1M@HLGMDFHM@?$AAi?$AAt?$AA?9?$AAC?$AAH?$AA?$AA@ 000000018001e100     libucrt:lcidtoname_downlevel.obj
 0002:00004110       ??_C@_1M@CLLBGJH@?$AAn?$AAl?$AA?9?$AAB?$AAE?$AA?$AA@ 000000018001e110     libucrt:lcidtoname_downlevel.obj
 0002:00004120       ??_C@_1M@BODBOGLF@?$AAn?$AAn?$AA?9?$AAN?$AAO?$AA?$AA@ 000000018001e120     libucrt:lcidtoname_downlevel.obj
 0002:00004130       ??_C@_1M@HFFAHKAD@?$AAp?$AAt?$AA?9?$AAP?$AAT?$AA?$AA@ 000000018001e130     libucrt:lcidtoname_downlevel.obj
 0002:00004140       ??_C@_1BG@LNOAKHIE@?$AAs?$AAr?$AA?9?$AAS?$AAP?$AA?9?$AAL?$AAa?$AAt?$AAn?$AA?$AA@ 000000018001e140     libucrt:lcidtoname_downlevel.obj
 0002:00004158       ??_C@_1M@HBMHBGAK@?$AAs?$AAv?$AA?9?$AAF?$AAI?$AA?$AA@ 000000018001e158     libucrt:lcidtoname_downlevel.obj
 0002:00004168       ??_C@_1BG@DGCJGJBE@?$AAa?$AAz?$AA?9?$AAA?$AAZ?$AA?9?$AAC?$AAy?$AAr?$AAl?$AA?$AA@ 000000018001e168     libucrt:lcidtoname_downlevel.obj
 0002:00004180       ??_C@_1M@KEJDAAHB@?$AAs?$AAe?$AA?9?$AAS?$AAE?$AA?$AA@ 000000018001e180     libucrt:lcidtoname_downlevel.obj
 0002:00004190       ??_C@_1M@HEIBJJAD@?$AAm?$AAs?$AA?9?$AAB?$AAN?$AA?$AA@ 000000018001e190     libucrt:lcidtoname_downlevel.obj
 0002:000041a0       ??_C@_1BG@PBGJMCEM@?$AAu?$AAz?$AA?9?$AAU?$AAZ?$AA?9?$AAC?$AAy?$AAr?$AAl?$AA?$AA@ 000000018001e1a0     libucrt:lcidtoname_downlevel.obj
 0002:000041b8       ??_C@_1O@LAOBCMDF@?$AAq?$AAu?$AAz?$AA?9?$AAE?$AAC?$AA?$AA@ 000000018001e1b8     libucrt:lcidtoname_downlevel.obj
 0002:000041c8       ??_C@_1M@POEEMAIO@?$AAa?$AAr?$AA?9?$AAE?$AAG?$AA?$AA@ 000000018001e1c8     libucrt:lcidtoname_downlevel.obj
 0002:000041d8       ??_C@_1M@EFAKDEDL@?$AAz?$AAh?$AA?9?$AAH?$AAK?$AA?$AA@ 000000018001e1d8     libucrt:lcidtoname_downlevel.obj
 0002:000041e8       ??_C@_1M@HKKIJHGI@?$AAd?$AAe?$AA?9?$AAA?$AAT?$AA?$AA@ 000000018001e1e8     libucrt:lcidtoname_downlevel.obj
 0002:000041f8       ??_C@_1M@KBFBEHJF@?$AAe?$AAn?$AA?9?$AAA?$AAU?$AA?$AA@ 000000018001e1f8     libucrt:lcidtoname_downlevel.obj
 0002:00004208       ??_C@_1M@MNPLFAAH@?$AAe?$AAs?$AA?9?$AAE?$AAS?$AA?$AA@ 000000018001e208     libucrt:lcidtoname_downlevel.obj
 0002:00004218       ??_C@_1M@HJOOJFMA@?$AAf?$AAr?$AA?9?$AAC?$AAA?$AA?$AA@ 000000018001e218     libucrt:lcidtoname_downlevel.obj
 0002:00004228       ??_C@_1BG@JPOFPNAB@?$AAs?$AAr?$AA?9?$AAS?$AAP?$AA?9?$AAC?$AAy?$AAr?$AAl?$AA?$AA@ 000000018001e228     libucrt:lcidtoname_downlevel.obj
 0002:00004240       ??_C@_1M@LNFOCMOB@?$AAs?$AAe?$AA?9?$AAF?$AAI?$AA?$AA@ 000000018001e240     libucrt:lcidtoname_downlevel.obj
 0002:00004250       ??_C@_1O@MGJBOAMB@?$AAq?$AAu?$AAz?$AA?9?$AAP?$AAE?$AA?$AA@ 000000018001e250     libucrt:lcidtoname_downlevel.obj
 0002:00004260       ??_C@_1M@GJINLBOK@?$AAa?$AAr?$AA?9?$AAL?$AAY?$AA?$AA@ 000000018001e260     libucrt:lcidtoname_downlevel.obj
 0002:00004270       ??_C@_1M@GGMNHJNL@?$AAz?$AAh?$AA?9?$AAS?$AAG?$AA?$AA@ 000000018001e270     libucrt:lcidtoname_downlevel.obj
 0002:00004280       ??_C@_1M@HOIKODND@?$AAd?$AAe?$AA?9?$AAL?$AAU?$AA?$AA@ 000000018001e280     libucrt:lcidtoname_downlevel.obj
 0002:00004290       ??_C@_1M@DDOCCGFG@?$AAe?$AAn?$AA?9?$AAC?$AAA?$AA?$AA@ 000000018001e290     libucrt:lcidtoname_downlevel.obj
 0002:000042a0       ??_C@_1M@BNOEMJLF@?$AAe?$AAs?$AA?9?$AAG?$AAT?$AA?$AA@ 000000018001e2a0     libucrt:lcidtoname_downlevel.obj
 0002:000042b0       ??_C@_1M@EOGNKEK@?$AAf?$AAr?$AA?9?$AAC?$AAH?$AA?$AA@ 000000018001e2b0     libucrt:lcidtoname_downlevel.obj
 0002:000042c0       ??_C@_1M@FLIDJFHL@?$AAh?$AAr?$AA?9?$AAB?$AAA?$AA?$AA@ 000000018001e2c0     libucrt:lcidtoname_downlevel.obj
 0002:000042d0       ??_C@_1O@FMCELNAJ@?$AAs?$AAm?$AAj?$AA?9?$AAN?$AAO?$AA?$AA@ 000000018001e2d0     libucrt:lcidtoname_downlevel.obj
 0002:000042e0       ??_C@_1M@JHGLJMGJ@?$AAa?$AAr?$AA?9?$AAD?$AAZ?$AA?$AA@ 000000018001e2e0     libucrt:lcidtoname_downlevel.obj
 0002:000042f0       ??_C@_1M@JKKFDCNP@?$AAz?$AAh?$AA?9?$AAM?$AAO?$AA?$AA@ 000000018001e2f0     libucrt:lcidtoname_downlevel.obj
 0002:00004300       ??_C@_1M@GEEFALPE@?$AAd?$AAe?$AA?9?$AAL?$AAI?$AA?$AA@ 000000018001e300     libucrt:lcidtoname_downlevel.obj
 0002:00004310       ??_C@_1M@IGEOFBG@?$AAe?$AAn?$AA?9?$AAN?$AAZ?$AA?$AA@ 000000018001e310     libucrt:lcidtoname_downlevel.obj
 0002:00004320       ??_C@_1M@KDBONEHP@?$AAe?$AAs?$AA?9?$AAC?$AAR?$AA?$AA@ 000000018001e320     libucrt:lcidtoname_downlevel.obj
 0002:00004330       ??_C@_1M@FHMDOHNN@?$AAf?$AAr?$AA?9?$AAL?$AAU?$AA?$AA@ 000000018001e330     libucrt:lcidtoname_downlevel.obj
 0002:00004340       ??_C@_1BG@NFKKMAFG@?$AAb?$AAs?$AA?9?$AAB?$AAA?$AA?9?$AAL?$AAa?$AAt?$AAn?$AA?$AA@ 000000018001e340     libucrt:lcidtoname_downlevel.obj
 0002:00004358       ??_C@_1O@IMNBEMCI@?$AAs?$AAm?$AAj?$AA?9?$AAS?$AAE?$AA?$AA@ 000000018001e358     libucrt:lcidtoname_downlevel.obj
 0002:00004368       ??_C@_1M@DHHMBNDP@?$AAa?$AAr?$AA?9?$AAM?$AAA?$AA?$AA@ 000000018001e368     libucrt:lcidtoname_downlevel.obj
 0002:00004378       ??_C@_1M@BNBLJCGH@?$AAe?$AAn?$AA?9?$AAI?$AAE?$AA?$AA@ 000000018001e378     libucrt:lcidtoname_downlevel.obj
 0002:00004388       ??_C@_1M@GEPAFMDL@?$AAe?$AAs?$AA?9?$AAP?$AAA?$AA?$AA@ 000000018001e388     libucrt:lcidtoname_downlevel.obj
 0002:00004398       ??_C@_1M@OJONDMDL@?$AAf?$AAr?$AA?9?$AAM?$AAC?$AA?$AA@ 000000018001e398     libucrt:lcidtoname_downlevel.obj
 0002:000043a8       ??_C@_1BG@OBCNFJB@?$AAs?$AAr?$AA?9?$AAB?$AAA?$AA?9?$AAL?$AAa?$AAt?$AAn?$AA?$AA@ 000000018001e3a8     libucrt:lcidtoname_downlevel.obj
 0002:000043c0       ??_C@_1O@KEMEEGPO@?$AAs?$AAm?$AAa?$AA?9?$AAN?$AAO?$AA?$AA@ 000000018001e3c0     libucrt:lcidtoname_downlevel.obj
 0002:000043d0       ??_C@_1M@ELMGFODK@?$AAa?$AAr?$AA?9?$AAT?$AAN?$AA?$AA@ 000000018001e3d0     libucrt:lcidtoname_downlevel.obj
 0002:000043e0       ??_C@_1M@BHDLHFAF@?$AAe?$AAn?$AA?9?$AAZ?$AAA?$AA?$AA@ 000000018001e3e0     libucrt:lcidtoname_downlevel.obj
 0002:000043f0       ??_C@_1M@BMGIGLIF@?$AAe?$AAs?$AA?9?$AAD?$AAO?$AA?$AA@ 000000018001e3f0     libucrt:lcidtoname_downlevel.obj
 0002:00004400       ??_C@_1BG@CMBHIPBE@?$AAs?$AAr?$AA?9?$AAB?$AAA?$AA?9?$AAC?$AAy?$AAr?$AAl?$AA?$AA@ 000000018001e400     libucrt:lcidtoname_downlevel.obj
 0002:00004418       ??_C@_1O@HEDBLHNP@?$AAs?$AAm?$AAa?$AA?9?$AAS?$AAE?$AA?$AA@ 000000018001e418     libucrt:lcidtoname_downlevel.obj
 0002:00004428       ??_C@_1M@DAGCADIM@?$AAa?$AAr?$AA?9?$AAO?$AAM?$AA?$AA@ 000000018001e428     libucrt:lcidtoname_downlevel.obj
 0002:00004438       ??_C@_1M@FODLMICG@?$AAe?$AAn?$AA?9?$AAJ?$AAM?$AA?$AA@ 000000018001e438     libucrt:lcidtoname_downlevel.obj
 0002:00004448       ??_C@_1M@DNMLCIHB@?$AAe?$AAs?$AA?9?$AAV?$AAE?$AA?$AA@ 000000018001e448     libucrt:lcidtoname_downlevel.obj
 0002:00004458       ??_C@_1O@EOKHMKJK@?$AAs?$AAm?$AAs?$AA?9?$AAF?$AAI?$AA?$AA@ 000000018001e458     libucrt:lcidtoname_downlevel.obj
 0002:00004468       ??_C@_1M@CAFJMKOF@?$AAa?$AAr?$AA?9?$AAY?$AAE?$AA?$AA@ 000000018001e468     libucrt:lcidtoname_downlevel.obj
 0002:00004478       ??_C@_1M@CBFHIJLI@?$AAe?$AAn?$AA?9?$AAC?$AAB?$AA?$AA@ 000000018001e478     libucrt:lcidtoname_downlevel.obj
 0002:00004488       ??_C@_1M@BGNFLDN@?$AAe?$AAs?$AA?9?$AAC?$AAO?$AA?$AA@ 000000018001e488     libucrt:lcidtoname_downlevel.obj
 0002:00004498       ??_C@_1O@JMPHMAMC@?$AAs?$AAm?$AAn?$AA?9?$AAF?$AAI?$AA?$AA@ 000000018001e498     libucrt:lcidtoname_downlevel.obj
 0002:000044a8       ??_C@_1M@JLANABKE@?$AAa?$AAr?$AA?9?$AAS?$AAY?$AA?$AA@ 000000018001e4a8     libucrt:lcidtoname_downlevel.obj
 0002:000044b8       ??_C@_1M@HPKGCFGN@?$AAe?$AAn?$AA?9?$AAB?$AAZ?$AA?$AA@ 000000018001e4b8     libucrt:lcidtoname_downlevel.obj
 0002:000044c8       ??_C@_1M@OLJCMLGM@?$AAe?$AAs?$AA?9?$AAP?$AAE?$AA?$AA@ 000000018001e4c8     libucrt:lcidtoname_downlevel.obj
 0002:000044d8       ??_C@_1M@MKKGFKLE@?$AAa?$AAr?$AA?9?$AAJ?$AAO?$AA?$AA@ 000000018001e4d8     libucrt:lcidtoname_downlevel.obj
 0002:000044e8       ??_C@_1M@EKPGLDNI@?$AAe?$AAn?$AA?9?$AAT?$AAT?$AA?$AA@ 000000018001e4e8     libucrt:lcidtoname_downlevel.obj
 0002:000044f8       ??_C@_1M@OONGHFHE@?$AAe?$AAs?$AA?9?$AAA?$AAR?$AA?$AA@ 000000018001e4f8     libucrt:lcidtoname_downlevel.obj
 0002:00004508       ??_C@_1M@OOJFGBHE@?$AAa?$AAr?$AA?9?$AAL?$AAB?$AA?$AA@ 000000018001e508     libucrt:lcidtoname_downlevel.obj
 0002:00004518       ??_C@_1M@GCEJHNEG@?$AAe?$AAn?$AA?9?$AAZ?$AAW?$AA?$AA@ 000000018001e518     libucrt:lcidtoname_downlevel.obj
 0002:00004528       ??_C@_1M@JNOCAHJI@?$AAe?$AAs?$AA?9?$AAE?$AAC?$AA?$AA@ 000000018001e528     libucrt:lcidtoname_downlevel.obj
 0002:00004538       ??_C@_1M@JEFHPGGB@?$AAa?$AAr?$AA?9?$AAK?$AAW?$AA?$AA@ 000000018001e538     libucrt:lcidtoname_downlevel.obj
 0002:00004548       ??_C@_1M@MLKIBJOJ@?$AAe?$AAn?$AA?9?$AAP?$AAH?$AA?$AA@ 000000018001e548     libucrt:lcidtoname_downlevel.obj
 0002:00004558       ??_C@_1M@BDNIPEND@?$AAe?$AAs?$AA?9?$AAC?$AAL?$AA?$AA@ 000000018001e558     libucrt:lcidtoname_downlevel.obj
 0002:00004568       ??_C@_1M@MPNMEKBD@?$AAa?$AAr?$AA?9?$AAA?$AAE?$AA?$AA@ 000000018001e568     libucrt:lcidtoname_downlevel.obj
 0002:00004578       ??_C@_1M@KBJALCPI@?$AAe?$AAs?$AA?9?$AAU?$AAY?$AA?$AA@ 000000018001e578     libucrt:lcidtoname_downlevel.obj
 0002:00004588       ??_C@_1M@LLCCOAGA@?$AAa?$AAr?$AA?9?$AAB?$AAH?$AA?$AA@ 000000018001e588     libucrt:lcidtoname_downlevel.obj
 0002:00004598       ??_C@_1M@PBFNCDEL@?$AAe?$AAs?$AA?9?$AAP?$AAY?$AA?$AA@ 000000018001e598     libucrt:lcidtoname_downlevel.obj
 0002:000045a8       ??_C@_1M@EDGINPNP@?$AAa?$AAr?$AA?9?$AAQ?$AAA?$AA?$AA@ 000000018001e5a8     libucrt:lcidtoname_downlevel.obj
 0002:000045b8       ??_C@_1M@MKDBIIJI@?$AAe?$AAs?$AA?9?$AAB?$AAO?$AA?$AA@ 000000018001e5b8     libucrt:lcidtoname_downlevel.obj
 0002:000045c8       ??_C@_1M@CPKKEBLD@?$AAe?$AAs?$AA?9?$AAS?$AAV?$AA?$AA@ 000000018001e5c8     libucrt:lcidtoname_downlevel.obj
 0002:000045d8       ??_C@_1M@NDBGMMJL@?$AAe?$AAs?$AA?9?$AAH?$AAN?$AA?$AA@ 000000018001e5d8     libucrt:lcidtoname_downlevel.obj
 0002:000045e8       ??_C@_1M@JIJIBHDP@?$AAe?$AAs?$AA?9?$AAN?$AAI?$AA?$AA@ 000000018001e5e8     libucrt:lcidtoname_downlevel.obj
 0002:000045f8       ??_C@_1M@CGFMKEEK@?$AAe?$AAs?$AA?9?$AAP?$AAR?$AA?$AA@ 000000018001e5f8     libucrt:lcidtoname_downlevel.obj
 0002:00004608       ??_C@_1O@ICJHKIIK@?$AAz?$AAh?$AA?9?$AAC?$AAH?$AAT?$AA?$AA@ 000000018001e608     libucrt:lcidtoname_downlevel.obj
 0002:00004618       ??_C@_15CLNEJCE@?$AAs?$AAr?$AA?$AA@ 000000018001e618     libucrt:lcidtoname_downlevel.obj
 0002:00005460       ??_C@_1M@KAHEKEIG@?$AAa?$AAf?$AA?9?$AAz?$AAa?$AA?$AA@ 000000018001f460     libucrt:lcidtoname_downlevel.obj
 0002:00005470       ??_C@_1M@GIECOABL@?$AAa?$AAr?$AA?9?$AAa?$AAe?$AA?$AA@ 000000018001f470     libucrt:lcidtoname_downlevel.obj
 0002:00005480       ??_C@_1M@BMLMEKGI@?$AAa?$AAr?$AA?9?$AAb?$AAh?$AA?$AA@ 000000018001f480     libucrt:lcidtoname_downlevel.obj
 0002:00005490       ??_C@_1M@DAPFDGGB@?$AAa?$AAr?$AA?9?$AAd?$AAz?$AA?$AA@ 000000018001f490     libucrt:lcidtoname_downlevel.obj
 0002:000054a0       ??_C@_1M@FJNKGKIG@?$AAa?$AAr?$AA?9?$AAe?$AAg?$AA?$AA@ 000000018001f4a0     libucrt:lcidtoname_downlevel.obj
 0002:000054b0       ??_C@_1M@FLGKKCLO@?$AAa?$AAr?$AA?9?$AAi?$AAq?$AA?$AA@ 000000018001f4b0     libucrt:lcidtoname_downlevel.obj
 0002:000054c0       ??_C@_1M@GNDIPALM@?$AAa?$AAr?$AA?9?$AAj?$AAo?$AA?$AA@ 000000018001f4c0     libucrt:lcidtoname_downlevel.obj
 0002:000054d0       ??_C@_1M@DDMJFMGJ@?$AAa?$AAr?$AA?9?$AAk?$AAw?$AA?$AA@ 000000018001f4d0     libucrt:lcidtoname_downlevel.obj
 0002:000054e0       ??_C@_1M@EJALMLHM@?$AAa?$AAr?$AA?9?$AAl?$AAb?$AA?$AA@ 000000018001f4e0     libucrt:lcidtoname_downlevel.obj
 0002:000054f0       ??_C@_1M@MOBDBLOC@?$AAa?$AAr?$AA?9?$AAl?$AAy?$AA?$AA@ 000000018001f4f0     libucrt:lcidtoname_downlevel.obj
 0002:00005500       ??_C@_1M@JAOCLHDH@?$AAa?$AAr?$AA?9?$AAm?$AAa?$AA?$AA@ 000000018001f500     libucrt:lcidtoname_downlevel.obj
 0002:00005510       ??_C@_1M@JHPMKJIE@?$AAa?$AAr?$AA?9?$AAo?$AAm?$AA?$AA@ 000000018001f510     libucrt:lcidtoname_downlevel.obj
 0002:00005520       ??_C@_1M@OEPGHFNH@?$AAa?$AAr?$AA?9?$AAq?$AAa?$AA?$AA@ 000000018001f520     libucrt:lcidtoname_downlevel.obj
 0002:00005530       ??_C@_1M@KJDONENM@?$AAa?$AAr?$AA?9?$AAs?$AAa?$AA?$AA@ 000000018001f530     libucrt:lcidtoname_downlevel.obj
 0002:00005540       ??_C@_1M@DMJDKLKM@?$AAa?$AAr?$AA?9?$AAs?$AAy?$AA?$AA@ 000000018001f540     libucrt:lcidtoname_downlevel.obj
 0002:00005550       ??_C@_1M@OMFIPEDC@?$AAa?$AAr?$AA?9?$AAt?$AAn?$AA?$AA@ 000000018001f550     libucrt:lcidtoname_downlevel.obj
 0002:00005560       ??_C@_1M@IHMHGAON@?$AAa?$AAr?$AA?9?$AAy?$AAe?$AA?$AA@ 000000018001f560     libucrt:lcidtoname_downlevel.obj
 0002:00005570       ??_C@_1BG@KDCPGJGB@?$AAa?$AAz?$AA?9?$AAa?$AAz?$AA?9?$AAc?$AAy?$AAr?$AAl?$AA?$AA@ 000000018001f570     libucrt:lcidtoname_downlevel.obj
 0002:00005588       ??_C@_1BG@IBCKDDOE@?$AAa?$AAz?$AA?9?$AAa?$AAz?$AA?9?$AAl?$AAa?$AAt?$AAn?$AA?$AA@ 000000018001f588     libucrt:lcidtoname_downlevel.obj
 0002:000055a0       ??_C@_1M@EGPFDCPD@?$AAb?$AAe?$AA?9?$AAb?$AAy?$AA?$AA@ 000000018001f5a0     libucrt:lcidtoname_downlevel.obj
 0002:000055b0       ??_C@_1M@PCMGMCGC@?$AAb?$AAg?$AA?9?$AAb?$AAg?$AA?$AA@ 000000018001f5b0     libucrt:lcidtoname_downlevel.obj
 0002:000055c0       ??_C@_1M@BJBMFGOB@?$AAb?$AAn?$AA?9?$AAi?$AAn?$AA?$AA@ 000000018001f5c0     libucrt:lcidtoname_downlevel.obj
 0002:000055d0       ??_C@_1BG@EAKMMACD@?$AAb?$AAs?$AA?9?$AAb?$AAa?$AA?9?$AAl?$AAa?$AAt?$AAn?$AA?$AA@ 000000018001f5d0     libucrt:lcidtoname_downlevel.obj
 0002:000055e8       ??_C@_1M@KGADAODK@?$AAc?$AAa?$AA?9?$AAe?$AAs?$AA?$AA@ 000000018001f5e8     libucrt:lcidtoname_downlevel.obj
 0002:000055f8       ??_C@_1M@COAJPDHI@?$AAc?$AAs?$AA?9?$AAc?$AAz?$AA?$AA@ 000000018001f5f8     libucrt:lcidtoname_downlevel.obj
 0002:00005608       ??_C@_1M@DHBHFONH@?$AAc?$AAy?$AA?9?$AAg?$AAb?$AA?$AA@ 000000018001f608     libucrt:lcidtoname_downlevel.obj
 0002:00005618       ??_C@_1M@IMGKELGA@?$AAd?$AAa?$AA?9?$AAd?$AAk?$AA?$AA@ 000000018001f618     libucrt:lcidtoname_downlevel.obj
 0002:00005628       ??_C@_1M@NNDGDNGA@?$AAd?$AAe?$AA?9?$AAa?$AAt?$AA?$AA@ 000000018001f628     libucrt:lcidtoname_downlevel.obj
 0002:00005638       ??_C@_1M@IKDBHEEM@?$AAd?$AAe?$AA?9?$AAc?$AAh?$AA?$AA@ 000000018001f638     libucrt:lcidtoname_downlevel.obj
 0002:00005648       ??_C@_1M@GFFOJMCJ@?$AAd?$AAe?$AA?9?$AAd?$AAe?$AA?$AA@ 000000018001f648     libucrt:lcidtoname_downlevel.obj
 0002:00005658       ??_C@_1M@MDNLKBPM@?$AAd?$AAe?$AA?9?$AAl?$AAi?$AA?$AA@ 000000018001f658     libucrt:lcidtoname_downlevel.obj
 0002:00005668       ??_C@_1M@NJBEEJNL@?$AAd?$AAe?$AA?9?$AAl?$AAu?$AA?$AA@ 000000018001f668     libucrt:lcidtoname_downlevel.obj
 0002:00005678       ??_C@_1O@GNNELBAP@?$AAd?$AAi?$AAv?$AA?9?$AAm?$AAv?$AA?$AA@ 000000018001f678     libucrt:lcidtoname_downlevel.obj
 0002:00005688       ??_C@_1M@EJLEOGAE@?$AAe?$AAl?$AA?9?$AAg?$AAr?$AA?$AA@ 000000018001f688     libucrt:lcidtoname_downlevel.obj
 0002:00005698       ??_C@_1M@GMPONJN@?$AAe?$AAn?$AA?9?$AAa?$AAu?$AA?$AA@ 000000018001f698     libucrt:lcidtoname_downlevel.obj
 0002:000056a8       ??_C@_1M@NIDIIPGF@?$AAe?$AAn?$AA?9?$AAb?$AAz?$AA?$AA@ 000000018001f6a8     libucrt:lcidtoname_downlevel.obj
 0002:000056b8       ??_C@_1M@JEHMIMFO@?$AAe?$AAn?$AA?9?$AAc?$AAa?$AA?$AA@ 000000018001f6b8     libucrt:lcidtoname_downlevel.obj
 0002:000056c8       ??_C@_1M@IGMJCDLA@?$AAe?$AAn?$AA?9?$AAc?$AAb?$AA?$AA@ 000000018001f6c8     libucrt:lcidtoname_downlevel.obj
 0002:000056d8       ??_C@_1M@BNFIGBKG@?$AAe?$AAn?$AA?9?$AAg?$AAb?$AA?$AA@ 000000018001f6d8     libucrt:lcidtoname_downlevel.obj
 0002:000056e8       ??_C@_1M@LKIFDIGP@?$AAe?$AAn?$AA?9?$AAi?$AAe?$AA?$AA@ 000000018001f6e8     libucrt:lcidtoname_downlevel.obj
 0002:000056f8       ??_C@_1M@PJKFGCCO@?$AAe?$AAn?$AA?9?$AAj?$AAm?$AA?$AA@ 000000018001f6f8     libucrt:lcidtoname_downlevel.obj
 0002:00005708       ??_C@_1M@KPPKEPBO@?$AAe?$AAn?$AA?9?$AAn?$AAz?$AA?$AA@ 000000018001f708     libucrt:lcidtoname_downlevel.obj
 0002:00005718       ??_C@_1M@GMDGLDOB@?$AAe?$AAn?$AA?9?$AAp?$AAh?$AA?$AA@ 000000018001f718     libucrt:lcidtoname_downlevel.obj
 0002:00005728       ??_C@_1M@ONGIBJNA@?$AAe?$AAn?$AA?9?$AAt?$AAt?$AA?$AA@ 000000018001f728     libucrt:lcidtoname_downlevel.obj
 0002:00005738       ??_C@_1M@LLODPCMM@?$AAe?$AAn?$AA?9?$AAu?$AAs?$AA?$AA@ 000000018001f738     libucrt:lcidtoname_downlevel.obj
 0002:00005748       ??_C@_1M@LAKFNPAN@?$AAe?$AAn?$AA?9?$AAz?$AAa?$AA?$AA@ 000000018001f748     libucrt:lcidtoname_downlevel.obj
 0002:00005758       ??_C@_1M@MFNHNHEO@?$AAe?$AAn?$AA?9?$AAz?$AAw?$AA?$AA@ 000000018001f758     libucrt:lcidtoname_downlevel.obj
 0002:00005768       ??_C@_1M@EJEINPHM@?$AAe?$AAs?$AA?9?$AAa?$AAr?$AA?$AA@ 000000018001f768     libucrt:lcidtoname_downlevel.obj
 0002:00005778       ??_C@_1M@GNKPCCJA@?$AAe?$AAs?$AA?9?$AAb?$AAo?$AA?$AA@ 000000018001f778     libucrt:lcidtoname_downlevel.obj
 0002:00005788       ??_C@_1M@LEEGFONL@?$AAe?$AAs?$AA?9?$AAc?$AAl?$AA?$AA@ 000000018001f788     libucrt:lcidtoname_downlevel.obj
 0002:00005798       ??_C@_1M@KGPDPBDF@?$AAe?$AAs?$AA?9?$AAc?$AAo?$AA?$AA@ 000000018001f798     libucrt:lcidtoname_downlevel.obj
 0002:000057a8       ??_C@_1M@EIAHOHH@?$AAe?$AAs?$AA?9?$AAc?$AAr?$AA?$AA@ 000000018001f7a8     libucrt:lcidtoname_downlevel.obj
 0002:000057b8       ??_C@_1M@LLPGMBIN@?$AAe?$AAs?$AA?9?$AAd?$AAo?$AA?$AA@ 000000018001f7b8     libucrt:lcidtoname_downlevel.obj
 0002:000057c8       ??_C@_1M@DKHMKNJA@?$AAe?$AAs?$AA?9?$AAe?$AAc?$AA?$AA@ 000000018001f7c8     libucrt:lcidtoname_downlevel.obj
 0002:000057d8       ??_C@_1M@GKGFPKAP@?$AAe?$AAs?$AA?9?$AAe?$AAs?$AA?$AA@ 000000018001f7d8     libucrt:lcidtoname_downlevel.obj
 0002:000057e8       ??_C@_1M@LKHKGDLN@?$AAe?$AAs?$AA?9?$AAg?$AAt?$AA?$AA@ 000000018001f7e8     libucrt:lcidtoname_downlevel.obj
 0002:000057f8       ??_C@_1M@HEIIGGJD@?$AAe?$AAs?$AA?9?$AAh?$AAn?$AA?$AA@ 000000018001f7f8     libucrt:lcidtoname_downlevel.obj
 0002:00005808       ??_C@_1M@FBDHPPGD@?$AAe?$AAs?$AA?9?$AAm?$AAx?$AA?$AA@ 000000018001f808     libucrt:lcidtoname_downlevel.obj
 0002:00005818       ??_C@_1M@DPAGLNDH@?$AAe?$AAs?$AA?9?$AAn?$AAi?$AA?$AA@ 000000018001f818     libucrt:lcidtoname_downlevel.obj
 0002:00005828       ??_C@_1M@MDGOPGDD@?$AAe?$AAs?$AA?9?$AAp?$AAa?$AA?$AA@ 000000018001f828     libucrt:lcidtoname_downlevel.obj
 0002:00005838       ??_C@_1M@EMAMGBGE@?$AAe?$AAs?$AA?9?$AAp?$AAe?$AA?$AA@ 000000018001f838     libucrt:lcidtoname_downlevel.obj
 0002:00005848       ??_C@_1M@IBMCAOEC@?$AAe?$AAs?$AA?9?$AAp?$AAr?$AA?$AA@ 000000018001f848     libucrt:lcidtoname_downlevel.obj
 0002:00005858       ??_C@_1M@FGMDIJED@?$AAe?$AAs?$AA?9?$AAp?$AAy?$AA?$AA@ 000000018001f858     libucrt:lcidtoname_downlevel.obj
 0002:00005868       ??_C@_1M@IIDEOLLL@?$AAe?$AAs?$AA?9?$AAs?$AAv?$AA?$AA@ 000000018001f868     libucrt:lcidtoname_downlevel.obj
 0002:00005878       ??_C@_1M@GAOBIPA@?$AAe?$AAs?$AA?9?$AAu?$AAy?$AA?$AA@ 000000018001f878     libucrt:lcidtoname_downlevel.obj
 0002:00005888       ??_C@_1M@JKFFICHJ@?$AAe?$AAs?$AA?9?$AAv?$AAe?$AA?$AA@ 000000018001f888     libucrt:lcidtoname_downlevel.obj
 0002:00005898       ??_C@_1M@PNMLOJDF@?$AAe?$AAt?$AA?9?$AAe?$AAe?$AA?$AA@ 000000018001f898     libucrt:lcidtoname_downlevel.obj
 0002:000058a8       ??_C@_1M@GHHLIKEI@?$AAe?$AAu?$AA?9?$AAe?$AAs?$AA?$AA@ 000000018001f8a8     libucrt:lcidtoname_downlevel.obj
 0002:000058b8       ??_C@_1M@PBNONODE@?$AAf?$AAa?$AA?9?$AAi?$AAr?$AA?$AA@ 000000018001f8b8     libucrt:lcidtoname_downlevel.obj
 0002:000058c8       ??_C@_1M@JEEHPMIL@?$AAf?$AAi?$AA?9?$AAf?$AAi?$AA?$AA@ 000000018001f8c8     libucrt:lcidtoname_downlevel.obj
 0002:000058d8       ??_C@_1M@LMDCNDBA@?$AAf?$AAo?$AA?9?$AAf?$AAo?$AA?$AA@ 000000018001f8d8     libucrt:lcidtoname_downlevel.obj
 0002:000058e8       ??_C@_1M@JKEOHLDK@?$AAf?$AAr?$AA?9?$AAb?$AAe?$AA?$AA@ 000000018001f8e8     libucrt:lcidtoname_downlevel.obj
 0002:000058f8       ??_C@_1M@NOHADPMI@?$AAf?$AAr?$AA?9?$AAc?$AAa?$AA?$AA@ 000000018001f8f8     libucrt:lcidtoname_downlevel.obj
 0002:00005908       ??_C@_1M@KDHIHAEC@?$AAf?$AAr?$AA?9?$AAc?$AAh?$AA?$AA@ 000000018001f908     libucrt:lcidtoname_downlevel.obj
 0002:00005918       ??_C@_1M@MMBBFGAK@?$AAf?$AAr?$AA?9?$AAf?$AAr?$AA?$AA@ 000000018001f918     libucrt:lcidtoname_downlevel.obj
 0002:00005928       ??_C@_1M@PAFNENNF@?$AAf?$AAr?$AA?9?$AAl?$AAu?$AA?$AA@ 000000018001f928     libucrt:lcidtoname_downlevel.obj
 0002:00005938       ??_C@_1M@EOHDJGDD@?$AAf?$AAr?$AA?9?$AAm?$AAc?$AA?$AA@ 000000018001f938     libucrt:lcidtoname_downlevel.obj
 0002:00005948       ??_C@_1M@FAPLLOPF@?$AAg?$AAl?$AA?9?$AAe?$AAs?$AA?$AA@ 000000018001f948     libucrt:lcidtoname_downlevel.obj
 0002:00005958       ??_C@_1M@FOPBFLOO@?$AAg?$AAu?$AA?9?$AAi?$AAn?$AA?$AA@ 000000018001f958     libucrt:lcidtoname_downlevel.obj
 0002:00005968       ??_C@_1M@KBMCINPM@?$AAh?$AAe?$AA?9?$AAi?$AAl?$AA?$AA@ 000000018001f968     libucrt:lcidtoname_downlevel.obj
 0002:00005978       ??_C@_1M@BBPHKFPJ@?$AAh?$AAi?$AA?9?$AAi?$AAn?$AA?$AA@ 000000018001f978     libucrt:lcidtoname_downlevel.obj
 0002:00005988       ??_C@_1M@PMBNDPHD@?$AAh?$AAr?$AA?9?$AAb?$AAa?$AA?$AA@ 000000018001f988     libucrt:lcidtoname_downlevel.obj
 0002:00005998       ??_C@_1M@BPCKOEGE@?$AAh?$AAr?$AA?9?$AAh?$AAr?$AA?$AA@ 000000018001f998     libucrt:lcidtoname_downlevel.obj
 0002:000059a8       ??_C@_1M@GACBMHKE@?$AAh?$AAu?$AA?9?$AAh?$AAu?$AA?$AA@ 000000018001f9a8     libucrt:lcidtoname_downlevel.obj
 0002:000059b8       ??_C@_1M@MILPAJJC@?$AAh?$AAy?$AA?9?$AAa?$AAm?$AA?$AA@ 000000018001f9b8     libucrt:lcidtoname_downlevel.obj
 0002:000059c8       ??_C@_1M@BABBICEC@?$AAi?$AAd?$AA?9?$AAi?$AAd?$AA?$AA@ 000000018001f9c8     libucrt:lcidtoname_downlevel.obj
 0002:000059d8       ??_C@_1M@BIKNHHPF@?$AAi?$AAs?$AA?9?$AAi?$AAs?$AA?$AA@ 000000018001f9d8     libucrt:lcidtoname_downlevel.obj
 0002:000059e8       ??_C@_1M@NMPCJPHE@?$AAi?$AAt?$AA?9?$AAc?$AAh?$AA?$AA@ 000000018001f9e8     libucrt:lcidtoname_downlevel.obj
 0002:000059f8       ??_C@_1M@GHKGFEDF@?$AAi?$AAt?$AA?9?$AAi?$AAt?$AA?$AA@ 000000018001f9f8     libucrt:lcidtoname_downlevel.obj
 0002:00005a08       ??_C@_1M@NIEJCJJA@?$AAj?$AAa?$AA?9?$AAj?$AAp?$AA?$AA@ 000000018001fa08     libucrt:lcidtoname_downlevel.obj
 0002:00005a18       ??_C@_1M@JILFNBIM@?$AAk?$AAa?$AA?9?$AAg?$AAe?$AA?$AA@ 000000018001fa18     libucrt:lcidtoname_downlevel.obj
 0002:00005a28       ??_C@_1M@PACPMGPH@?$AAk?$AAk?$AA?9?$AAk?$AAz?$AA?$AA@ 000000018001fa28     libucrt:lcidtoname_downlevel.obj
 0002:00005a38       ??_C@_1M@IELFGMHA@?$AAk?$AAn?$AA?9?$AAi?$AAn?$AA?$AA@ 000000018001fa38     libucrt:lcidtoname_downlevel.obj
 0002:00005a48       ??_C@_1O@IBBJHCH@?$AAk?$AAo?$AAk?$AA?9?$AAi?$AAn?$AA?$AA@ 000000018001fa48     libucrt:lcidtoname_downlevel.obj
 0002:00005a58       ??_C@_1M@DMHAEOGC@?$AAk?$AAo?$AA?9?$AAk?$AAr?$AA?$AA@ 000000018001fa58     libucrt:lcidtoname_downlevel.obj
 0002:00005a68       ??_C@_1M@HBAHBIGA@?$AAk?$AAy?$AA?9?$AAk?$AAg?$AA?$AA@ 000000018001fa68     libucrt:lcidtoname_downlevel.obj
 0002:00005a78       ??_C@_1M@KPMILCJG@?$AAl?$AAt?$AA?9?$AAl?$AAt?$AA?$AA@ 000000018001fa78     libucrt:lcidtoname_downlevel.obj
 0002:00005a88       ??_C@_1M@BDEKKCA@?$AAl?$AAv?$AA?9?$AAl?$AAv?$AA?$AA@ 000000018001fa88     libucrt:lcidtoname_downlevel.obj
 0002:00005a98       ??_C@_1M@ELCKCCJJ@?$AAm?$AAi?$AA?9?$AAn?$AAz?$AA?$AA@ 000000018001fa98     libucrt:lcidtoname_downlevel.obj
 0002:00005aa8       ??_C@_1M@CBOOLAPA@?$AAm?$AAk?$AA?9?$AAm?$AAk?$AA?$AA@ 000000018001faa8     libucrt:lcidtoname_downlevel.obj
 0002:00005ab8       ??_C@_1M@GPHNBJKN@?$AAm?$AAl?$AA?9?$AAi?$AAn?$AA?$AA@ 000000018001fab8     libucrt:lcidtoname_downlevel.obj
 0002:00005ac8       ??_C@_1M@PABJILIG@?$AAm?$AAn?$AA?9?$AAm?$AAn?$AA?$AA@ 000000018001fac8     libucrt:lcidtoname_downlevel.obj
 0002:00005ad8       ??_C@_1M@FGBKKIPG@?$AAm?$AAr?$AA?9?$AAi?$AAn?$AA?$AA@ 000000018001fad8     libucrt:lcidtoname_downlevel.obj
 0002:00005ae8       ??_C@_1M@NDBPDDAL@?$AAm?$AAs?$AA?9?$AAb?$AAn?$AA?$AA@ 000000018001fae8     libucrt:lcidtoname_downlevel.obj
 0002:00005af8       ??_C@_1M@OPIHOOPI@?$AAm?$AAs?$AA?9?$AAm?$AAy?$AA?$AA@ 000000018001faf8     libucrt:lcidtoname_downlevel.obj
 0002:00005b08       ??_C@_1M@PPDBCNFM@?$AAm?$AAt?$AA?9?$AAm?$AAt?$AA?$AA@ 000000018001fb08     libucrt:lcidtoname_downlevel.obj
 0002:00005b18       ??_C@_1M@KDJDKMDD@?$AAn?$AAb?$AA?9?$AAn?$AAo?$AA?$AA@ 000000018001fb18     libucrt:lcidtoname_downlevel.obj
 0002:00005b28       ??_C@_1M@KFCFLMJP@?$AAn?$AAl?$AA?9?$AAb?$AAe?$AA?$AA@ 000000018001fb28     libucrt:lcidtoname_downlevel.obj
 0002:00005b38       ??_C@_1M@KPOPDDGO@?$AAn?$AAl?$AA?9?$AAn?$AAl?$AA?$AA@ 000000018001fb38     libucrt:lcidtoname_downlevel.obj
 0002:00005b48       ??_C@_1M@LJKPEMLN@?$AAn?$AAn?$AA?9?$AAn?$AAo?$AA?$AA@ 000000018001fb48     libucrt:lcidtoname_downlevel.obj
 0002:00005b58       ??_C@_1M@BDGHHBFL@?$AAn?$AAs?$AA?9?$AAz?$AAa?$AA?$AA@ 000000018001fb58     libucrt:lcidtoname_downlevel.obj
 0002:00005b68       ??_C@_1M@IDEHOAP@?$AAp?$AAa?$AA?9?$AAi?$AAn?$AA?$AA@ 000000018001fb68     libucrt:lcidtoname_downlevel.obj
 0002:00005b78       ??_C@_1M@HDBKGOGH@?$AAp?$AAl?$AA?9?$AAp?$AAl?$AA?$AA@ 000000018001fb78     libucrt:lcidtoname_downlevel.obj
 0002:00005b88       ??_C@_1M@LJLLCMEH@?$AAp?$AAt?$AA?9?$AAb?$AAr?$AA?$AA@ 000000018001fb88     libucrt:lcidtoname_downlevel.obj
 0002:00005b98       ??_C@_1M@NCMONAAL@?$AAp?$AAt?$AA?9?$AAp?$AAt?$AA?$AA@ 000000018001fb98     libucrt:lcidtoname_downlevel.obj
 0002:00005ba8       ??_C@_1O@EAKMAJDN@?$AAq?$AAu?$AAz?$AA?9?$AAb?$AAo?$AA?$AA@ 000000018001fba8     libucrt:lcidtoname_downlevel.obj
 0002:00005bb8       ??_C@_1O@BHHPIGDN@?$AAq?$AAu?$AAz?$AA?9?$AAe?$AAc?$AA?$AA@ 000000018001fbb8     libucrt:lcidtoname_downlevel.obj
 0002:00005bc8       ??_C@_1O@GBAPEKMJ@?$AAq?$AAu?$AAz?$AA?9?$AAp?$AAe?$AA?$AA@ 000000018001fbc8     libucrt:lcidtoname_downlevel.obj
 0002:00005bd8       ??_C@_1M@CLGLEFBO@?$AAr?$AAo?$AA?9?$AAr?$AAo?$AA?$AA@ 000000018001fbd8     libucrt:lcidtoname_downlevel.obj
 0002:00005be8       ??_C@_1M@CEEDODME@?$AAr?$AAu?$AA?9?$AAr?$AAu?$AA?$AA@ 000000018001fbe8     libucrt:lcidtoname_downlevel.obj
 0002:00005bf8       ??_C@_1M@HPKKKMPP@?$AAs?$AAa?$AA?9?$AAi?$AAn?$AA?$AA@ 000000018001fbf8     libucrt:lcidtoname_downlevel.obj
 0002:00005c08       ??_C@_1M@BKMAIGOJ@?$AAs?$AAe?$AA?9?$AAf?$AAi?$AA?$AA@ 000000018001fc08     libucrt:lcidtoname_downlevel.obj
 0002:00005c18       ??_C@_1M@NDPIFLFI@?$AAs?$AAe?$AA?9?$AAn?$AAo?$AA?$AA@ 000000018001fc18     libucrt:lcidtoname_downlevel.obj
 0002:00005c28       ??_C@_1M@DANKKHJ@?$AAs?$AAe?$AA?9?$AAs?$AAe?$AA?$AA@ 000000018001fc28     libucrt:lcidtoname_downlevel.obj
 0002:00005c38       ??_C@_1M@PNBLONPJ@?$AAs?$AAk?$AA?9?$AAs?$AAk?$AA?$AA@ 000000018001fc38     libucrt:lcidtoname_downlevel.obj
 0002:00005c48       ??_C@_1M@LFMODOAL@?$AAs?$AAl?$AA?9?$AAs?$AAi?$AA?$AA@ 000000018001fc48     libucrt:lcidtoname_downlevel.obj
 0002:00005c58       ??_C@_1O@DFKOMPG@?$AAs?$AAm?$AAa?$AA?9?$AAn?$AAo?$AA?$AA@ 000000018001fc58     libucrt:lcidtoname_downlevel.obj
 0002:00005c68       ??_C@_1O@NDKPBNNH@?$AAs?$AAm?$AAa?$AA?9?$AAs?$AAe?$AA?$AA@ 000000018001fc68     libucrt:lcidtoname_downlevel.obj
 0002:00005c78       ??_C@_1O@PLLKBHAB@?$AAs?$AAm?$AAj?$AA?9?$AAn?$AAo?$AA?$AA@ 000000018001fc78     libucrt:lcidtoname_downlevel.obj
 0002:00005c88       ??_C@_1O@CLEPOGCA@?$AAs?$AAm?$AAj?$AA?9?$AAs?$AAe?$AA?$AA@ 000000018001fc88     libucrt:lcidtoname_downlevel.obj
 0002:00005c98       ??_C@_1O@DLGJGKMK@?$AAs?$AAm?$AAn?$AA?9?$AAf?$AAi?$AA?$AA@ 000000018001fc98     libucrt:lcidtoname_downlevel.obj
 0002:00005ca8       ??_C@_1O@OJDJGAJC@?$AAs?$AAm?$AAs?$AA?9?$AAf?$AAi?$AA?$AA@ 000000018001fca8     libucrt:lcidtoname_downlevel.obj
 0002:00005cb8       ??_C@_1M@BOFOGHPB@?$AAs?$AAq?$AA?9?$AAa?$AAl?$AA?$AA@ 000000018001fcb8     libucrt:lcidtoname_downlevel.obj
 0002:00005cc8       ??_C@_1BG@LJBBIPGB@?$AAs?$AAr?$AA?9?$AAb?$AAa?$AA?9?$AAc?$AAy?$AAr?$AAl?$AA?$AA@ 000000018001fcc8     libucrt:lcidtoname_downlevel.obj
 0002:00005ce0       ??_C@_1BG@JLBENFOE@?$AAs?$AAr?$AA?9?$AAb?$AAa?$AA?9?$AAl?$AAa?$AAt?$AAn?$AA?$AA@ 000000018001fce0     libucrt:lcidtoname_downlevel.obj
 0002:00005cf8       ??_C@_1BG@KODPNHE@?$AAs?$AAr?$AA?9?$AAs?$AAp?$AA?9?$AAc?$AAy?$AAr?$AAl?$AA?$AA@ 000000018001fcf8     libucrt:lcidtoname_downlevel.obj
 0002:00005d10       ??_C@_1BG@CIOGKHPB@?$AAs?$AAr?$AA?9?$AAs?$AAp?$AA?9?$AAl?$AAa?$AAt?$AAn?$AA?$AA@ 000000018001fd10     libucrt:lcidtoname_downlevel.obj
 0002:00005d28       ??_C@_1M@NGFJLMAC@?$AAs?$AAv?$AA?9?$AAf?$AAi?$AA?$AA@ 000000018001fd28     libucrt:lcidtoname_downlevel.obj
 0002:00005d38       ??_C@_1M@MPJEJAJC@?$AAs?$AAv?$AA?9?$AAs?$AAe?$AA?$AA@ 000000018001fd38     libucrt:lcidtoname_downlevel.obj
 0002:00005d48       ??_C@_1M@MPNDHLFK@?$AAs?$AAw?$AA?9?$AAk?$AAe?$AA?$AA@ 000000018001fd48     libucrt:lcidtoname_downlevel.obj
 0002:00005d58       ??_C@_1O@KOHBJJI@?$AAs?$AAy?$AAr?$AA?9?$AAs?$AAy?$AA?$AA@ 000000018001fd58     libucrt:lcidtoname_downlevel.obj
 0002:00005d68       ??_C@_1M@LDCEFHA@?$AAt?$AAa?$AA?9?$AAi?$AAn?$AA?$AA@ 000000018001fd68     libucrt:lcidtoname_downlevel.obj
 0002:00005d78       ??_C@_1M@CNJOFAK@?$AAt?$AAe?$AA?9?$AAi?$AAn?$AA?$AA@ 000000018001fd78     libucrt:lcidtoname_downlevel.obj
 0002:00005d88       ??_C@_1M@GNAECACD@?$AAt?$AAh?$AA?9?$AAt?$AAh?$AA?$AA@ 000000018001fd88     libucrt:lcidtoname_downlevel.obj
 0002:00005d98       ??_C@_1M@CHBIHOJO@?$AAt?$AAn?$AA?9?$AAz?$AAa?$AA?$AA@ 000000018001fd98     libucrt:lcidtoname_downlevel.obj
 0002:00005da8       ??_C@_1M@GCCMIGPJ@?$AAt?$AAr?$AA?9?$AAt?$AAr?$AA?$AA@ 000000018001fda8     libucrt:lcidtoname_downlevel.obj
 0002:00005db8       ??_C@_1M@CELMCNBK@?$AAt?$AAt?$AA?9?$AAr?$AAu?$AA?$AA@ 000000018001fdb8     libucrt:lcidtoname_downlevel.obj
 0002:00005dc8       ??_C@_1M@KLMCELGA@?$AAu?$AAk?$AA?9?$AAu?$AAa?$AA?$AA@ 000000018001fdc8     libucrt:lcidtoname_downlevel.obj
 0002:00005dd8       ??_C@_1M@EPAJJAJF@?$AAu?$AAr?$AA?9?$AAp?$AAk?$AA?$AA@ 000000018001fdd8     libucrt:lcidtoname_downlevel.obj
 0002:00005de8       ??_C@_1BG@GEGPMCDJ@?$AAu?$AAz?$AA?9?$AAu?$AAz?$AA?9?$AAc?$AAy?$AAr?$AAl?$AA?$AA@ 000000018001fde8     libucrt:lcidtoname_downlevel.obj
 0002:00005e00       ??_C@_1BG@EGGKJILM@?$AAu?$AAz?$AA?9?$AAu?$AAz?$AA?9?$AAl?$AAa?$AAt?$AAn?$AA?$AA@ 000000018001fe00     libucrt:lcidtoname_downlevel.obj
 0002:00005e18       ??_C@_1M@GFOCLFF@?$AAv?$AAi?$AA?9?$AAv?$AAn?$AA?$AA@ 000000018001fe18     libucrt:lcidtoname_downlevel.obj
 0002:00005e28       ??_C@_1M@CPAMEDFI@?$AAx?$AAh?$AA?9?$AAz?$AAa?$AA?$AA@ 000000018001fe28     libucrt:lcidtoname_downlevel.obj
 0002:00005e38       ??_C@_1O@EBKIFIGN@?$AAz?$AAh?$AA?9?$AAc?$AAh?$AAs?$AA?$AA@ 000000018001fe38     libucrt:lcidtoname_downlevel.obj
 0002:00005e48       ??_C@_1O@NMHPGANE@?$AAz?$AAh?$AA?9?$AAc?$AAh?$AAt?$AA?$AA@ 000000018001fe48     libucrt:lcidtoname_downlevel.obj
 0002:00005e58       ??_C@_1M@LPINJOMC@?$AAz?$AAh?$AA?9?$AAc?$AAn?$AA?$AA@ 000000018001fe58     libucrt:lcidtoname_downlevel.obj
 0002:00005e68       ??_C@_1M@OCJEJODD@?$AAz?$AAh?$AA?9?$AAh?$AAk?$AA?$AA@ 000000018001fe68     libucrt:lcidtoname_downlevel.obj
 0002:00005e78       ??_C@_1M@DNDLJINH@?$AAz?$AAh?$AA?9?$AAm?$AAo?$AA?$AA@ 000000018001fe78     libucrt:lcidtoname_downlevel.obj
 0002:00005e88       ??_C@_1M@MBFDNDND@?$AAz?$AAh?$AA?9?$AAs?$AAg?$AA?$AA@ 000000018001fe88     libucrt:lcidtoname_downlevel.obj
 0002:00005e98       ??_C@_1M@IMEPLEPE@?$AAz?$AAh?$AA?9?$AAt?$AAw?$AA?$AA@ 000000018001fe98     libucrt:lcidtoname_downlevel.obj
 0002:00005ea8       ??_C@_1M@BBGHNHJP@?$AAz?$AAu?$AA?9?$AAz?$AAa?$AA?$AA@ 000000018001fea8     libucrt:lcidtoname_downlevel.obj
 0002:00005ec0       ?large_power_data@?1??multiply_by_power_of_ten@__crt_strtox@@YA_NAEAUbig_integer@2@I@Z@4QBIB 000000018001fec0     libucrt:cfout.obj
 0002:000067d0       ?large_power_indices@?1??multiply_by_power_of_ten@__crt_strtox@@YA_NAEAUbig_integer@2@I@Z@4QBUunpack_index@?1??12@YA_N0I@Z@B 00000001800207d0     libucrt:cfout.obj
 0002:00006868       ?small_powers_of_ten@?6??multiply_by_power_of_ten@__crt_strtox@@YA_NAEAUbig_integer@2@I@Z@4QBIB 0000000180020868     libucrt:cfout.obj
 0002:0000688c       ??_C@_01GBGANLPD@0?$AA@    000000018002088c     libucrt:cfout.obj
 0002:00006890       ??_C@_05DNEBIAHO@1?$CDINF?$AA@ 0000000180020890     libucrt:cfout.obj
 0002:00006898       ??_C@_06IMKFLFPG@1?$CDQNAN?$AA@ 0000000180020898     libucrt:cfout.obj
 0002:000068a0       ??_C@_06PGGFOGJG@1?$CDSNAN?$AA@ 00000001800208a0     libucrt:cfout.obj
 0002:000068a8       ??_C@_05PHHOCPM@1?$CDIND?$AA@ 00000001800208a8     libucrt:cfout.obj
 0002:000068b0       __real@3ff0000000000000    00000001800208b0     libucrt:ceil.obj
 0002:00006b10       ??_C@_1BA@BALFACEM@?$AAC?$AAO?$AAN?$AAO?$AAU?$AAT?$AA$?$AA?$AA@ 0000000180020b10     libucrt:initcon.obj
 0002:00006b20       __log10_256_lead           0000000180020b20     libucrt:log10_256_lead_tail_table.obj
 0002:00007330       __log10_256_tail           0000000180021330     libucrt:log10_256_lead_tail_table.obj
 0002:00007b40       __log_F_inv_qword          0000000180021b40     libucrt:log_f_inv_qword_table.obj
 0002:00008350       ??_C@_05HGHHAHAP@log10?$AA@ 0000000180022350     libucrt:log_special.obj
 0002:00008370       ??_C@_1BK@DBDEIDLH@?$AAK?$AAE?$AAR?$AAN?$AAE?$AAL?$AA3?$AA2?$AA?4?$AAD?$AAL?$AAL?$AA?$AA@ 0000000180022370     DelayImp:delayhlp.obj
 0002:00008390       ??_C@_0BI@OMNLIJDB@AcquireSRWLockExclusive?$AA@ 0000000180022390     DelayImp:delayhlp.obj
 0002:000083a8       ??_C@_0BI@HMIEPCNJ@ReleaseSRWLockExclusive?$AA@ 00000001800223a8     DelayImp:delayhlp.obj
 0002:000083c0       _load_config_used          00000001800223c0     LIBCMT:loadcfg.obj
 0002:00008460       ??_C@_1KG@OPHGPDME@?$AAC?$AA?3?$AA?2?$AAU?$AAs?$AAe?$AAr?$AAs?$AA?2?$AAm?$AAi?$AAl?$AAz?$AAo?$AAl?$AAi?$AA?2?$AAD?$AAo?$AAc?$AAu?$AAm?$AAe?$AAn?$AAt?$AAs?$AA?2?$AAP?$AAr?$AAo?$AAj?$AAe@ 0000000180022460     binding.obj
 0002:00008510       ??_C@_1GA@PFOOBIAG@?$AAl?$AAe?$AAn?$AAg?$AAt?$AAh?$AA?5?$AA?$DM?$AA?$DN?$AA?5?$AAi?$AAm?$AAp?$AA?3?$AA?3?$AAk?$AAM?$AAa?$AAx?$AAL?$AAe?$AAn?$AAg?$AAt?$AAh?$AA?5?$AA?$CG?$AA?$CG?$AA?5?$AA?$CC?$AAt?$AAo@ 0000000180022510     binding.obj
 0002:00008570       ??_C@_0BG@OLIPIHCP@sizeof_ogg_sync_state?$AA@ 0000000180022570     binding.obj
 0002:00008588       ??_C@_0BI@JOOLNMFC@sizeof_ogg_stream_state?$AA@ 0000000180022588     binding.obj
 0002:000085a0       ??_C@_0BA@JFPNIOOJ@sizeof_ogg_page?$AA@ 00000001800225a0     binding.obj
 0002:000085b0       ??_C@_0BC@JFKMBHLF@sizeof_ogg_packet?$AA@ 00000001800225b0     binding.obj
 0002:000085c8       ??_C@_0O@LABGABBD@ogg_sync_init?$AA@ 00000001800225c8     binding.obj
 0002:000085d8       ??_C@_0P@EINBFF@ogg_sync_write?$AA@ 00000001800225d8     binding.obj
 0002:000085e8       ??_C@_0BB@HLLFONDO@ogg_sync_pageout?$AA@ 00000001800225e8     binding.obj
 0002:00008600       ??_C@_0BA@LCLNOAL@ogg_stream_init?$AA@ 0000000180022600     binding.obj
 0002:00008610       ??_C@_0BC@GKGCHOOG@ogg_stream_pagein?$AA@ 0000000180022610     binding.obj
 0002:00008628       ??_C@_0BF@EMKEDDJH@ogg_stream_packetout?$AA@ 0000000180022628     binding.obj
 0002:00008640       ??_C@_0BE@DHPAMLCM@ogg_stream_packetin?$AA@ 0000000180022640     binding.obj
 0002:00008658       ??_C@_0BD@DHEIIKIM@ogg_stream_pageout?$AA@ 0000000180022658     binding.obj
 0002:00008670       ??_C@_0BB@KOOLAMOO@ogg_stream_flush?$AA@ 0000000180022670     binding.obj
 0002:00008688       ??_C@_0BD@MNOOFFIM@ogg_page_to_buffer?$AA@ 0000000180022688     binding.obj
 0002:000086a0       ??_C@_0BG@PEAPLCAJ@ogg_packet_set_packet?$AA@ 00000001800226a0     binding.obj
 0002:000086b8       ??_C@_0BG@OKCAAFEA@ogg_packet_get_packet?$AA@ 00000001800226b8     binding.obj
 0002:000086d0       ??_C@_0BB@PCIDIDKB@ogg_packet_bytes?$AA@ 00000001800226d0     binding.obj
 0002:000086e8       ??_C@_0BB@BCOGOJNN@ogg_packet_b_o_s?$AA@ 00000001800226e8     binding.obj
 0002:00008700       ??_C@_0BB@PODNJGF@ogg_packet_e_o_s?$AA@ 0000000180022700     binding.obj
 0002:00008718       ??_C@_0BG@CEEKMBFK@ogg_packet_granulepos?$AA@ 0000000180022718     binding.obj
 0002:00008730       ??_C@_0BE@KCGPGJEF@ogg_packet_packetno?$AA@ 0000000180022730     binding.obj
 0002:00008748       ??_C@_0BK@NAKOCACJ@ogg_packet_replace_buffer?$AA@ 0000000180022748     binding.obj
 0002:00008768       ??_C@_0BC@OMDPIAIO@?4?4?2src?2binding?4cc?$AA@ 0000000180022768     binding.obj
 0002:0000877c       ??_C@_03NKNKOHHD@ogg?$AA@  000000018002277c     binding.obj
 0002:00008780       ??_7AsyncWorker@Nan@@6B@   0000000180022780     binding.obj
 0002:000087b0       ??_7OggStreamPacketinWorker@nodeogg@@6B@ 00000001800227b0     binding.obj
 0002:000087e0       ??_7OggStreamPageinWorker@nodeogg@@6B@ 00000001800227e0     binding.obj
 0002:00008810       ??_7OggStreamPacketoutWorker@nodeogg@@6B@ 0000000180022810     binding.obj
 0002:00008840       ??_7OggSyncWriteWorker@nodeogg@@6B@ 0000000180022840     binding.obj
 0002:00008870       ??_7OggSyncPageoutWorker@nodeogg@@6B@ 0000000180022870     binding.obj
 0002:000088a0       ??_7StreamFlushWorker@nodeogg@@6B@ 00000001800228a0     binding.obj
 0002:000088d0       ??_7StreamPageoutWorker@nodeogg@@6B@ 00000001800228d0     binding.obj
 0002:00008900       ??_C@_08HCOMDCCD@iojs?4exe?$AA@ 0000000180022900     win_delay_load_hook.obj
 0002:00008910       ??_C@_08JDDNMFDB@node?4exe?$AA@ 0000000180022910     win_delay_load_hook.obj
 0002:0000891c       ??_C@_04JJIBNLPC@OggS?$AA@ 000000018002291c     libogg:framing.obj
 0002:00008e38       ??_R4exception@std@@6B@    0000000180022e38     LIBCMT:throw_bad_alloc.obj
 0002:00008e60       ??_R3exception@std@@8      0000000180022e60     LIBCMT:throw_bad_alloc.obj
 0002:00008e78       ??_R2exception@std@@8      0000000180022e78     LIBCMT:throw_bad_alloc.obj
 0002:00008e88       ??_R1A@?0A@EA@exception@std@@8 0000000180022e88     LIBCMT:throw_bad_alloc.obj
 0002:00008eb0       ??_R4bad_alloc@std@@6B@    0000000180022eb0     LIBCMT:throw_bad_alloc.obj
 0002:00008ed8       ??_R3bad_alloc@std@@8      0000000180022ed8     LIBCMT:throw_bad_alloc.obj
 0002:00008ef0       ??_R2bad_alloc@std@@8      0000000180022ef0     LIBCMT:throw_bad_alloc.obj
 0002:00008f08       ??_R1A@?0A@EA@bad_alloc@std@@8 0000000180022f08     LIBCMT:throw_bad_alloc.obj
 0002:00008f30       ??_R4bad_array_new_length@std@@6B@ 0000000180022f30     LIBCMT:throw_bad_alloc.obj
 0002:00008f58       ??_R3bad_array_new_length@std@@8 0000000180022f58     LIBCMT:throw_bad_alloc.obj
 0002:00008f70       ??_R2bad_array_new_length@std@@8 0000000180022f70     LIBCMT:throw_bad_alloc.obj
 0002:00008f90       ??_R1A@?0A@EA@bad_array_new_length@std@@8 0000000180022f90     LIBCMT:throw_bad_alloc.obj
 0002:00008fb8       ??_R4type_info@@6B@        0000000180022fb8     LIBCMT:std_type_info_static.obj
 0002:00008fe0       ??_R3type_info@@8          0000000180022fe0     LIBCMT:std_type_info_static.obj
 0002:00008ff8       ??_R2type_info@@8          0000000180022ff8     LIBCMT:std_type_info_static.obj
 0002:00009008       ??_R1A@?0A@EA@type_info@@8 0000000180023008     LIBCMT:std_type_info_static.obj
 0002:00009030       ?_TraceLoggingMetadata@?1??_TlgWrite@__vcrt_trace_logging_provider@@YAJPEBU_TlgProvider_t@2@PEFBXPEBU_GUID@@2IPEAU_EVENT_DATA_DESCRIPTOR@@@Z@4U_TraceLoggingMetadata_t@2@B 0000000180023030     libvcruntime:telemetry.obj
 0002:000090e3       ?_TraceLoggingMetadataEnd@?1??_TlgWrite@__vcrt_trace_logging_provider@@YAJPEBU_TlgProvider_t@2@PEFBXPEBU_GUID@@2IPEAU_EVENT_DATA_DESCRIPTOR@@@Z@4EB 00000001800230e3     libvcruntime:telemetry.obj
 0002:00009540       __rtc_iaa                  0000000180023540     LIBCMT:_initsect_.obj
 0002:00009548       __rtc_izz                  0000000180023548     LIBCMT:_initsect_.obj
 0002:00009550       __rtc_taa                  0000000180023550     LIBCMT:_initsect_.obj
 0002:00009558       __rtc_tzz                  0000000180023558     LIBCMT:_initsect_.obj
 0002:0000a8a0       _TI2?AVbad_alloc@std@@     00000001800248a0     LIBCMT:throw_bad_alloc.obj
 0002:0000a8c0       _CTA2?AVbad_alloc@std@@    00000001800248c0     LIBCMT:throw_bad_alloc.obj
 0002:0000a8d8       _CT??_R0?AVbad_alloc@std@@@8??0bad_alloc@std@@QEAA@AEBV01@@Z24 00000001800248d8     LIBCMT:throw_bad_alloc.obj
 0002:0000a900       _CT??_R0?AVexception@std@@@8??0exception@std@@QEAA@AEBV01@@Z24 0000000180024900     LIBCMT:throw_bad_alloc.obj
 0002:0000a928       _TI3?AVbad_array_new_length@std@@ 0000000180024928     LIBCMT:throw_bad_alloc.obj
 0002:0000a948       _CTA3?AVbad_array_new_length@std@@ 0000000180024948     LIBCMT:throw_bad_alloc.obj
 0002:0000a968       _CT??_R0?AVbad_array_new_length@std@@@8??0bad_array_new_length@std@@QEAA@AEBV01@@Z24 0000000180024968     LIBCMT:throw_bad_alloc.obj
 0002:0000a98c       __DELAY_IMPORT_DESCRIPTOR_node_exe 000000018002498c     node:node.exe
 0002:0000a9ac       __NULL_DELAY_IMPORT_DESCRIPTOR 00000001800249ac     node:node.exe
 0002:0000ab28       \177node_NULL_THUNK_DATA_DLN 0000000180024b28     node:node.exe
 0002:0000b6c0       \177node_NULL_THUNK_DATA_DLB 00000001800256c0     node:node.exe
 0002:0000bf18       __IMPORT_DESCRIPTOR_KERNEL32 0000000180025f18     kernel32:KERNEL32.dll
 0002:0000bf2c       __IMPORT_DESCRIPTOR_ADVAPI32 0000000180025f2c     advapi32:ADVAPI32.dll
 0002:0000bf40       __NULL_IMPORT_DESCRIPTOR   0000000180025f40     kernel32:KERNEL32.dll
 0003:00000000       __security_cookie          0000000180027000     LIBCMT:gs_cookie.obj
 0003:00000008       __security_cookie_complement 0000000180027008     LIBCMT:gs_cookie.obj
 0003:00000010       __scrt_native_dllmain_reason 0000000180027010     LIBCMT:utility.obj
 0003:00000018       __isa_available            0000000180027018     LIBCMT:_cpu_disp_.obj
 0003:0000001c       __isa_enabled              000000018002701c     LIBCMT:_cpu_disp_.obj
 0003:00000020       __memcpy_nt_iters          0000000180027020     LIBCMT:_cpu_disp_.obj
 0003:00000084       __abort_behavior           0000000180027084     libucrt:abort.obj
 0003:00000090       _iob                       0000000180027090     libucrt:_file.obj
 0003:000001a0       __acrt_initial_locale_data 00000001800271a0     libucrt:nlsdata.obj
 0003:000002f8       __acrt_initial_locale_pointers 00000001800272f8     libucrt:nlsdata.obj
 0003:00000308       __acrt_wide_c_locale_string 0000000180027308     libucrt:nlsdata.obj
 0003:00000310       __acrt_initial_multibyte_data 0000000180027310     libucrt:mbctype.obj
 0003:00000538       __acrt_current_multibyte_data 0000000180027538     libucrt:mbctype.obj
 0003:00000640       _mbctype                   0000000180027640     libucrt:mbctype.obj
 0003:00000750       _mbcasemap                 0000000180027750     libucrt:mbctype.obj
 0003:00000850       __badioinfo                0000000180027850     libucrt:ioinit.obj
 0003:00000890       _pwctype                   0000000180027890     libucrt:ctype.obj
 0003:00000898       __globallocalestatus       0000000180027898     libucrt:glstatus.obj
 0003:000008a0       __acrt_lconv_c             00000001800278a0     libucrt:localeconv.obj
 0003:00000938       __acrt_lconv_static_decimal 0000000180027938     libucrt:localeconv.obj
 0003:0000093c       __acrt_lconv_static_W_decimal 000000018002793c     libucrt:localeconv.obj
 0003:00000940       __dcrt_lowio_console_output_handle 0000000180027940     libucrt:initcon.obj
 0003:00000960       _fltused                   0000000180027960     LIBCMT:fltused.obj
 0003:000009b0       __pfnDliNotifyHook2        00000001800279b0     win_delay_load_hook.obj
 0003:000009b8       ??_R0?AVbad_alloc@std@@@8  00000001800279b8     LIBCMT:throw_bad_alloc.obj
 0003:000009e0       ??_R0?AVexception@std@@@8  00000001800279e0     LIBCMT:throw_bad_alloc.obj
 0003:00000a08       ??_R0?AVbad_array_new_length@std@@@8 0000000180027a08     LIBCMT:throw_bad_alloc.obj
 0003:00000a38       ??_R0?AVtype_info@@@8      0000000180027a38     LIBCMT:std_type_info_static.obj
 0003:00000a58       __imp_uv_queue_work        0000000180027a58     node:node.exe
 0003:00000a60       __imp_?Global@Context@v8@@QEAA?AV?$Local@VObject@v8@@@2@XZ 0000000180027a60     node:node.exe
 0003:00000a68       __imp_?Value@External@v8@@QEBAPEAXXZ 0000000180027a68     node:node.exe
 0003:00000a70       __imp_?New@External@v8@@SA?AV?$Local@VExternal@v8@@@2@PEAVIsolate@2@PEAX@Z 0000000180027a70     node:node.exe
 0003:00000a78       __imp_?New@Integer@v8@@SA?AV?$Local@VInteger@v8@@@2@PEAVIsolate@2@H@Z 0000000180027a78     node:node.exe
 0003:00000a80       __imp_?GetCurrentContext@Isolate@v8@@QEAA?AV?$Local@VContext@v8@@@2@XZ 0000000180027a80     node:node.exe
 0003:00000a88       __imp_?GetCurrent@Isolate@v8@@SAPEAV12@XZ 0000000180027a88     node:node.exe
 0003:00000a90       __imp_?CreateHandle@HandleScope@v8@@KAPEAPEAVObject@internal@2@PEAVIsolate@42@PEAV342@@Z 0000000180027a90     node:node.exe
 0003:00000a98       __imp_?CreateHandle@HandleScope@v8@@CAPEAPEAVObject@internal@2@PEAVHeapObject@42@PEAV342@@Z 0000000180027a98     node:node.exe
 0003:00000aa0       __imp_??1HandleScope@v8@@QEAA@XZ 0000000180027aa0     node:node.exe
 0003:00000aa8       __imp_??0HandleScope@v8@@QEAA@PEAVIsolate@1@@Z 0000000180027aa8     node:node.exe
 0003:00000ab0       __imp_?Error@Exception@v8@@SA?AV?$Local@VValue@v8@@@2@V?$Local@VString@v8@@@2@@Z 0000000180027ab0     node:node.exe
 0003:00000ab8       __imp_?GetFunction@FunctionTemplate@v8@@QEAA?AV?$Local@VFunction@v8@@@2@XZ 0000000180027ab8     node:node.exe
 0003:00000ac0       __imp_?GetFunction@FunctionTemplate@v8@@QEAA?AV?$MaybeLocal@VFunction@v8@@@2@V?$Local@VContext@v8@@@2@@Z 0000000180027ac0     node:node.exe
 0003:00000ac8       __imp_?New@FunctionTemplate@v8@@SA?AV?$Local@VFunctionTemplate@v8@@@2@PEAVIsolate@2@P6AXAEBV?$FunctionCallbackInfo@VValue@v8@@@2@@ZV?$Local@VValue@v8@@@2@V?$Local@VSignature@v8@@@2@H@Z 0000000180027ac8     node:node.exe
 0003:00000ad0       __imp_?ToLocalEmpty@V8@v8@@CAXXZ 0000000180027ad0     node:node.exe
 0003:00000ad8       __imp_?DisposeGlobal@V8@v8@@CAXPEAPEAVObject@internal@2@@Z 0000000180027ad8     node:node.exe
 0003:00000ae0       __imp_?GlobalizeReference@V8@v8@@CAPEAPEAVObject@internal@2@PEAVIsolate@42@PEAPEAV342@@Z 0000000180027ae0     node:node.exe
 0003:00000ae8       __imp_?IntegerValue@Value@v8@@QEBA_JXZ 0000000180027ae8     node:node.exe
 0003:00000af0       __imp_?NumberValue@Value@v8@@QEBANXZ 0000000180027af0     node:node.exe
 0003:00000af8       __imp_?ToInteger@Value@v8@@QEBA?AV?$MaybeLocal@VInteger@v8@@@2@V?$Local@VContext@v8@@@2@@Z 0000000180027af8     node:node.exe
 0003:00000b00       __imp_?Escape@EscapableHandleScope@v8@@AEAAPEAPEAVObject@internal@2@PEAPEAV342@@Z 0000000180027b00     node:node.exe
 0003:00000b08       __imp_??0EscapableHandleScope@v8@@QEAA@PEAVIsolate@1@@Z 0000000180027b08     node:node.exe
 0003:00000b10       __imp_?NewFromUtf8@String@v8@@SA?AV?$MaybeLocal@VString@v8@@@2@PEAVIsolate@2@PEBDW4NewStringType@2@H@Z 0000000180027b10     node:node.exe
 0003:00000b18       __imp_?New@Number@v8@@SA?AV?$Local@VNumber@v8@@@2@PEAVIsolate@2@N@Z 0000000180027b18     node:node.exe
 0003:00000b20       __imp_?SlowGetInternalField@Object@v8@@AEAA?AV?$Local@VValue@v8@@@2@H@Z 0000000180027b20     node:node.exe
 0003:00000b28       __imp_?New@Object@v8@@SA?AV?$Local@VObject@v8@@@2@PEAVIsolate@2@@Z 0000000180027b28     node:node.exe
 0003:00000b30       __imp_?SetInternalField@Object@v8@@QEAAXHV?$Local@VValue@v8@@@2@@Z 0000000180027b30     node:node.exe
 0003:00000b38       __imp_?Get@Object@v8@@QEAA?AV?$Local@VValue@v8@@@2@I@Z 0000000180027b38     node:node.exe
 0003:00000b40       __imp_?ForceSet@Object@v8@@QEAA?AV?$Maybe@_N@2@V?$Local@VContext@v8@@@2@V?$Local@VValue@v8@@@2@1W4PropertyAttribute@2@@Z 0000000180027b40     node:node.exe
 0003:00000b48       __imp_?Set@Object@v8@@QEAA_NV?$Local@VValue@v8@@@2@0@Z 0000000180027b48     node:node.exe
 0003:00000b50       __imp_?Set@Object@v8@@QEAA?AV?$Maybe@_N@2@V?$Local@VContext@v8@@@2@V?$Local@VValue@v8@@@2@1@Z 0000000180027b50     node:node.exe
 0003:00000b58       __imp_?Set@Object@v8@@QEAA?AV?$Maybe@_N@2@V?$Local@VContext@v8@@@2@IV?$Local@VValue@v8@@@2@@Z 0000000180027b58     node:node.exe
 0003:00000b60       __imp_?SetName@Function@v8@@QEAAXV?$Local@VString@v8@@@2@@Z 0000000180027b60     node:node.exe
 0003:00000b68       __imp_?SetInternalFieldCount@ObjectTemplate@v8@@QEAAXH@Z 0000000180027b68     node:node.exe
 0003:00000b70       __imp_?NewInstance@ObjectTemplate@v8@@QEAA?AV?$MaybeLocal@VObject@v8@@@2@V?$Local@VContext@v8@@@2@@Z 0000000180027b70     node:node.exe
 0003:00000b78       __imp_?New@ObjectTemplate@v8@@SA?AV?$Local@VObjectTemplate@v8@@@2@PEAVIsolate@2@V?$Local@VFunctionTemplate@v8@@@2@@Z 0000000180027b78     node:node.exe
 0003:00000b80       __imp_node_module_register 0000000180027b80     node:node.exe
 0003:00000b88       __imp_?HasInstance@Buffer@node@@YA_NV?$Local@VValue@v8@@@v8@@@Z 0000000180027b88     node:node.exe
 0003:00000b90       __imp_?New@Buffer@node@@YA?AV?$MaybeLocal@VObject@v8@@@v8@@PEAVIsolate@4@PEAD_KP6AX1PEAX@Z3@Z 0000000180027b90     node:node.exe
 0003:00000b98       __imp_?Data@Buffer@node@@YAPEADV?$Local@VObject@v8@@@v8@@@Z 0000000180027b98     node:node.exe
 0003:00000ba0       __imp_?MakeCallback@node@@YA?AV?$Local@VValue@v8@@@v8@@PEAVIsolate@3@V?$Local@VObject@v8@@@3@V?$Local@VFunction@v8@@@3@HPEAV23@@Z 0000000180027ba0     node:node.exe
 0003:00000ba8       __imp_uv_default_loop      0000000180027ba8     node:node.exe
 0003:00000bb0       \177node_NULL_THUNK_DATA_DLA 0000000180027bb0     node:node.exe
 0003:00000bc0       __hmod__node_exe           0000000180027bc0     node:node.exe
 0003:00001140       __scrt_current_native_startup_state 0000000180028140     LIBCMT:utility.obj
 0003:00001148       __scrt_native_startup_lock 0000000180028148     LIBCMT:utility.obj
 0003:00001190       ?__type_info_root_node@@3U__type_info_node@@A 0000000180028190     LIBCMT:tncleanup.obj
 0003:000011a0       ?_OptionsStorage@?1??__local_stdio_printf_options@@9@4_KA 00000001800281a0     LIBCMT:default_local_stdio_options.obj
 0003:000011a8       ?_OptionsStorage@?1??__local_stdio_scanf_options@@9@4_KA 00000001800281a8     LIBCMT:default_local_stdio_options.obj
 0003:000011b0       __scrt_debugger_hook_flag  00000001800281b0     LIBCMT:utility_desktop.obj
 0003:000011b4       __favor                    00000001800281b4     LIBCMT:_cpu_disp_.obj
 0003:000011b8       __pPurecall                00000001800281b8     libvcruntime:purevirt_data.obj
 0003:000012d8       ?pArgList@UnDecorator@@0PEAVReplicator@@EA 00000001800282d8     libvcruntime:undname.obj
 0003:000012e0       ?pZNameList@UnDecorator@@0PEAVReplicator@@EA 00000001800282e0     libvcruntime:undname.obj
 0003:000012e8       ?pTemplateArgList@UnDecorator@@0PEAVReplicator@@EA 00000001800282e8     libvcruntime:undname.obj
 0003:000012f0       ?gName@UnDecorator@@0PEBDEB 00000001800282f0     libvcruntime:undname.obj
 0003:000012f8       ?name@UnDecorator@@0PEBDEB 00000001800282f8     libvcruntime:undname.obj
 0003:00001300       ?outputString@UnDecorator@@0PEADEA 0000000180028300     libvcruntime:undname.obj
 0003:00001308       ?maxStringLength@UnDecorator@@0HA 0000000180028308     libvcruntime:undname.obj
 0003:0000130c       ?disableFlags@UnDecorator@@0KA 000000018002830c     libvcruntime:undname.obj
 0003:00001310       ?fExplicitTemplateParams@UnDecorator@@0_NA 0000000180028310     libvcruntime:undname.obj
 0003:00001311       ?fGetTemplateArgumentList@UnDecorator@@0_NA 0000000180028311     libvcruntime:undname.obj
 0003:00001318       ?m_pGetParameter@UnDecorator@@0P6APEADJ@ZEA 0000000180028318     libvcruntime:undname.obj
 0003:00001478       _environ_table             0000000180028478     libucrt:environment_initialization.obj
 0003:00001480       _wenviron_table            0000000180028480     libucrt:environment_initialization.obj
 0003:00001488       __dcrt_initial_wide_environment 0000000180028488     libucrt:environment_initialization.obj
 0003:00001490       __dcrt_initial_narrow_environment 0000000180028490     libucrt:environment_initialization.obj
 0003:00001498       __acrt_atexit_table        0000000180028498     libucrt:onexit.obj
 0003:000014b0       __acrt_at_quick_exit_table 00000001800284b0     libucrt:onexit.obj
 0003:000014d8       _nstream                   00000001800284d8     libucrt:_file.obj
 0003:000014e0       __piob                     00000001800284e0     libucrt:_file.obj
 0003:000014e8       _cflush                    00000001800284e8     libucrt:_file.obj
 0003:00001510       __acrt_locale_changed_data 0000000180028510     libucrt:wsetlocale.obj
 0003:00001518       __acrt_current_locale_data 0000000180028518     libucrt:nlsdata.obj
 0003:000018d4       __mbcodepage               00000001800288d4     libucrt:mbctype.obj
 0003:000018d8       __ismbcodepage             00000001800288d8     libucrt:mbctype.obj
 0003:000018e0       __mbulinfo                 00000001800288e0     libucrt:mbctype.obj
 0003:000018f0       __mblocalename             00000001800288f0     libucrt:mbctype.obj
 0003:000018fc       __argc                     00000001800288fc     libucrt:argv_data.obj
 0003:00001900       __argv                     0000000180028900     libucrt:argv_data.obj
 0003:00001908       __wargv                    0000000180028908     libucrt:argv_data.obj
 0003:00001910       _acmdln                    0000000180028910     libucrt:argv_data.obj
 0003:00001918       _wcmdln                    0000000180028918     libucrt:argv_data.obj
 0003:00001920       _pgmptr                    0000000180028920     libucrt:argv_data.obj
 0003:00001928       __acrt_heap                0000000180028928     libucrt:heap_handle.obj
 0003:00001930       __pioinfo                  0000000180028930     libucrt:ioinit.obj
 0003:00001d30       _nhandle                   0000000180028d30     libucrt:ioinit.obj
 0003:00001d40       __acrt_stdout_buffer       0000000180028d40     libucrt:_sftbuf.obj
 0003:00001d48       __acrt_stderr_buffer       0000000180028d48     libucrt:_sftbuf.obj
 0003:00001d60       __acrt_lconv_static_null   0000000180028d60     libucrt:localeconv.obj
 0003:00001d64       __acrt_lconv_static_W_null 0000000180028d64     libucrt:localeconv.obj
 0003:00001d68       __fma3_is_available        0000000180028d68     libucrt:fma3_available.obj
 0003:00001d6c       __use_fma3_lib             0000000180028d6c     libucrt:fma3_available.obj
 0003:00001d70       ?DloadKernel32@@3PEAUHINSTANCE__@@EA 0000000180028d70     DelayImp:delayhlp.obj
 0003:00001d78       ?DloadAcquireSRWLockExclusive@@3P6AXPEA_K@ZEA 0000000180028d78     DelayImp:delayhlp.obj
 0003:00001d80       ?DloadReleaseSRWLockExclusive@@3P6AXPEA_K@ZEA 0000000180028d80     DelayImp:delayhlp.obj
 0003:00001d88       ?DloadSrwLock@@3_KA        0000000180028d88     DelayImp:delayhlp.obj
 0003:00001d90       ?DloadSectionLockCount@@3KA 0000000180028d90     DelayImp:delayhlp.obj
 0003:00001d94       ?DloadSectionOldProtection@@3KA 0000000180028d94     DelayImp:delayhlp.obj
 0003:00001d98       ?DloadSectionCommitPermanent@@3KA 0000000180028d98     DelayImp:delayhlp.obj
 0003:00001da0       __pfnDliFailureHook2       0000000180028da0     DelayImp:delayhk1.obj
 0003:00001da8       __scrt_ucrt_dll_is_in_use  0000000180028da8     <common>
 0003:00001db0       __dyn_tls_init_callback    0000000180028db0     <common>
 0003:00001db8       _pDestructExceptionObject  0000000180028db8     <common>

 entry point at        0001:000065e8

 Static symbols

 0000:fffd2000       .debug$S                   0000000180000000     kernel32:KERNEL32.dll
 0000:fffd2000       .debug$S                   0000000180000000     node:node.exe
 0000:fffd2000       .debug$S                   0000000180000000     node:node.exe
 0000:fffd2000       .debug$S                   0000000180000000     node:node.exe
 0000:fffd2000       .debug$S                   0000000180000000     node:node.exe
 0000:fffd2000       .debug$S                   0000000180000000     node:node.exe
 0000:fffd2000       .debug$S                   0000000180000000     node:node.exe
 0000:fffd2000       .debug$S                   0000000180000000     node:node.exe
 0000:fffd2000       .debug$S                   0000000180000000     node:node.exe
 0000:fffd2000       .debug$S                   0000000180000000     node:node.exe
 0000:fffd2000       .debug$S                   0000000180000000     node:node.exe
 0000:fffd2000       .debug$S                   0000000180000000     node:node.exe
 0000:fffd2000       .debug$S                   0000000180000000     node:node.exe
 0000:fffd2000       .debug$S                   0000000180000000     node:node.exe
 0000:fffd2000       .debug$S                   0000000180000000     node:node.exe
 0000:fffd2000       .debug$S                   0000000180000000     node:node.exe
 0000:fffd2000       .debug$S                   0000000180000000     node:node.exe
 0000:fffd2000       .debug$S                   0000000180000000     node:node.exe
 0000:fffd2000       .debug$S                   0000000180000000     node:node.exe
 0000:fffd2000       .debug$S                   0000000180000000     node:node.exe
 0000:fffd2000       .debug$S                   0000000180000000     node:node.exe
 0000:fffd2000       .debug$S                   0000000180000000     node:node.exe
 0000:fffd2000       .debug$S                   0000000180000000     node:node.exe
 0000:fffd2000       .debug$S                   0000000180000000     node:node.exe
 0000:fffd2000       .debug$S                   0000000180000000     node:node.exe
 0000:fffd2000       .debug$S                   0000000180000000     node:node.exe
 0000:fffd2000       .debug$S                   0000000180000000     node:node.exe
 0000:fffd2000       .debug$S                   0000000180000000     node:node.exe
 0000:fffd2000       .debug$S                   0000000180000000     node:node.exe
 0000:fffd2000       .debug$S                   0000000180000000     node:node.exe
 0000:fffd2000       .debug$S                   0000000180000000     node:node.exe
 0000:fffd2000       .debug$S                   0000000180000000     node:node.exe
 0000:fffd2000       .debug$S                   0000000180000000     node:node.exe
 0000:fffd2000       .debug$S                   0000000180000000     node:node.exe
 0000:fffd2000       .debug$S                   0000000180000000     node:node.exe
 0000:fffd2000       .debug$S                   0000000180000000     node:node.exe
 0000:fffd2000       .debug$S                   0000000180000000     node:node.exe
 0000:fffd2000       .debug$S                   0000000180000000     node:node.exe
 0000:fffd2000       .debug$S                   0000000180000000     node:node.exe
 0000:fffd2000       .debug$S                   0000000180000000     node:node.exe
 0000:fffd2000       .debug$S                   0000000180000000     node:node.exe
 0000:fffd2000       .debug$S                   0000000180000000     node:node.exe
 0000:fffd2000       .debug$S                   0000000180000000     node:node.exe
 0000:fffd2000       .debug$S                   0000000180000000     node:node.exe
 0000:fffd2000       .debug$S                   0000000180000000     node:node.exe
 0000:fffd2000       .debug$S                   0000000180000000     node:node.exe
 0000:fffd2000       .debug$S                   0000000180000000     node:node.exe
 0000:fffd2000       .debug$S                   0000000180000000     node:node.exe
 0000:fffd2000       .debug$S                   0000000180000000     node:node.exe
 0000:fffd2000       .debug$S                   0000000180000000     advapi32:ADVAPI32.dll
 0000:fffd2000       .debug$S                   0000000180000000     kernel32:KERNEL32.dll
 0000:fffd2000       .debug$S                   0000000180000000     kernel32:KERNEL32.dll
 0000:fffd2000       .debug$S                   0000000180000000     kernel32:KERNEL32.dll
 0000:fffd2000       .debug$S                   0000000180000000     kernel32:KERNEL32.dll
 0000:fffd2000       .debug$S                   0000000180000000     kernel32:KERNEL32.dll
 0000:fffd2000       .debug$S                   0000000180000000     kernel32:KERNEL32.dll
 0000:fffd2000       .debug$S                   0000000180000000     kernel32:KERNEL32.dll
 0000:fffd2000       .debug$S                   0000000180000000     kernel32:KERNEL32.dll
 0000:fffd2000       .debug$S                   0000000180000000     kernel32:KERNEL32.dll
 0000:fffd2000       .debug$S                   0000000180000000     kernel32:KERNEL32.dll
 0000:fffd2000       .debug$S                   0000000180000000     kernel32:KERNEL32.dll
 0000:fffd2000       .debug$S                   0000000180000000     kernel32:KERNEL32.dll
 0000:fffd2000       .debug$S                   0000000180000000     kernel32:KERNEL32.dll
 0000:fffd2000       .debug$S                   0000000180000000     kernel32:KERNEL32.dll
 0000:fffd2000       .debug$S                   0000000180000000     kernel32:KERNEL32.dll
 0000:fffd2000       .debug$S                   0000000180000000     kernel32:KERNEL32.dll
 0000:fffd2000       .debug$S                   0000000180000000     kernel32:KERNEL32.dll
 0000:fffd2000       .debug$S                   0000000180000000     kernel32:KERNEL32.dll
 0000:fffd2000       .debug$S                   0000000180000000     kernel32:KERNEL32.dll
 0000:fffd2000       .debug$S                   0000000180000000     kernel32:KERNEL32.dll
 0000:fffd2000       .debug$S                   0000000180000000     kernel32:KERNEL32.dll
 0000:fffd2000       .debug$S                   0000000180000000     kernel32:KERNEL32.dll
 0000:fffd2000       .debug$S                   0000000180000000     kernel32:KERNEL32.dll
 0000:fffd2000       .debug$S                   0000000180000000     kernel32:KERNEL32.dll
 0000:fffd2000       .debug$S                   0000000180000000     kernel32:KERNEL32.dll
 0000:fffd2000       .debug$S                   0000000180000000     kernel32:KERNEL32.dll
 0000:fffd2000       .debug$S                   0000000180000000     kernel32:KERNEL32.dll
 0000:fffd2000       .debug$S                   0000000180000000     kernel32:KERNEL32.dll
 0000:fffd2000       .debug$S                   0000000180000000     kernel32:KERNEL32.dll
 0000:fffd2000       .debug$S                   0000000180000000     kernel32:KERNEL32.dll
 0000:fffd2000       .debug$S                   0000000180000000     kernel32:KERNEL32.dll
 0000:fffd2000       .debug$S                   0000000180000000     kernel32:KERNEL32.dll
 0000:fffd2000       .debug$S                   0000000180000000     kernel32:KERNEL32.dll
 0000:fffd2000       .debug$S                   0000000180000000     kernel32:KERNEL32.dll
 0000:fffd2000       .debug$S                   0000000180000000     kernel32:KERNEL32.dll
 0000:fffd2000       .debug$S                   0000000180000000     kernel32:KERNEL32.dll
 0000:fffd2000       .debug$S                   0000000180000000     kernel32:KERNEL32.dll
 0000:fffd2000       .debug$S                   0000000180000000     kernel32:KERNEL32.dll
 0000:fffd2000       .debug$S                   0000000180000000     kernel32:KERNEL32.dll
 0000:fffd2000       .debug$S                   0000000180000000     kernel32:KERNEL32.dll
 0000:fffd2000       .debug$S                   0000000180000000     kernel32:KERNEL32.dll
 0000:fffd2000       .debug$S                   0000000180000000     kernel32:KERNEL32.dll
 0000:fffd2000       .debug$S                   0000000180000000     kernel32:KERNEL32.dll
 0000:fffd2000       .debug$S                   0000000180000000     kernel32:KERNEL32.dll
 0000:fffd2000       .debug$S                   0000000180000000     kernel32:KERNEL32.dll
 0000:fffd2000       .debug$S                   0000000180000000     kernel32:KERNEL32.dll
 0000:fffd2000       .debug$S                   0000000180000000     kernel32:KERNEL32.dll
 0000:fffd2000       .debug$S                   0000000180000000     kernel32:KERNEL32.dll
 0000:fffd2000       .debug$S                   0000000180000000     kernel32:KERNEL32.dll
 0000:fffd2000       .debug$S                   0000000180000000     kernel32:KERNEL32.dll
 0000:fffd2000       .debug$S                   0000000180000000     kernel32:KERNEL32.dll
 0000:fffd2000       .debug$S                   0000000180000000     kernel32:KERNEL32.dll
 0000:fffd2000       .debug$S                   0000000180000000     kernel32:KERNEL32.dll
 0000:fffd2000       .debug$S                   0000000180000000     kernel32:KERNEL32.dll
 0000:fffd2000       .debug$S                   0000000180000000     kernel32:KERNEL32.dll
 0000:fffd2000       .debug$S                   0000000180000000     kernel32:KERNEL32.dll
 0000:fffd2000       .debug$S                   0000000180000000     kernel32:KERNEL32.dll
 0000:fffd2000       .debug$S                   0000000180000000     kernel32:KERNEL32.dll
 0000:fffd2000       .debug$S                   0000000180000000     kernel32:KERNEL32.dll
 0000:fffd2000       .debug$S                   0000000180000000     kernel32:KERNEL32.dll
 0000:fffd2000       .debug$S                   0000000180000000     kernel32:KERNEL32.dll
 0000:fffd2000       .debug$S                   0000000180000000     kernel32:KERNEL32.dll
 0000:fffd2000       .debug$S                   0000000180000000     kernel32:KERNEL32.dll
 0000:fffd2000       .debug$S                   0000000180000000     kernel32:KERNEL32.dll
 0000:fffd2000       .debug$S                   0000000180000000     kernel32:KERNEL32.dll
 0000:fffd2000       .debug$S                   0000000180000000     kernel32:KERNEL32.dll
 0000:fffd2000       .debug$S                   0000000180000000     kernel32:KERNEL32.dll
 0000:fffd2000       .debug$S                   0000000180000000     kernel32:KERNEL32.dll
 0000:fffd2000       .debug$S                   0000000180000000     kernel32:KERNEL32.dll
 0000:fffd2000       .debug$S                   0000000180000000     kernel32:KERNEL32.dll
 0000:fffd2000       .debug$S                   0000000180000000     kernel32:KERNEL32.dll
 0000:fffd2000       .debug$S                   0000000180000000     kernel32:KERNEL32.dll
 0000:fffd2000       .debug$S                   0000000180000000     kernel32:KERNEL32.dll
 0000:fffd2000       .debug$S                   0000000180000000     kernel32:KERNEL32.dll
 0000:fffd2000       .debug$S                   0000000180000000     kernel32:KERNEL32.dll
 0000:fffd2000       .debug$S                   0000000180000000     kernel32:KERNEL32.dll
 0000:fffd2000       .debug$S                   0000000180000000     kernel32:KERNEL32.dll
 0000:fffd2000       .debug$S                   0000000180000000     kernel32:KERNEL32.dll
 0000:fffd2000       .debug$S                   0000000180000000     kernel32:KERNEL32.dll
 0000:fffd2000       .debug$S                   0000000180000000     kernel32:KERNEL32.dll
 0000:fffd2000       .debug$S                   0000000180000000     kernel32:KERNEL32.dll
 0000:fffd2000       .debug$S                   0000000180000000     kernel32:KERNEL32.dll
 0000:fffd2000       .debug$S                   0000000180000000     kernel32:KERNEL32.dll
 0000:fffd2000       .debug$S                   0000000180000000     kernel32:KERNEL32.dll
 0000:fffd2000       .debug$S                   0000000180000000     kernel32:KERNEL32.dll
 0000:fffd2000       .debug$S                   0000000180000000     kernel32:KERNEL32.dll
 0000:fffd2000       .debug$S                   0000000180000000     kernel32:KERNEL32.dll
 0000:fffd2000       .debug$S                   0000000180000000     kernel32:KERNEL32.dll
 0000:fffd2000       .debug$S                   0000000180000000     kernel32:KERNEL32.dll
 0000:fffd2000       .debug$S                   0000000180000000     kernel32:KERNEL32.dll
 0000:fffd2000       .debug$S                   0000000180000000     ogg.exp
 0001:000001e0       ?FunctionCallbackWrapper@imp@Nan@@YAXAEBV?$FunctionCallbackInfo@VValue@v8@@@v8@@@Z 00000001800011e0 f   binding.obj
 0001:000009f0       ?wrap_pointer_cb@@YAXPEADPEAX@Z 00000001800019f0 f   binding.obj
 0001:00003ca0       _register_ogg              0000000180004ca0 f   binding.obj
 0001:00003cb0       load_exe_hook              0000000180004cb0 f   win_delay_load_hook.obj
 0001:00003fb0       _os_body_expand            0000000180004fb0 f   libogg:framing.obj
 0001:00004050       _os_lacing_expand          0000000180005050 f   libogg:framing.obj
 0001:000044f0       ogg_stream_flush_i         00000001800054f0 f   libogg:framing.obj
 0001:00005110       _packetout                 0000000180006110 f   libogg:framing.obj
 0001:00005730       oggpack_writecopy_helper   0000000180006730 f   libogg:bitwise.obj
 0001:00006200       $$000000                   0000000180007200     LIBCMT:_amdsecgs_.obj
 0001:00006278       ?dllmain_crt_dispatch@@YAHQEAUHINSTANCE__@@KQEAX@Z 0000000180007278 f   LIBCMT:dll_dllmain.obj
 0001:000062c8       ?dllmain_crt_process_attach@@YAHQEAUHINSTANCE__@@QEAX@Z 00000001800072c8 f   LIBCMT:dll_dllmain.obj
 0001:000063f4       ?dllmain_crt_process_detach@@YAH_N@Z 00000001800073f4 f   LIBCMT:dll_dllmain.obj
 0001:00006478       ?dllmain_dispatch@@YAHQEAUHINSTANCE__@@KQEAX@Z 0000000180007478 f   LIBCMT:dll_dllmain.obj
 0001:00006594       ?dllmain_raw@@YAHQEAUHINSTANCE__@@KQEAX@Z 0000000180007594 f   LIBCMT:dll_dllmain.obj
 0001:000067e0       capture_current_context    00000001800077e0 f   LIBCMT:gs_report.obj
 0001:00006850       capture_previous_context   0000000180007850 f   LIBCMT:gs_report.obj
 0001:00007380       $$000000                   0000000180008380     libvcruntime:memcpy.obj
 0001:00007427       MoveSmall                  0000000180008427     libvcruntime:memcpy.obj
 0001:000077e4       _TlgDefineProvider_annotation__Tlg_Microsoft_CRTProviderProv 00000001800087e4 f   libvcruntime:telemetry.obj
 0001:00007ea0       $$000000                   0000000180008ea0     libvcruntime:memset.obj
 0001:00007f8c       MsetTab                    0000000180008f8c     libvcruntime:memset.obj
 0001:00008074       ?try_get_function@@YAPEAXW4function_id@?A0x49c8dc86@@QEBDQEBW4module_id@2@2@Z 0000000180009074 f   libvcruntime:winapi_downlevel.obj
 0001:00008690       $$000000                   0000000180009690     libvcruntime:_jmpuwind_.obj
 0001:00008910       ??$common_assert_to_message_box@_W@@YAXQEB_W0IQEAX@Z 0000000180009910 f   libucrt:assert.obj
 0001:000089d4       ??$common_assert_to_message_box_build_string@_W@@YAXQEA_W_KQEB_W2IQEAX@Z 00000001800099d4 f   libucrt:assert.obj
 0001:000091a8       ??$common_assert_to_stderr@_W@@YAXQEB_W0I@Z 000000018000a1a8 f   libucrt:assert.obj
 0001:00009318       ?get_assert_format@@YAPEB_W_W@Z 000000018000a318 f   libucrt:assert.obj
 0001:00009900       ?atexit_exception_filter@@YAHK@Z 000000018000a900 f   libucrt:exit.obj
 0001:0000990c       ?common_exit@@YAXHW4_crt_exit_cleanup_mode@@W4_crt_exit_return_mode@@@Z 000000018000a90c f   libucrt:exit.obj
 0001:00009a78       ?exit_or_terminate_process@@YAXI@Z 000000018000aa78 f   libucrt:exit.obj
 0001:00009ac4       ?try_cor_exit_process@@YAXI@Z 000000018000aac4 f   libucrt:exit.obj
 0001:00009b5c       ??$parse_command_line@D@@YAXPEADPEAPEAD0PEA_K2@Z 000000018000ab5c f   libucrt:argv_parsing.obj
 0001:00009ef4       ??$common_initialize_environment_nolock@D@@YAHXZ 000000018000aef4 f   libucrt:environment_initialization.obj
 0001:00009f60       ??$create_environment@D@@YAQEAPEADQEAD@Z 000000018000af60 f   libucrt:environment_initialization.obj
 0001:0000a05c       ??$free_environment@_W@@YAXQEAPEA_W@Z 000000018000b05c f   libucrt:environment_initialization.obj
 0001:0000a05c       ??$free_environment@D@@YAXQEAPEAD@Z 000000018000b05c f   libucrt:environment_initialization.obj
 0001:0000a0a0       ??$uninitialize_environment_internal@D@@YAXAEAPEAPEAD@Z 000000018000b0a0 f   libucrt:environment_initialization.obj
 0001:0000a0bc       ??$uninitialize_environment_internal@_W@@YAXAEAPEAPEA_W@Z 000000018000b0bc f   libucrt:environment_initialization.obj
 0001:0000a2f4       ??R<lambda_4e60a939b0d047cfe11ddc22648dfba9>@@QEBAHXZ 000000018000b2f4 f   libucrt:onexit.obj
 0001:0000a5a4       initialize_global_variables 000000018000b5a4 f   libucrt:initialization.obj
 0001:0000a5b8       initialize_c               000000018000b5b8 f   libucrt:initialization.obj
 0001:0000a5dc       uninitialize_environment   000000018000b5dc f   libucrt:initialization.obj
 0001:0000a5ec       initialize_pointers        000000018000b5ec f   libucrt:initialization.obj
 0001:0000a640       uninitialize_vcruntime     000000018000b640 f   libucrt:initialization.obj
 0001:0000a648       uninitialize_allocated_memory 000000018000b648 f   libucrt:initialization.obj
 0001:0000ad14       ??R<lambda_dd75445284c072d0bd3768540cc698fa>@@QEBAHXZ 000000018000bd14 f   libucrt:output.obj
 0001:0000d438       ??$common_xtox@K_W@@YAHKQEA_W_KI_N@Z 000000018000e438 f   libucrt:xtoa.obj
 0001:0000d4e4       ??$common_xtox_s@K_W@@YAHKQEA_W_KI_N@Z 000000018000e4e4 f   libucrt:xtoa.obj
 0001:0000d7a8       ??$message_box_wait_thread@_W@@YAKQEAX@Z 000000018000e7a8 f   libucrt:crtmbox.obj
 0001:0000db64       common_flush_all           000000018000eb64 f   libucrt:fflush.obj
 0001:0000dccc       ??R<lambda_b721fa326cdb32351d23dfa67958c160>@@QEBAHXZ 000000018000eccc f   libucrt:setvbuf.obj
 0001:0000e190       ?internal_isupper_l@@YA_NHQEAU__crt_locale_pointers@@@Z 000000018000f190 f   libucrt:tolower_toupper.obj
 0001:0000e474       ?construct_ptd_array@@YAXQEAU__acrt_ptd@@@Z 000000018000f474 f   libucrt:per_thread_data.obj
 0001:0000e544       ?destroy_fls@@YAXPEAX@Z    000000018000f544 f   libucrt:per_thread_data.obj
 0001:0000e564       ?destroy_ptd_array@@YAXQEAU__acrt_ptd@@@Z 000000018000f564 f   libucrt:per_thread_data.obj
 0001:0000e65c       ?replace_current_thread_locale_nolock@@YAXQEAU__acrt_ptd@@QEAU__crt_locale_data@@@Z 000000018000f65c f   libucrt:per_thread_data.obj
 0001:0000ea94       ?try_get_function@@YAPEAXW4function_id@?A0x63058377@@QEBDQEBW4module_id@2@2@Z 000000018000fa94 f   libucrt:winapi_thunks.obj
 0001:0000f2c0       ?<helper_func_cdecl>@<lambda_2feae5270eb4d0d5532525f423405775>@@CAHPEBX0@Z 00000001800102c0 f   libucrt:argv_wildcards.obj
 0001:0000f2d4       ??$common_expand_argv_wildcards@D@@YAHQEAPEADQEAPEAPEAD@Z 00000001800102d4 f   libucrt:argv_wildcards.obj
 0001:0000f4e0       ??$copy_and_add_argument_to_buffer@D@@YAHQEBD0_KAEAV?$argument_list@D@?A0xca0879c4@@@Z 00000001800104e0 f   libucrt:argv_wildcards.obj
 0001:0000f5f0       ??$expand_argument_wildcards@D@@YAHQEAD0AEAV?$argument_list@D@?A0xca0879c4@@@Z 00000001800105f0 f   libucrt:argv_wildcards.obj
 0001:0000f8a4       ??R<lambda_ad1ced32f4ac17aa236e5ef05d6b3b7c>@@QEBAXXZ 00000001800108a4 f   libucrt:mbctype.obj
 0001:0000fabc       ?getSystemCP@@YAHH@Z       0000000180010abc f   libucrt:mbctype.obj
 0001:0000fb3c       ?setSBCS@@YAXPEAU__crt_multibyte_data@@@Z 0000000180010b3c f   libucrt:mbctype.obj
 0001:0000fbcc       ?setSBUpLow@@YAXPEAU__crt_multibyte_data@@@Z 0000000180010bcc f   libucrt:mbctype.obj
 0001:0000fdb0       ?setmbcp_internal@@YAHH_N@Z 0000000180010db0 f   libucrt:mbctype.obj
 0001:000102f8       ?x_ismbbtype_l@@YAHPEAU__crt_locale_pointers@@IHH@Z 00000001800112f8 f   libucrt:ismbbyte.obj
 0001:000103ac       initialize_environment     00000001800113ac f   libucrt:initialization.obj
 0001:000103ac       initialize_global_state_isolation 00000001800113ac f   libucrt:initialization.obj
 0001:000103ac       uninitialize_c             00000001800113ac f   libucrt:initialization.obj
 0001:000103ac       report_memory_leaks        00000001800113ac f   libucrt:initialization.obj
 0001:000103ac       uninitialize_global_state_isolation 00000001800113ac f   libucrt:initialization.obj
 0001:0001057c       ?initialize_inherited_file_handles_nolock@@YAXXZ 000000018001157c f   libucrt:ioinit.obj
 0001:00010668       ?initialize_stdio_handles_nolock@@YAXXZ 0000000180011668 f   libucrt:ioinit.obj
 0001:00011040       ?fp_format_a@@YAHQEBNPEAD_KQEAD2H_NIQEAU__crt_locale_pointers@@@Z 0000000180012040 f   libucrt:cvt.obj
 0001:000113a0       ?fp_format_e@@YAHQEBNQEAD_K12H_NIQEAU__crt_locale_pointers@@@Z 00000001800123a0 f   libucrt:cvt.obj
 0001:00011470       ?fp_format_e_internal@@YAHQEAD_KH_NIQEAU_strflt@@2QEAU__crt_locale_pointers@@@Z 0000000180012470 f   libucrt:cvt.obj
 0001:0001164c       ?fp_format_f_internal@@YAHQEAD_KHQEAU_strflt@@_NQEAU__crt_locale_pointers@@@Z 000000018001264c f   libucrt:cvt.obj
 0001:00011794       ?fp_format_g@@YAHQEBNQEAD_K12H_NIQEAU__crt_locale_pointers@@@Z 0000000180012794 f   libucrt:cvt.obj
 0001:000118cc       ?fp_format_nan_or_infinity@@YAHW4__acrt_fp_class@@_NPEAD_K1@Z 00000001800128cc f   libucrt:cvt.obj
 0001:000121ec       ?write_double_translated_ansi_nolock@@YA?AUwrite_result@?A0x9c548279@@HQEBDI@Z 00000001800131ec f   libucrt:write.obj
 0001:000123f4       ?write_text_ansi_nolock@@YA?AUwrite_result@?A0x9c548279@@HQEBDI@Z 00000001800133f4 f   libucrt:write.obj
 0001:000124fc       ?write_text_utf16le_nolock@@YA?AUwrite_result@?A0x9c548279@@HQEBDI@Z 00000001800134fc f   libucrt:write.obj
 0001:00012618       ?write_text_utf8_nolock@@YA?AUwrite_result@?A0x9c548279@@HQEBDI@Z 0000000180013618 f   libucrt:write.obj
 0001:00012b9c       ?__acrt_LCMapStringA_stat@@YAHPEAU__crt_locale_pointers@@PEB_WKPEBDHPEADHHH@Z 0000000180013b9c f   libucrt:lcmapstringa.obj
 0001:00013514       ?free_crt_array_internal@@YAXQEAPEBX_K@Z 0000000180014514 f   libucrt:inittime.obj
 0001:00013828       ?GetTableIndexFromLocaleName@@YAHPEB_W@Z 0000000180014828 f   libucrt:lcidtoname_downlevel.obj
 0001:00013930       ?shortsort@@YAXPEAD0_KP6AHPEBX2@Z@Z 0000000180014930 f   libucrt:qsort.obj
 0001:00013f48       ?initialize_multibyte@@YAHXZ 0000000180014f48 f   libucrt:multibyte_initializer.obj
 0001:00015c1c       memcpy_s                   0000000180016c1c f   libucrt:cfout.obj
 0001:00015ca4       ??$write_buffer_nolock@D@@YA_NDV__crt_stdio_stream@@@Z 0000000180016ca4 f   libucrt:_flsbuf.obj
 0001:00015da8       ??$write_buffer_nolock@_W@@YA_N_WV__crt_stdio_stream@@@Z 0000000180016da8 f   libucrt:_flsbuf.obj
 0001:00016178       ??$common_lseek@_J@@YA_JH_JH@Z 0000000180017178 f   libucrt:lseek.obj
 0001:00016268       ??$common_lseek_nolock@_J@@YA_JH_JH@Z 0000000180017268 f   libucrt:lseek.obj
 0001:00016510       $$000000                   0000000180017510     libucrt:log10.obj
 0001:00016ec4       common_control87           0000000180017ec4 f   libucrt:ieee.obj
 0001:0001715c       _call_matherr              000000018001815c f   libucrt:libm_error.obj
 0001:000171c4       _exception_enabled         00000001800181c4 f   libucrt:libm_error.obj
 0001:00017460       _log_special_common        0000000180018460 f   libucrt:log_special.obj
 0001:00017500       $$000000                   0000000180018500     libucrt:fpsr.obj
 0001:000181b0       $$000000                   00000001800191b0     LIBCMT:_chkstk_.obj
 0001:00018220       $$000000                   0000000180019220     libvcruntime:memcmp.obj
 0001:00018440       $$000000                   0000000180019440     LIBCMT:_guard_dispatch_.obj
 0001:00018460       ?fin$0@?0??dllmain_crt_process_attach@@YAHQEAUHINSTANCE__@@QEAX@Z@4HA 0000000180019460 f   LIBCMT:dll_dllmain.obj
 0001:00018477       ?fin$0@?0??dllmain_crt_process_detach@@YAH_N@Z@4HA 0000000180019477 f   LIBCMT:dll_dllmain.obj
 0001:00018493       ?filt$0@?0??dllmain_dispatch@@YAHQEAUHINSTANCE__@@KQEAX@Z@4HA 0000000180019493 f   LIBCMT:dll_dllmain.obj
 0001:000184c9       __scrt_is_nonwritable_in_current_image$filt$0 00000001800194c9 f   LIBCMT:utility.obj
 0001:000184e1       _query_new_handler$fin$0   00000001800194e1 f   libucrt:new_handler.obj
 0001:000184f7       ?filt$0@?0??common_exit@@YAXHW4_crt_exit_cleanup_mode@@W4_crt_exit_return_mode@@@Z@4HA 00000001800194f7 f   libucrt:exit.obj
 0001:00018512       ?fin$1@?0??common_exit@@YAXHW4_crt_exit_cleanup_mode@@W4_crt_exit_return_mode@@@Z@4HA 0000000180019512 f   libucrt:exit.obj
 0001:0001852b       ?fin$0@?0???$?RV<lambda_e24bbb7b643b32fcea6fa61b31d4c984>@@AEAV<lambda_275893d493268fdec8709772e3fcec0e>@@V<lambda_9d71df4d7cf3f480f8d633942495c3b0>@@@?$__crt_seh_guarded_call@H@@QEAAH$$QEAV<lambda_e24bbb7b643b32fcea6fa61b31d4c984>@@AEAV<lambda_275893d493268fdec8709772e3fcec0e>@@$$QEAV<lambda_9d71df4d7cf3f480f8d633942495c3b0>@@@Z@4HA 000000018001952b f   libucrt:onexit.obj
 0001:00018548       ?fin$0@?0???$?RV<lambda_7a5ef57ff966f610505f1d28a3d40618>@@AEAV<lambda_b721fa326cdb32351d23dfa67958c160>@@V<lambda_5e0fb27672408a07956fe59e48ccb2aa>@@@?$__crt_seh_guarded_call@H@@QEAAH$$QEAV<lambda_7a5ef57ff966f610505f1d28a3d40618>@@AEAV<lambda_b721fa326cdb32351d23dfa67958c160>@@$$QEAV<lambda_5e0fb27672408a07956fe59e48ccb2aa>@@@Z@4HA 0000000180019548 f   libucrt:setvbuf.obj
 0001:00018548       ?fin$0@?0???$?RV<lambda_7b91131dde12e1c3dfc74ff76b3f2eac>@@AEAV<lambda_dd75445284c072d0bd3768540cc698fa>@@V<lambda_16bc4ecb55b4718497c16bceaea2ceaf>@@@?$__crt_seh_guarded_call@H@@QEAAH$$QEAV<lambda_7b91131dde12e1c3dfc74ff76b3f2eac>@@AEAV<lambda_dd75445284c072d0bd3768540cc698fa>@@$$QEAV<lambda_16bc4ecb55b4718497c16bceaea2ceaf>@@@Z@4HA 0000000180019548 f   libucrt:output.obj
 0001:00018563       common_flush_all$fin$0     0000000180019563 f   libucrt:fflush.obj
 0001:0001857d       common_flush_all$fin$1     000000018001957d f   libucrt:fflush.obj
 0001:00018596       fflush$fin$0               0000000180019596 f   libucrt:fflush.obj
 0001:00018596       fclose$fin$0               0000000180019596 f   libucrt:fclose.obj
 0001:000185ae       raise$fin$0                00000001800195ae f   libucrt:signal.obj
 0001:000185d2       ?fin$0@?0???$?RV<lambda_fb3a7dec4e47f37f22dae91bb15c9095>@@AEAV<lambda_698284760c8add0bfb0756c19673e34b>@@V<lambda_dfb8eca1e75fef3034a8fb18dd509707>@@@?$__crt_seh_guarded_call@X@@QEAAX$$QEAV<lambda_fb3a7dec4e47f37f22dae91bb15c9095>@@AEAV<lambda_698284760c8add0bfb0756c19673e34b>@@$$QEAV<lambda_dfb8eca1e75fef3034a8fb18dd509707>@@@Z@4HA 00000001800195d2 f   libucrt:per_thread_data.obj
 0001:000185d2       ?fin$0@?0???$?RV<lambda_c36588078e9f5dfd39652860aa6b3aaf>@@AEAV<lambda_ec61778202f4f5fc7e7711acc23c3bca>@@V<lambda_dc9d2797ccde5d239b4a0efae8ebd7db>@@@?$__crt_seh_guarded_call@P6AXH@Z@@QEAAP6AXH@Z$$QEAV<lambda_c36588078e9f5dfd39652860aa6b3aaf>@@AEAV<lambda_ec61778202f4f5fc7e7711acc23c3bca>@@$$QEAV<lambda_dc9d2797ccde5d239b4a0efae8ebd7db>@@@Z@4HA 00000001800195d2 f   libucrt:signal.obj
 0001:000185d2       ?fin$0@?0???$?RV<lambda_46352004c1216016012b18bd6f87e700>@@AEAV<lambda_3bd07e1a1191394380780325891bf33f>@@V<lambda_334532d3f185bcaa59b5be82d7d22bff>@@@?$__crt_seh_guarded_call@X@@QEAAX$$QEAV<lambda_46352004c1216016012b18bd6f87e700>@@AEAV<lambda_3bd07e1a1191394380780325891bf33f>@@$$QEAV<lambda_334532d3f185bcaa59b5be82d7d22bff>@@@Z@4HA 00000001800195d2 f   libucrt:per_thread_data.obj
 0001:000185d2       ?fin$0@?0???$?RV<lambda_b8c45f8f788dd370798f47cfe8ac3a86>@@AEAV<lambda_4e60a939b0d047cfe11ddc22648dfba9>@@V<lambda_332c3edc96d0294ec56c57d38c1cdfd5>@@@?$__crt_seh_guarded_call@H@@QEAAH$$QEAV<lambda_b8c45f8f788dd370798f47cfe8ac3a86>@@AEAV<lambda_4e60a939b0d047cfe11ddc22648dfba9>@@$$QEAV<lambda_332c3edc96d0294ec56c57d38c1cdfd5>@@@Z@4HA 00000001800195d2 f   libucrt:onexit.obj
 0001:000185d2       ?fin$0@?0???$?RV<lambda_72d1df2b273a38828b1ce30cbf4cdab5>@@AEAV<lambda_876a65b173b8412d3a47c70a915b0cf4>@@V<lambda_41932305e351933ebe8f8be3ed8bb5dc>@@@?$__crt_seh_guarded_call@X@@QEAAX$$QEAV<lambda_72d1df2b273a38828b1ce30cbf4cdab5>@@AEAV<lambda_876a65b173b8412d3a47c70a915b0cf4>@@$$QEAV<lambda_41932305e351933ebe8f8be3ed8bb5dc>@@@Z@4HA 00000001800195d2 f   libucrt:per_thread_data.obj
 0001:000185d2       ?fin$0@?0???$?RV<lambda_99476a1ad63dd22509b5d3e65b0ffc95>@@AEAV<lambda_ad1ced32f4ac17aa236e5ef05d6b3b7c>@@V<lambda_f7424dd8d45958661754dc4f2697e9c3>@@@?$__crt_seh_guarded_call@X@@QEAAX$$QEAV<lambda_99476a1ad63dd22509b5d3e65b0ffc95>@@AEAV<lambda_ad1ced32f4ac17aa236e5ef05d6b3b7c>@@$$QEAV<lambda_f7424dd8d45958661754dc4f2697e9c3>@@@Z@4HA 00000001800195d2 f   libucrt:mbctype.obj
 0001:000185d2       ?fin$0@?0???$?RV<lambda_5e887d1dcbef67a5eb4283622ba103bf>@@AEAV<lambda_4466841279450cc726390878d4a41900>@@V<lambda_341c25c0346d94847f1f3c463c57e077>@@@?$__crt_seh_guarded_call@X@@QEAAX$$QEAV<lambda_5e887d1dcbef67a5eb4283622ba103bf>@@AEAV<lambda_4466841279450cc726390878d4a41900>@@$$QEAV<lambda_341c25c0346d94847f1f3c463c57e077>@@@Z@4HA 00000001800195d2 f   libucrt:per_thread_data.obj
 0001:000185ec       __acrt_update_thread_multibyte_data$fin$0 00000001800195ec f   libucrt:mbctype.obj
 0001:00018605       __acrt_initialize_lowio$fin$0 0000000180019605 f   libucrt:ioinit.obj
 0001:00018605       __acrt_lowio_ensure_fh_exists$fin$0 0000000180019605 f   libucrt:osfinfo.obj
 0001:0001861e       _fcloseall$fin$0           000000018001961e f   libucrt:closeall.obj
 0001:00018637       __acrt_uninitialize_locale$fin$0 0000000180019637 f   libucrt:wsetlocale.obj
 0001:00018637       __acrt_update_thread_locale_data$fin$0 0000000180019637 f   libucrt:locale_refcounting.obj
 0001:00018650       ?fin$0@?0???$common_lseek@_J@@YA_JH_JH@Z@4HA 0000000180019650 f   libucrt:lseek.obj
 0001:00018650       _write$fin$0               0000000180019650 f   libucrt:write.obj
 0001:00018667       ?fin$0@?0???$?RV<lambda_bfedae4ebbf01fab1bb6dcc6a9e276e0>@@AEAV<lambda_2fe9b910cf3cbf4a0ab98a02ba45b3ec>@@V<lambda_237c231691f317818eb88cc1d5d642d6>@@@?$__crt_seh_guarded_call@H@@QEAAH$$QEAV<lambda_bfedae4ebbf01fab1bb6dcc6a9e276e0>@@AEAV<lambda_2fe9b910cf3cbf4a0ab98a02ba45b3ec>@@$$QEAV<lambda_237c231691f317818eb88cc1d5d642d6>@@@Z@4HA 0000000180019667 f   libucrt:close.obj
 0001:00018667       ?fin$0@?0???$?RV<lambda_b521505b218e5242e90febf6bfebc422>@@AEAV<lambda_6978c1fb23f02e42e1d9e99668cc68aa>@@V<lambda_314360699dd331753a4119843814e9a7>@@@?$__crt_seh_guarded_call@H@@QEAAH$$QEAV<lambda_b521505b218e5242e90febf6bfebc422>@@AEAV<lambda_6978c1fb23f02e42e1d9e99668cc68aa>@@$$QEAV<lambda_314360699dd331753a4119843814e9a7>@@@Z@4HA 0000000180019667 f   libucrt:commit.obj
 0001:00018681       _ctrlfp$filt$0             0000000180019681 f   libucrt:fpctrl.obj
 0001:00018681       common_control87$filt$0    0000000180019681 f   libucrt:ieee.obj
 0001:000186b0       _IsNonwritableInCurrentImage$filt$0 00000001800196b0 f   LIBCMT:pesect.obj
 0002:00000318       GS_ExceptionPointers       000000018001a318     LIBCMT:gs_report.obj
 0002:000003f0       ?ExceptionTemplate@?1??_CxxThrowException@@9@4UEHExceptionRecord@@B 000000018001a3f0     libvcruntime:throw.obj
 0002:00000430       ?module_names@?A0x49c8dc86@@3QBQEB_WB 000000018001a430     libvcruntime:winapi_downlevel.obj
 0002:000004fc       ?candidate_modules@?1??try_get_EventRegister@@YAP6AKPEBU_GUID@@P6AX0KE_K1PEAU_EVENT_FILTER_DESCRIPTOR@@PEAX@Z3PEA_K@ZXZ@4QBW4module_id@?A0x49c8dc86@@B 000000018001a4fc     libvcruntime:winapi_downlevel.obj
 0002:00000510       ?candidate_modules@?1??try_get_EventSetInformation@@YAP6AK_KW4_EVENT_INFO_CLASS@@PEAXK@ZXZ@4QBW4module_id@?A0x49c8dc86@@B 000000018001a510     libvcruntime:winapi_downlevel.obj
 0002:0000052c       ?candidate_modules@?1??try_get_EventUnregister@@YAP6AK_K@ZXZ@4QBW4module_id@?A0x49c8dc86@@B 000000018001a52c     libvcruntime:winapi_downlevel.obj
 0002:00000540       ?candidate_modules@?1??try_get_EventWriteTransfer@@YAP6AK_KPEBU_EVENT_DESCRIPTOR@@PEBU_GUID@@2KPEAU_EVENT_DATA_DESCRIPTOR@@@ZXZ@4QBW4module_id@?A0x49c8dc86@@B 000000018001a540     libvcruntime:winapi_downlevel.obj
 0002:00000560       ?candidate_modules@?1??try_get_FlsAlloc@@YAP6AKP6AXPEAX@Z@ZXZ@4QBW4module_id@?A0x49c8dc86@@B 000000018001a560     libvcruntime:winapi_downlevel.obj
 0002:00000578       ?candidate_modules@?1??try_get_FlsFree@@YAP6AHK@ZXZ@4QBW4module_id@?A0x49c8dc86@@B 000000018001a578     libvcruntime:winapi_downlevel.obj
 0002:00000588       ?candidate_modules@?1??try_get_FlsGetValue@@YAP6APEAXK@ZXZ@4QBW4module_id@?A0x49c8dc86@@B 000000018001a588     libvcruntime:winapi_downlevel.obj
 0002:000005a0       ?candidate_modules@?1??try_get_FlsSetValue@@YAP6AHKPEAX@ZXZ@4QBW4module_id@?A0x49c8dc86@@B 000000018001a5a0     libvcruntime:winapi_downlevel.obj
 0002:000005b8       ?candidate_modules@?1??try_get_InitializeCriticalSectionEx@@YAP6AHPEAU_RTL_CRITICAL_SECTION@@KK@ZXZ@4QBW4module_id@?A0x49c8dc86@@B 000000018001a5b8     libvcruntime:winapi_downlevel.obj
 0002:000005e0       ?tokenTable@@3QBQEBDB      000000018001a5e0     libvcruntime:undname.obj
 0002:00000650       ?nameTable@@3QBQEBDB       000000018001a650     libvcruntime:undname.obj
 0002:000008d8       ?rttiTable@@3QBQEBDB       000000018001a8d8     libvcruntime:undname.obj
 0002:00001340       __acrt_initializers        000000018001b340     libucrt:initialization.obj
 0002:000014b0       errtable                   000000018001b4b0     libucrt:errno.obj
 0002:00001ca0       module_names               000000018001bca0     libucrt:winapi_thunks.obj
 0002:000021d0       ?candidate_modules@?1??try_get_FlsAlloc@@YAP6AKP6AXPEAX@Z@ZXZ@4QBW4module_id@?A0x63058377@@B 000000018001c1d0     libucrt:winapi_thunks.obj
 0002:000021d8       ?candidate_modules@?1??try_get_FlsFree@@YAP6AHK@ZXZ@4QBW4module_id@?A0x63058377@@B 000000018001c1d8     libucrt:winapi_thunks.obj
 0002:000021e0       ?candidate_modules@?1??try_get_FlsGetValue@@YAP6APEAXK@ZXZ@4QBW4module_id@?A0x63058377@@B 000000018001c1e0     libucrt:winapi_thunks.obj
 0002:000021e8       ?candidate_modules@?1??try_get_FlsSetValue@@YAP6AHKPEAX@ZXZ@4QBW4module_id@?A0x63058377@@B 000000018001c1e8     libucrt:winapi_thunks.obj
 0002:000021f0       ?candidate_modules@?1??try_get_GetActiveWindow@@YAP6APEAUHWND__@@XZXZ@4QBW4module_id@?A0x63058377@@B 000000018001c1f0     libucrt:winapi_thunks.obj
 0002:00002208       ?candidate_modules@?1??try_get_GetCurrentPackageId@@YAP6AJPEAIPEAE@ZXZ@4QBW4module_id@?A0x63058377@@B 000000018001c208     libucrt:winapi_thunks.obj
 0002:00002228       ?candidate_modules@?1??try_get_GetLastActivePopup@@YAP6APEAUHWND__@@PEAU2@@ZXZ@4QBW4module_id@?A0x63058377@@B 000000018001c228     libucrt:winapi_thunks.obj
 0002:00002248       ?candidate_modules@?1??try_get_GetProcessWindowStation@@YAP6APEAUHWINSTA__@@XZXZ@4QBW4module_id@?A0x63058377@@B 000000018001c248     libucrt:winapi_thunks.obj
 0002:00002268       ?candidate_modules@?1??try_get_GetUserObjectInformationW@@YAP6AHPEAXH0KPEAK@ZXZ@4QBW4module_id@?A0x63058377@@B 000000018001c268     libucrt:winapi_thunks.obj
 0002:00002290       ?candidate_modules@?1??try_get_InitializeCriticalSectionEx@@YAP6AHPEAU_RTL_CRITICAL_SECTION@@KK@ZXZ@4QBW4module_id@?A0x63058377@@B 000000018001c290     libucrt:winapi_thunks.obj
 0002:00002298       ?candidate_modules@?1??try_get_LCMapStringEx@@YAP6AHPEB_WK0HPEA_WHPEAU_nlsversioninfo@@PEAX_J@ZXZ@4QBW4module_id@?A0x63058377@@B 000000018001c298     libucrt:winapi_thunks.obj
 0002:000022b0       ?candidate_modules@?1??try_get_LocaleNameToLCID@@YAP6AKPEB_WK@ZXZ@4QBW4module_id@?A0x63058377@@B 000000018001c2b0     libucrt:winapi_thunks.obj
 0002:000022d0       ?candidate_modules@?1??try_get_MessageBoxA@@YAP6AHPEAUHWND__@@PEBD1I@ZXZ@4QBW4module_id@?A0x63058377@@B 000000018001c2d0     libucrt:winapi_thunks.obj
 0002:000022e8       ?candidate_modules@?1??try_get_MessageBoxW@@YAP6AHPEAUHWND__@@PEB_W1I@ZXZ@4QBW4module_id@?A0x63058377@@B 000000018001c2e8     libucrt:winapi_thunks.obj
 0002:00002300       _mb_locale_names           000000018001c300     libucrt:mbctype.obj
 0002:00002bd0       LcidToLocaleNameTable      000000018001cbd0     libucrt:lcidtoname_downlevel.obj
 0002:00004620       LocaleNameToIndexTable     000000018001e620     libucrt:lcidtoname_downlevel.obj
 0002:000068c0       __real_ninf                00000001800208c0     libucrt:log10.obj
 0002:000068d0       __real_inf                 00000001800208d0     libucrt:log10.obj
 0002:000068e0       __real_neg_qnan            00000001800208e0     libucrt:log10.obj
 0002:000068f0       __real_qnanbit             00000001800208f0     libucrt:log10.obj
 0002:00006900       __int_1023                 0000000180020900     libucrt:log10.obj
 0002:00006910       __mask_001                 0000000180020910     libucrt:log10.obj
 0002:00006920       __mask_mant                0000000180020920     libucrt:log10.obj
 0002:00006930       __mask_mant_top8           0000000180020930     libucrt:log10.obj
 0002:00006940       __mask_mant9               0000000180020940     libucrt:log10.obj
 0002:00006950       __real_log10_e             0000000180020950     libucrt:log10.obj
 0002:00006960       __real_log10_e_lead        0000000180020960     libucrt:log10.obj
 0002:00006970       __real_log10_e_tail        0000000180020970     libucrt:log10.obj
 0002:00006980       __real_log10_2_lead        0000000180020980     libucrt:log10.obj
 0002:00006990       __real_log10_2_tail        0000000180020990     libucrt:log10.obj
 0002:000069a0       __real_two                 00000001800209a0     libucrt:log10.obj
 0002:000069b0       __real_one                 00000001800209b0     libucrt:log10.obj
 0002:000069c0       __real_half                00000001800209c0     libucrt:log10.obj
 0002:000069d0       __mask_100                 00000001800209d0     libucrt:log10.obj
 0002:000069e0       __real_1_over_512          00000001800209e0     libucrt:log10.obj
 0002:000069f0       __real_1_over_2            00000001800209f0     libucrt:log10.obj
 0002:00006a00       __real_1_over_3            0000000180020a00     libucrt:log10.obj
 0002:00006a10       __real_1_over_4            0000000180020a10     libucrt:log10.obj
 0002:00006a20       __real_1_over_5            0000000180020a20     libucrt:log10.obj
 0002:00006a30       __real_1_over_6            0000000180020a30     libucrt:log10.obj
 0002:00006a40       __real_neg_1023            0000000180020a40     libucrt:log10.obj
 0002:00006a50       __mask_2045                0000000180020a50     libucrt:log10.obj
 0002:00006a60       __real_threshold           0000000180020a60     libucrt:log10.obj
 0002:00006a70       __real_near_one_lt         0000000180020a70     libucrt:log10.obj
 0002:00006a80       __real_near_one_gt         0000000180020a80     libucrt:log10.obj
 0002:00006a90       __real_min_norm            0000000180020a90     libucrt:log10.obj
 0002:00006aa0       __real_notsign             0000000180020aa0     libucrt:log10.obj
 0002:00006ab0       __real_ca1                 0000000180020ab0     libucrt:log10.obj
 0002:00006ac0       __real_ca2                 0000000180020ac0     libucrt:log10.obj
 0002:00006ad0       __real_ca3                 0000000180020ad0     libucrt:log10.obj
 0002:00006ae0       __real_ca4                 0000000180020ae0     libucrt:log10.obj
 0002:00006af0       __mask_lower               0000000180020af0     libucrt:log10.obj
 0002:00006b00       __flag_x_zero              0000000180020b00     libucrt:log10.obj
 0002:00006b04       __flag_x_neg               0000000180020b04     libucrt:log10.obj
 0002:00006b08       __flag_x_nan               0000000180020b08     libucrt:log10.obj
 0002:00008360       __real@433fffffffffffff    0000000180022360     libucrt:fpsr.obj
 0002:00008368       __real@c33fffffffffffff    0000000180022368     libucrt:fpsr.obj
 0002:00008930       crc_lookup                 0000000180022930     libogg:framing.obj
 0002:00008d30       mask                       0000000180022d30     libogg:bitwise.obj
 0002:00008db8       mask8B                     0000000180022db8     libogg:bitwise.obj
 0002:00009040       ?_TlgEvent@?3??__telemetry_main_invoke_trigger@@9@4U<unnamed-type-_TlgEvent>@?3??1@YAXQEAUHINSTANCE__@@@Z@B 0000000180023040     libvcruntime:telemetry.obj
 0002:0000907c       ?_TlgEvent@?3??__telemetry_main_return_trigger@@9@4U<unnamed-type-_TlgEvent>@?3??1@YAXQEAUHINSTANCE__@@@Z@B 000000018002307c     libvcruntime:telemetry.obj
 0002:000090b7       ?_Tlg_Microsoft_CRTProviderProv_Meta@@3U<unnamed-type-_Tlg_Microsoft_CRTProviderProv_Meta>@@B 00000001800230b7     libvcruntime:telemetry.obj
 0002:00009560       $unwind$?FunctionCallbackWrapper@imp@Nan@@YAXAEBV?$FunctionCallbackInfo@VValue@v8@@@v8@@@Z 0000000180023560     binding.obj
 0002:00009570       $unwind$?New@?$Factory@VFunctionTemplate@v8@@@imp@Nan@@SA?AV?$Local@VFunctionTemplate@v8@@@v8@@P6AXAEBV?$FunctionCallbackInfo@VValue@v8@@@3@@ZV?$Local@VValue@v8@@@5@V?$Local@VSignature@v8@@@5@@Z 0000000180023570     binding.obj
 0002:0000957c       $chain$0$?New@?$Factory@VFunctionTemplate@v8@@@imp@Nan@@SA?AV?$Local@VFunctionTemplate@v8@@@v8@@P6AXAEBV?$FunctionCallbackInfo@VValue@v8@@@3@@ZV?$Local@VValue@v8@@@5@V?$Local@VSignature@v8@@@5@@Z 000000018002357c     binding.obj
 0002:00009590       $chain$1$?New@?$Factory@VFunctionTemplate@v8@@@imp@Nan@@SA?AV?$Local@VFunctionTemplate@v8@@@v8@@P6AXAEBV?$FunctionCallbackInfo@VValue@v8@@@3@@ZV?$Local@VValue@v8@@@5@V?$Local@VSignature@v8@@@5@@Z 0000000180023590     binding.obj
 0002:000095a0       $unwind$??0Callback@Nan@@QEAA@AEBV?$Local@VFunction@v8@@@v8@@@Z 00000001800235a0     binding.obj
 0002:000095b0       $unwind$??0AsyncWorker@Nan@@QEAA@PEAVCallback@1@@Z 00000001800235b0     binding.obj
 0002:000095bc       $unwind$??1AsyncWorker@Nan@@UEAA@XZ 00000001800235bc     binding.obj
 0002:000095bc       $unwind$_mbsdec_l          00000001800235bc     libucrt:mbsdec.obj
 0002:000095bc       $unwind$?WorkComplete@AsyncWorker@Nan@@UEAAXXZ 00000001800235bc     binding.obj
 0002:000095c8       $unwind$?HandleOKCallback@AsyncWorker@Nan@@MEAAXXZ 00000001800235c8     binding.obj
 0002:000095d4       $unwind$?HandleOKCallback@OggStreamPacketinWorker@nodeogg@@UEAAXXZ 00000001800235d4     binding.obj
 0002:000095d4       $unwind$?HandleOKCallback@OggSyncWriteWorker@nodeogg@@UEAAXXZ 00000001800235d4     binding.obj
 0002:000095d4       $unwind$?HandleErrorCallback@AsyncWorker@Nan@@MEAAXXZ 00000001800235d4     binding.obj
 0002:000095d4       $unwind$?HandleOKCallback@OggStreamPageinWorker@nodeogg@@UEAAXXZ 00000001800235d4     binding.obj
 0002:000095e0       $unwind$??_GOggSyncWriteWorker@nodeogg@@UEAAPEAXI@Z 00000001800235e0     binding.obj
 0002:000095e0       $unwind$_os_body_expand    00000001800235e0     libogg:framing.obj
 0002:000095e0       $unwind$__vcrt_FlsGetValue 00000001800235e0     libvcruntime:winapi_downlevel.obj
 0002:000095e0       $unwind$_os_lacing_expand  00000001800235e0     libogg:framing.obj
 0002:000095e0       $unwind$_updatetlocinfoEx_nolock 00000001800235e0     libucrt:locale_refcounting.obj
 0002:000095e0       $unwind$??_GStreamFlushWorker@nodeogg@@UEAAPEAXI@Z 00000001800235e0     binding.obj
 0002:000095e0       $unwind$strncpy_s          00000001800235e0     libucrt:strncpy_s.obj
 0002:000095e0       $unwind$??_GOggSyncPageoutWorker@nodeogg@@UEAAPEAXI@Z 00000001800235e0     binding.obj
 0002:000095e0       $unwind$__acrt_FlsGetValue 00000001800235e0     libucrt:winapi_thunks.obj
 0002:000095e0       $unwind$_callnewh          00000001800235e0     libucrt:new_handler.obj
 0002:000095e0       $unwind$??0_LocaleUpdate@@QEAA@QEAU__crt_locale_pointers@@@Z 00000001800235e0     libucrt:stricmp.obj
 0002:000095e0       $unwind$_close_nolock      00000001800235e0     libucrt:close.obj
 0002:000095e0       $unwind$__acrt_FlsFree     00000001800235e0     libucrt:winapi_thunks.obj
 0002:000095e0       $unwind$??_GStreamPageoutWorker@nodeogg@@UEAAPEAXI@Z 00000001800235e0     binding.obj
 0002:000095e0       $unwind$__acrt_invoke_user_matherr 00000001800235e0     libucrt:matherr.obj
 0002:000095e0       $unwind$__acrt_get_parent_window 00000001800235e0     libucrt:winapi_thunks.obj
 0002:000095e0       $unwind$??_GAsyncWorker@Nan@@UEAAPEAXI@Z 00000001800235e0     binding.obj
 0002:000095e0       $unwind$ogg_stream_init    00000001800235e0     libogg:framing.obj
 0002:000095e0       $unwind$??_GOggStreamPageinWorker@nodeogg@@UEAAPEAXI@Z 00000001800235e0     binding.obj
 0002:000095e0       $unwind$wcsncat_s          00000001800235e0     libucrt:wcsncat_s.obj
 0002:000095e0       $unwind$__vcrt_FlsFree     00000001800235e0     libvcruntime:winapi_downlevel.obj
 0002:000095e0       $unwind$__acrt_FlsAlloc    00000001800235e0     libucrt:winapi_thunks.obj
 0002:000095e0       $unwind$??$common_xtox@K_W@@YAHKQEA_W_KI_N@Z 00000001800235e0     libucrt:xtoa.obj
 0002:000095e0       $unwind$__acrt_errno_map_os_error 00000001800235e0     libucrt:errno.obj
 0002:000095e0       $unwind$__vcrt_FlsAlloc    00000001800235e0     libvcruntime:winapi_downlevel.obj
 0002:000095e0       $unwind$__vcrt_EventUnregister 00000001800235e0     libvcruntime:winapi_downlevel.obj
 0002:000095e0       $unwind$??_Gbad_array_new_length@std@@UEAAPEAXI@Z 00000001800235e0     LIBCMT:throw_bad_alloc.obj
 0002:000095e0       $unwind$?try_cor_exit_process@@YAXI@Z 00000001800235e0     libucrt:exit.obj
 0002:000095e0       $unwind$??_Gbad_alloc@std@@UEAAPEAXI@Z 00000001800235e0     LIBCMT:throw_bad_alloc.obj
 0002:000095e0       $unwind$ogg_sync_buffer    00000001800235e0     libogg:framing.obj
 0002:000095e0       $unwind$?replace_current_thread_locale_nolock@@YAXQEAU__acrt_ptd@@QEAU__crt_locale_data@@@Z 00000001800235e0     libucrt:per_thread_data.obj
 0002:000095e0       $unwind$?DloadAcquireSectionWriteAccess@@YAXXZ 00000001800235e0     DelayImp:delayhlp.obj
 0002:000095e0       $unwind$_realloc_base      00000001800235e0     libucrt:realloc_base.obj
 0002:000095e0       $unwind$?internal_isupper_l@@YA_NHQEAU__crt_locale_pointers@@@Z 00000001800235e0     libucrt:tolower_toupper.obj
 0002:000095e0       $unwind$??_GOggStreamPacketoutWorker@nodeogg@@UEAAPEAXI@Z 00000001800235e0     binding.obj
 0002:000095e0       $unwind$_fclose_nolock     00000001800235e0     libucrt:fclose.obj
 0002:000095e0       $unwind$??_Gexception@std@@UEAAPEAXI@Z 00000001800235e0     LIBCMT:throw_bad_alloc.obj
 0002:000095e0       $unwind$??$common_initialize_environment_nolock@D@@YAHXZ 00000001800235e0     libucrt:environment_initialization.obj
 0002:000095e0       $unwind$?force_decimal_point@__crt_stdio_output@@YAXPEADQEAU__crt_locale_pointers@@@Z 00000001800235e0     libucrt:output.obj
 0002:000095e0       $unwind$?DloadGetSRWLockFunctionPointers@@YAEXZ 00000001800235e0     DelayImp:delayhlp.obj
 0002:000095e0       $unwind$__acrt_getptd      00000001800235e0     libucrt:per_thread_data.obj
 0002:000095e0       $unwind$__acrt_stdio_begin_temporary_buffering_nolock 00000001800235e0     libucrt:_sftbuf.obj
 0002:000095e0       $unwind$??_GOggStreamPacketinWorker@nodeogg@@UEAAPEAXI@Z 00000001800235e0     binding.obj
 0002:000095e0       $unwind$__acrt_uninitialize_lowio 00000001800235e0     libucrt:ioinit.obj
 0002:000095ec       $unwind$_onexit            00000001800235ec     LIBCMT:utility.obj
 0002:000095ec       $unwind$__vcrt_uninitialize 00000001800235ec     libvcruntime:initialization.obj
 0002:000095ec       $unwind$?type_case_integer@?$output_processor@_WV?$string_output_adapter@_W@__crt_stdio_output@@V?$standard_base@_WV?$string_output_adapter@_W@__crt_stdio_output@@@2@@__crt_stdio_output@@AEAA_NI_N@Z 00000001800235ec     libucrt:output.obj
 0002:000095ec       $unwind$__acrt_allocate_buffer_for_argv 00000001800235ec     libucrt:argv_parsing.obj
 0002:000095ec       $unwind$__acrt_stdio_allocate_buffer_nolock 00000001800235ec     libucrt:_getbuf.obj
 0002:000095ec       $unwind$??0?$output_processor@_WV?$stream_output_adapter@_W@__crt_stdio_output@@V?$standard_base@_WV?$stream_output_adapter@_W@__crt_stdio_output@@@2@@__crt_stdio_output@@QEAA@AEBV?$stream_output_adapter@_W@1@_KQEB_WQEAU__crt_locale_pointers@@QEAD@Z 00000001800235ec     libucrt:output.obj
 0002:000095ec       $unwind$__acrt_stdio_free_buffer_nolock 00000001800235ec     libucrt:_freebuf.obj
 0002:000095ec       $unwind$_fflush_nolock     00000001800235ec     libucrt:fflush.obj
 0002:000095ec       $unwind$__scrt_release_startup_lock 00000001800235ec     LIBCMT:utility.obj
 0002:000095ec       $unwind$__acrt_initialize_locks 00000001800235ec     libucrt:locks.obj
 0002:000095ec       $unwind$_purecall          00000001800235ec     libvcruntime:purevirt.obj
 0002:000095ec       $unwind$__scrt_initialize_crt 00000001800235ec     LIBCMT:utility.obj
 0002:000095ec       $unwind$_malloc_base       00000001800235ec     libucrt:malloc_base.obj
 0002:000095ec       $unwind$?DloadReleaseSectionWriteAccess@@YAXXZ 00000001800235ec     DelayImp:delayhlp.obj
 0002:000095ec       $unwind$oggpackB_writeclear 00000001800235ec     libogg:bitwise.obj
 0002:000095ec       $unwind$__acrt_uninitialize_locks 00000001800235ec     libucrt:locks.obj
 0002:000095ec       $unwind$??0?$output_processor@_WV?$string_output_adapter@_W@__crt_stdio_output@@V?$standard_base@_WV?$string_output_adapter@_W@__crt_stdio_output@@@2@@__crt_stdio_output@@QEAA@AEBV?$string_output_adapter@_W@1@_KQEB_WQEAU__crt_locale_pointers@@QEAD@Z 00000001800235ec     libucrt:output.obj
 0002:000095ec       $unwind$oggpack_writeclear 00000001800235ec     libogg:bitwise.obj
 0002:000095ec       $unwind$??_Gtype_info@@UEAAPEAXI@Z 00000001800235ec     LIBCMT:std_type_info_static.obj
 0002:000095ec       $unwind$__vcrt_initialize_locks 00000001800235ec     libvcruntime:locks.obj
 0002:000095ec       $unwind$_calloc_base       00000001800235ec     libucrt:calloc_base.obj
 0002:000095ec       $unwind$__acrt_fp_strflt_to_string 00000001800235ec     libucrt:_fptostr.obj
 0002:000095ec       $unwind$__scrt_uninitialize_crt 00000001800235ec     LIBCMT:utility.obj
 0002:000095ec       $unwind$??2@YAPEAX_K@Z     00000001800235ec     LIBCMT:new_scalar.obj
 0002:000095ec       $unwind$?Execute@OggStreamPacketoutWorker@nodeogg@@UEAAXXZ 00000001800235ec     binding.obj
 0002:000095ec       $unwind$ogg_sync_destroy   00000001800235ec     libogg:framing.obj
 0002:000095ec       $unwind$??0exception@std@@QEAA@AEBV01@@Z 00000001800235ec     LIBCMT:throw_bad_alloc.obj
 0002:000095ec       $unwind$__vcrt_uninitialize_locks 00000001800235ec     libvcruntime:locks.obj
 0002:000095ec       $unwind$__std_type_info_destroy_list 00000001800235ec     libvcruntime:std_type_info.obj
 0002:000095ec       $unwind$?Execute@StreamPageoutWorker@nodeogg@@UEAAXXZ 00000001800235ec     binding.obj
 0002:000095ec       $unwind$strcpy_s           00000001800235ec     libucrt:strcpy_s.obj
 0002:000095ec       $unwind$?Execute@OggStreamPageinWorker@nodeogg@@UEAAXXZ 00000001800235ec     binding.obj
 0002:000095ec       $unwind$ogg_stream_clear   00000001800235ec     libogg:framing.obj
 0002:000095ec       $unwind$?type_case_integer@?$output_processor@_WV?$stream_output_adapter@_W@__crt_stdio_output@@V?$standard_base@_WV?$stream_output_adapter@_W@__crt_stdio_output@@@2@@__crt_stdio_output@@AEAA_NI_N@Z 00000001800235ec     libucrt:output.obj
 0002:000095ec       $unwind$ogg_sync_clear     00000001800235ec     libogg:framing.obj
 0002:000095ec       $unwind$?Execute@StreamFlushWorker@nodeogg@@UEAAXXZ 00000001800235ec     binding.obj
 0002:000095ec       $unwind$??0bad_alloc@std@@QEAA@AEBV01@@Z 00000001800235ec     LIBCMT:throw_bad_alloc.obj
 0002:000095ec       $unwind$__std_exception_destroy 00000001800235ec     libvcruntime:std_exception.obj
 0002:000095ec       $unwind$initialize_pointers 00000001800235ec     libucrt:initialization.obj
 0002:000095ec       $unwind$__vcrt_freeptd     00000001800235ec     libvcruntime:per_thread_data.obj
 0002:000095ec       $unwind$?Execute@OggSyncPageoutWorker@nodeogg@@UEAAXXZ 00000001800235ec     binding.obj
 0002:000095ec       $unwind$_set_statfp        00000001800235ec     libucrt:fpctrl.obj
 0002:000095ec       $unwind$ogg_stream_destroy 00000001800235ec     libogg:framing.obj
 0002:000095ec       $unwind$??$message_box_wait_thread@_W@@YAKQEAX@Z 00000001800235ec     libucrt:crtmbox.obj
 0002:000095ec       $unwind$__acrt_uninitialize_winapi_thunks 00000001800235ec     libucrt:winapi_thunks.obj
 0002:000095ec       $unwind$??0bad_array_new_length@std@@QEAA@AEBV01@@Z 00000001800235ec     LIBCMT:throw_bad_alloc.obj
 0002:000095ec       $unwind$wcscat_s           00000001800235ec     libucrt:wcscat_s.obj
 0002:000095ec       $unwind$uninitialize_allocated_memory 00000001800235ec     libucrt:initialization.obj
 0002:000095ec       $unwind$__acrt_update_locale_info 00000001800235ec     libucrt:locale_update.obj
 0002:000095ec       $unwind$?Execute@OggSyncWriteWorker@nodeogg@@UEAAXXZ 00000001800235ec     binding.obj
 0002:000095ec       $unwind$wcscpy_s           00000001800235ec     libucrt:wcscpy_s.obj
 0002:000095ec       $unwind$fesetenv           00000001800235ec     libucrt:fesetenv.obj
 0002:000095ec       $unwind$__acrt_update_multibyte_info 00000001800235ec     libucrt:locale_update.obj
 0002:000095ec       $unwind$__acrt_can_show_message_box 00000001800235ec     libucrt:winapi_thunks.obj
 0002:000095ec       $unwind$?AsyncExecuteComplete@Nan@@YAXPEAUuv_work_s@@@Z 00000001800235ec     binding.obj
 0002:000095ec       $unwind$_clearfp           00000001800235ec     libucrt:ieee.obj
 0002:000095ec       $unwind$oggpackB_writeinit 00000001800235ec     libogg:bitwise.obj
 0002:000095ec       $unwind$__acrt_uninitialize_stdio 00000001800235ec     libucrt:_file.obj
 0002:000095ec       $unwind$oggpack_writeinit  00000001800235ec     libogg:bitwise.obj
 0002:000095ec       $unwind$fegetenv           00000001800235ec     libucrt:fegetenv.obj
 0002:000095ec       $unwind$_clrfp             00000001800235ec     libucrt:fpctrl.obj
 0002:000095ec       $unwind$load_exe_hook      00000001800235ec     win_delay_load_hook.obj
 0002:000095ec       $unwind$_setfpstatusword   00000001800235ec     libucrt:_fenvutils.obj
 0002:000095ec       $unwind$__acrt_freeptd     00000001800235ec     libucrt:per_thread_data.obj
 0002:000095ec       $unwind$ogg_packet_clear   00000001800235ec     libogg:framing.obj
 0002:000095ec       $unwind$?exit_or_terminate_process@@YAXI@Z 00000001800235ec     libucrt:exit.obj
 0002:000095ec       $unwind$feholdexcept       00000001800235ec     libucrt:feholdexcept.obj
 0002:000095ec       $unwind$__raise_securityfailure 00000001800235ec     LIBCMT:gs_report.obj
 0002:000095f4       $unwind$?node_ogg_sync_init@nodeogg@@YAXAEBV?$FunctionCallbackInfo@VValue@v8@@@Nan@@@Z 00000001800235f4     binding.obj
 0002:000095f4       $unwind$?node_ogg_stream_init@nodeogg@@YAXAEBV?$FunctionCallbackInfo@VValue@v8@@@Nan@@@Z 00000001800235f4     binding.obj
 0002:000095f4       $unwind$capture_current_context 00000001800235f4     LIBCMT:gs_report.obj
 0002:00009600       $unwind$?node_ogg_stream_flush@nodeogg@@YAXAEBV?$FunctionCallbackInfo@VValue@v8@@@Nan@@@Z 0000000180023600     binding.obj
 0002:00009600       $unwind$?node_ogg_sync_write@nodeogg@@YAXAEBV?$FunctionCallbackInfo@VValue@v8@@@Nan@@@Z 0000000180023600     binding.obj
 0002:00009600       $unwind$?node_ogg_stream_pageout@nodeogg@@YAXAEBV?$FunctionCallbackInfo@VValue@v8@@@Nan@@@Z 0000000180023600     binding.obj
 0002:00009614       $unwind$?HandleOKCallback@OggSyncPageoutWorker@nodeogg@@UEAAXXZ 0000000180023614     binding.obj
 0002:00009634       $unwind$?node_ogg_sync_pageout@nodeogg@@YAXAEBV?$FunctionCallbackInfo@VValue@v8@@@Nan@@@Z 0000000180023634     binding.obj
 0002:00009634       $unwind$?node_ogg_stream_packetout@nodeogg@@YAXAEBV?$FunctionCallbackInfo@VValue@v8@@@Nan@@@Z 0000000180023634     binding.obj
 0002:00009634       $unwind$?node_ogg_stream_pagein@nodeogg@@YAXAEBV?$FunctionCallbackInfo@VValue@v8@@@Nan@@@Z 0000000180023634     binding.obj
 0002:00009634       $unwind$?node_ogg_stream_packetin@nodeogg@@YAXAEBV?$FunctionCallbackInfo@VValue@v8@@@Nan@@@Z 0000000180023634     binding.obj
 0002:00009648       $unwind$?HandleOKCallback@OggStreamPacketoutWorker@nodeogg@@UEAAXXZ 0000000180023648     binding.obj
 0002:00009664       $chain$0$?HandleOKCallback@OggStreamPacketoutWorker@nodeogg@@UEAAXXZ 0000000180023664     binding.obj
 0002:00009678       $chain$1$?HandleOKCallback@OggStreamPacketoutWorker@nodeogg@@UEAAXXZ 0000000180023678     binding.obj
 0002:0000968c       $chain$2$?HandleOKCallback@OggStreamPacketoutWorker@nodeogg@@UEAAXXZ 000000018002368c     binding.obj
 0002:0000969c       $chain$3$?HandleOKCallback@OggStreamPacketoutWorker@nodeogg@@UEAAXXZ 000000018002369c     binding.obj
 0002:000096ac       $unwind$_isleadbyte_l      00000001800236ac     libucrt:_wctype.obj
 0002:000096ac       $unwind$?_TlgWrite@__vcrt_trace_logging_provider@@YAJPEBU_TlgProvider_t@1@PEFBXPEBU_GUID@@2IPEAU_EVENT_DATA_DESCRIPTOR@@@Z 00000001800236ac     libvcruntime:telemetry.obj
 0002:000096ac       $unwind$?getSystemCP@@YAHH@Z 00000001800236ac     libucrt:mbctype.obj
 0002:000096ac       $unwind$isdigit            00000001800236ac     libucrt:_ctype.obj
 0002:000096ac       $unwind$?Execute@OggStreamPacketinWorker@nodeogg@@UEAAXXZ 00000001800236ac     binding.obj
 0002:000096b4       $unwind$?HandleOKCallback@StreamWorker@nodeogg@@UEAAXXZ 00000001800236b4     binding.obj
 0002:000096d0       $chain$0$?HandleOKCallback@StreamWorker@nodeogg@@UEAAXXZ 00000001800236d0     binding.obj
 0002:000096e4       $chain$1$?HandleOKCallback@StreamWorker@nodeogg@@UEAAXXZ 00000001800236e4     binding.obj
 0002:000096f8       $chain$2$?HandleOKCallback@StreamWorker@nodeogg@@UEAAXXZ 00000001800236f8     binding.obj
 0002:00009708       $chain$3$?HandleOKCallback@StreamWorker@nodeogg@@UEAAXXZ 0000000180023708     binding.obj
 0002:00009718       $unwind$?node_ogg_packet_set_packet@nodeogg@@YAXAEBV?$FunctionCallbackInfo@VValue@v8@@@Nan@@@Z 0000000180023718     binding.obj
 0002:00009718       $unwind$?node_ogg_packet_replace_buffer@nodeogg@@YAXAEBV?$FunctionCallbackInfo@VValue@v8@@@Nan@@@Z 0000000180023718     binding.obj
 0002:00009718       $unwind$?node_ogg_page_to_buffer@nodeogg@@YAXAEBV?$FunctionCallbackInfo@VValue@v8@@@Nan@@@Z 0000000180023718     binding.obj
 0002:0000972c       $unwind$?node_ogg_packet_get_packet@nodeogg@@YAXAEBV?$FunctionCallbackInfo@VValue@v8@@@Nan@@@Z 000000018002372c     binding.obj
 0002:0000973c       $unwind$?node_ogg_packet_granulepos@nodeogg@@YAXAEBV?$FunctionCallbackInfo@VValue@v8@@@Nan@@@Z 000000018002373c     binding.obj
 0002:0000973c       $unwind$?node_ogg_packet_packetno@nodeogg@@YAXAEBV?$FunctionCallbackInfo@VValue@v8@@@Nan@@@Z 000000018002373c     binding.obj
 0002:0000973c       $unwind$?node_ogg_packet_bytes@nodeogg@@YAXAEBV?$FunctionCallbackInfo@VValue@v8@@@Nan@@@Z 000000018002373c     binding.obj
 0002:0000973c       $unwind$?node_ogg_packet_e_o_s@nodeogg@@YAXAEBV?$FunctionCallbackInfo@VValue@v8@@@Nan@@@Z 000000018002373c     binding.obj
 0002:0000973c       $unwind$?node_ogg_packet_b_o_s@nodeogg@@YAXAEBV?$FunctionCallbackInfo@VValue@v8@@@Nan@@@Z 000000018002373c     binding.obj
 0002:0000974c       $unwind$?Initialize@nodeogg@@YAXV?$Local@VObject@v8@@@v8@@@Z 000000018002374c     binding.obj
 0002:0000975c       $unwind$ogg_page_checksum_set 000000018002375c     libogg:framing.obj
 0002:0000975c       $unwind$ogg_stream_packetpeek 000000018002375c     libogg:framing.obj
 0002:0000975c       $unwind$oggpack_look       000000018002375c     libogg:bitwise.obj
 0002:00009764       $chain$0$ogg_page_checksum_set 0000000180023764     libogg:framing.obj
 0002:00009778       $chain$1$ogg_page_checksum_set 0000000180023778     libogg:framing.obj
 0002:0000978c       $chain$2$ogg_page_checksum_set 000000018002378c     libogg:framing.obj
 0002:0000979c       $chain$3$ogg_page_checksum_set 000000018002379c     libogg:framing.obj
 0002:000097ac       $unwind$ogg_stream_iovecin 00000001800237ac     libogg:framing.obj
 0002:000097b8       $chain$3$ogg_stream_iovecin 00000001800237b8     libogg:framing.obj
 0002:000097d8       $chain$4$ogg_stream_iovecin 00000001800237d8     libogg:framing.obj
 0002:000097ec       $chain$5$ogg_stream_iovecin 00000001800237ec     libogg:framing.obj
 0002:000097fc       $chain$7$ogg_stream_iovecin 00000001800237fc     libogg:framing.obj
 0002:0000981c       $chain$8$ogg_stream_iovecin 000000018002381c     libogg:framing.obj
 0002:0000982c       $unwind$_raise_exc         000000018002382c     libucrt:fpexcept.obj
 0002:0000982c       $unwind$ogg_stream_packetin 000000018002382c     libogg:framing.obj
 0002:0000982c       $unwind$?__scrt_throw_std_bad_array_new_length@@YAXXZ 000000018002382c     LIBCMT:throw_bad_alloc.obj
 0002:0000982c       $unwind$?__scrt_throw_std_bad_alloc@@YAXXZ 000000018002382c     LIBCMT:throw_bad_alloc.obj
 0002:0000982c       $unwind$__dcrt_lowio_initialize_console_output 000000018002382c     libucrt:initcon.obj
 0002:00009834       $unwind$ogg_stream_flush_i 0000000180023834     libogg:framing.obj
 0002:0000984c       $chain$2$ogg_stream_flush_i 000000018002384c     libogg:framing.obj
 0002:00009860       $chain$3$ogg_stream_flush_i 0000000180023860     libogg:framing.obj
 0002:00009870       $unwind$ogg_sync_pageseek  0000000180023870     libogg:framing.obj
 0002:00009888       $unwind$ogg_sync_pageout   0000000180023888     libogg:framing.obj
 0002:000098a4       $unwind$ogg_stream_pagein  00000001800238a4     libogg:framing.obj
 0002:000098b8       $chain$0$ogg_stream_pagein 00000001800238b8     libogg:framing.obj
 0002:000098cc       $chain$2$ogg_stream_pagein 00000001800238cc     libogg:framing.obj
 0002:000098e0       $chain$3$ogg_stream_pagein 00000001800238e0     libogg:framing.obj
 0002:000098f0       $unwind$_packetout         00000001800238f0     libogg:framing.obj
 0002:000098f8       $chain$0$_packetout        00000001800238f8     libogg:framing.obj
 0002:0000990c       $chain$2$_packetout        000000018002390c     libogg:framing.obj
 0002:00009920       $chain$3$_packetout        0000000180023920     libogg:framing.obj
 0002:00009934       $chain$4$_packetout        0000000180023934     libogg:framing.obj
 0002:00009948       $chain$5$_packetout        0000000180023948     libogg:framing.obj
 0002:00009958       $chain$6$_packetout        0000000180023958     libogg:framing.obj
 0002:00009968       $chain$0$ogg_stream_packetpeek 0000000180023968     libogg:framing.obj
 0002:0000997c       $chain$2$ogg_stream_packetpeek 000000018002397c     libogg:framing.obj
 0002:00009990       $chain$4$ogg_stream_packetpeek 0000000180023990     libogg:framing.obj
 0002:000099a8       $chain$5$ogg_stream_packetpeek 00000001800239a8     libogg:framing.obj
 0002:000099b8       $chain$6$ogg_stream_packetpeek 00000001800239b8     libogg:framing.obj
 0002:000099c8       $unwind$oggpackB_write     00000001800239c8     libogg:bitwise.obj
 0002:000099c8       $unwind$__vcrt_FlsSetValue 00000001800239c8     libvcruntime:winapi_downlevel.obj
 0002:000099c8       $unwind$??R<lambda_ad1ced32f4ac17aa236e5ef05d6b3b7c>@@QEBAXXZ 00000001800239c8     libucrt:mbctype.obj
 0002:000099c8       $unwind$?free_crt_array_internal@@YAXQEAPEBX_K@Z 00000001800239c8     libucrt:inittime.obj
 0002:000099c8       $unwind$?TraceLoggingRegister@__vcrt_trace_logging_provider@@YAJPEBU_TlgProvider_t@1@PEBU_GUID@@P6AX1KE_K2PEAU_EVENT_FILTER_DESCRIPTOR@@PEAX@Z4@Z 00000001800239c8     libvcruntime:telemetry.obj
 0002:000099c8       $unwind$oggpack_write      00000001800239c8     libogg:bitwise.obj
 0002:000099c8       $unwind$??$common_lseek_nolock@_J@@YA_JH_JH@Z 00000001800239c8     libucrt:lseek.obj
 0002:000099c8       $unwind$_RTC_Initialize    00000001800239c8     LIBCMT:_initsect_.obj
 0002:000099c8       $unwind$_RTC_Terminate     00000001800239c8     LIBCMT:_initsect_.obj
 0002:000099c8       $unwind$memcpy_s           00000001800239c8     libucrt:cfout.obj
 0002:000099c8       $unwind$__acrt_stdio_flush_and_write_wide_nolock 00000001800239c8     libucrt:_flsbuf.obj
 0002:000099c8       $unwind$?type_case_n@?$output_processor@_WV?$stream_output_adapter@_W@__crt_stdio_output@@V?$standard_base@_WV?$stream_output_adapter@_W@__crt_stdio_output@@@2@@__crt_stdio_output@@AEAA_NXZ 00000001800239c8     libucrt:output.obj
 0002:000099c8       $unwind$__acrt_stdio_flush_and_write_narrow_nolock 00000001800239c8     libucrt:_flsbuf.obj
 0002:000099c8       $unwind$__acrt_stdio_flush_nolock 00000001800239c8     libucrt:fflush.obj
 0002:000099c8       $unwind$__acrt_LocaleNameToLCID 00000001800239c8     libucrt:winapi_thunks.obj
 0002:000099c8       $unwind$_exception_enabled 00000001800239c8     libucrt:libm_error.obj
 0002:000099c8       $unwind$?type_case_s@?$output_processor@_WV?$stream_output_adapter@_W@__crt_stdio_output@@V?$standard_base@_WV?$stream_output_adapter@_W@__crt_stdio_output@@@2@@__crt_stdio_output@@AEAA_NXZ 00000001800239c8     libucrt:output.obj
 0002:000099c8       $unwind$_DllMainCRTStartup 00000001800239c8     LIBCMT:dll_dllmain.obj
 0002:000099c8       $unwind$?type_case_Z@?$output_processor@_WV?$stream_output_adapter@_W@__crt_stdio_output@@V?$standard_base@_WV?$stream_output_adapter@_W@__crt_stdio_output@@@2@@__crt_stdio_output@@AEAA_NXZ 00000001800239c8     libucrt:output.obj
 0002:000099c8       $unwind$?type_case_Z@?$output_processor@_WV?$string_output_adapter@_W@__crt_stdio_output@@V?$standard_base@_WV?$string_output_adapter@_W@__crt_stdio_output@@@2@@__crt_stdio_output@@AEAA_NXZ 00000001800239c8     libucrt:output.obj
 0002:000099c8       $unwind$__vcrt_getptd_noexit 00000001800239c8     libvcruntime:per_thread_data.obj
 0002:000099c8       $unwind$?type_case_s@?$output_processor@_WV?$string_output_adapter@_W@__crt_stdio_output@@V?$standard_base@_WV?$string_output_adapter@_W@__crt_stdio_output@@@2@@__crt_stdio_output@@AEAA_NXZ 00000001800239c8     libucrt:output.obj
 0002:000099c8       $unwind$_initterm_e        00000001800239c8     libucrt:initterm.obj
 0002:000099c8       $unwind$__acrt_getptd_noexit 00000001800239c8     libucrt:per_thread_data.obj
 0002:000099c8       $unwind$?type_case_n@?$output_processor@_WV?$string_output_adapter@_W@__crt_stdio_output@@V?$standard_base@_WV?$string_output_adapter@_W@__crt_stdio_output@@@2@@__crt_stdio_output@@AEAA_NXZ 00000001800239c8     libucrt:output.obj
 0002:000099c8       $unwind$__acrt_execute_uninitializers 00000001800239c8     libucrt:shared_initialization.obj
 0002:000099c8       $unwind$__acrt_FlsSetValue 00000001800239c8     libucrt:winapi_thunks.obj
 0002:000099d8       $unwind$?try_get_function@@YAPEAXW4function_id@?A0x49c8dc86@@QEBDQEBW4module_id@2@2@Z 00000001800239d8     libvcruntime:winapi_downlevel.obj
 0002:000099d8       $unwind$?write_string@?$string_output_adapter@_W@__crt_stdio_output@@QEBAXQEB_WHQEAH1@Z 00000001800239d8     libucrt:output.obj
 0002:000099d8       $unwind$?try_get_function@@YAPEAXW4function_id@?A0x63058377@@QEBDQEBW4module_id@2@2@Z 00000001800239d8     libucrt:winapi_thunks.obj
 0002:000099d8       $unwind$oggpack_writecopy_helper 00000001800239d8     libogg:bitwise.obj
 0002:000099f4       $unwind$_invalid_parameter_noinfo 00000001800239f4     libucrt:invalid_parameter.obj
 0002:000099f4       $unwind$oggpack_writecopy  00000001800239f4     libogg:bitwise.obj
 0002:000099f4       $unwind$_log10_special     00000001800239f4     libucrt:log_special.obj
 0002:000099f4       $unwind$wctomb_s           00000001800239f4     libucrt:wctomb.obj
 0002:000099f4       $unwind$oggpackB_writecopy 00000001800239f4     libogg:bitwise.obj
 0002:000099f4       $unwind$_itow_s            00000001800239f4     libucrt:xtoa.obj
 0002:000099fc       $chain$0$oggpack_look      00000001800239fc     libogg:bitwise.obj
 0002:00009a10       $chain$2$oggpack_look      0000000180023a10     libogg:bitwise.obj
 0002:00009a10       $chain$4$oggpack_look      0000000180023a10     libogg:bitwise.obj
 0002:00009a24       $chain$5$oggpack_look      0000000180023a24     libogg:bitwise.obj
 0002:00009a34       $unwind$??$type_case_integer_parse_into_buffer@_K@?$output_processor@_WV?$string_output_adapter@_W@__crt_stdio_output@@V?$standard_base@_WV?$string_output_adapter@_W@__crt_stdio_output@@@2@@__crt_stdio_output@@AEAAX_KI_N@Z 0000000180023a34     libucrt:output.obj
 0002:00009a34       $unwind$??$type_case_integer_parse_into_buffer@I@?$output_processor@_WV?$stream_output_adapter@_W@__crt_stdio_output@@V?$standard_base@_WV?$stream_output_adapter@_W@__crt_stdio_output@@@2@@__crt_stdio_output@@AEAAXII_N@Z 0000000180023a34     libucrt:output.obj
 0002:00009a34       $unwind$??$type_case_integer_parse_into_buffer@_K@?$output_processor@_WV?$stream_output_adapter@_W@__crt_stdio_output@@V?$standard_base@_WV?$stream_output_adapter@_W@__crt_stdio_output@@@2@@__crt_stdio_output@@AEAAX_KI_N@Z 0000000180023a34     libucrt:output.obj
 0002:00009a34       $unwind$oggpackB_look      0000000180023a34     libogg:bitwise.obj
 0002:00009a34       $unwind$??$type_case_integer_parse_into_buffer@I@?$output_processor@_WV?$string_output_adapter@_W@__crt_stdio_output@@V?$standard_base@_WV?$string_output_adapter@_W@__crt_stdio_output@@@2@@__crt_stdio_output@@AEAAXII_N@Z 0000000180023a34     libucrt:output.obj
 0002:00009a3c       $unwind$oggpack_read       0000000180023a3c     libogg:bitwise.obj
 0002:00009a48       $chain$0$oggpack_read      0000000180023a48     libogg:bitwise.obj
 0002:00009a5c       $chain$1$oggpack_read      0000000180023a5c     libogg:bitwise.obj
 0002:00009a6c       $unwind$oggpackB_read      0000000180023a6c     libogg:bitwise.obj
 0002:00009a78       xdata                      0000000180023a78     node:node.exe
 0002:00009a80       $xdatasym                  0000000180023a80     LIBCMT:_amdsecgs_.obj
 0002:00009a84       $unwind$?dllmain_crt_process_attach@@YAHQEAUHINSTANCE__@@QEAX@Z 0000000180023a84     LIBCMT:dll_dllmain.obj
 0002:00009ab0       $unwind$?dllmain_crt_process_detach@@YAH_N@Z 0000000180023ab0     LIBCMT:dll_dllmain.obj
 0002:00009ad8       $unwind$?dllmain_dispatch@@YAHQEAUHINSTANCE__@@KQEAX@Z 0000000180023ad8     LIBCMT:dll_dllmain.obj
 0002:00009b00       $unwind$?filt$0@?0??dllmain_dispatch@@YAHQEAUHINSTANCE__@@KQEAX@Z@4HA 0000000180023b00     LIBCMT:dll_dllmain.obj
 0002:00009b08       $unwind$__report_securityfailure 0000000180023b08     LIBCMT:gs_report.obj
 0002:00009b10       $unwind$capture_previous_context 0000000180023b10     LIBCMT:gs_report.obj
 0002:00009b1c       $unwind$__scrt_is_nonwritable_in_current_image 0000000180023b1c     LIBCMT:utility.obj
 0002:00009b3c       $unwind$__scrt_is_nonwritable_in_current_image$filt$0 0000000180023b3c     LIBCMT:utility.obj
 0002:00009b44       $unwind$__scrt_initialize_onexit_tables 0000000180023b44     LIBCMT:utility.obj
 0002:00009b50       $unwind$__security_init_cookie 0000000180023b50     LIBCMT:gs_support.obj
 0002:00009b5c       $unwind$__scrt_fastfail    0000000180023b5c     LIBCMT:utility_desktop.obj
 0002:00009b6c       $unwind$__isa_available_init 0000000180023b6c     LIBCMT:_cpu_disp_.obj
 0002:00009b78       $xdatasym                  0000000180023b78     LIBCMT:_guard_dispatch_.obj
 0002:00009b80       $xdatasym                  0000000180023b80     libvcruntime:memcpy.obj
 0002:00009b84       $unwind$__telemetry_main_invoke_trigger 0000000180023b84     libvcruntime:telemetry.obj
 0002:00009b84       $unwind$__telemetry_main_return_trigger 0000000180023b84     libvcruntime:telemetry.obj
 0002:00009b9c       $unwind$?_TlgEnableCallback@__vcrt_trace_logging_provider@@YAXPEBU_GUID@@KE_K1PEAU_EVENT_FILTER_DESCRIPTOR@@PEAX@Z 0000000180023b9c     libvcruntime:telemetry.obj
 0002:00009bb8       $unwind$__C_specific_handler 0000000180023bb8     libvcruntime:_chandler_.obj
 0002:00009bd4       $unwind$_CxxThrowException 0000000180023bd4     libvcruntime:throw.obj
 0002:00009be8       $xdatasym                  0000000180023be8     libvcruntime:memset.obj
 0002:00009bec       $unwind$__vcrt_initialize_winapi_thunks 0000000180023bec     libvcruntime:winapi_downlevel.obj
 0002:00009bec       $unwind$__acrt_initialize_winapi_thunks 0000000180023bec     libucrt:winapi_thunks.obj
 0002:00009bf8       $xdatasym                  0000000180023bf8     libvcruntime:_jmpuwind_.obj
 0002:00009c0c       $unwind$fwprintf           0000000180023c0c     libucrt:assert.obj
 0002:00009c18       $unwind$swprintf           0000000180023c18     libucrt:assert.obj
 0002:00009c28       $unwind$??$common_assert_to_stderr@_W@@YAXQEB_W0I@Z 0000000180023c28     libucrt:assert.obj
 0002:00009c44       $unwind$??$common_assert_to_message_box@_W@@YAXQEB_W0IQEAX@Z 0000000180023c44     libucrt:assert.obj
 0002:00009c60       $unwind$??$common_assert_to_message_box_build_string@_W@@YAXQEA_W_KQEB_W2IQEAX@Z 0000000180023c60     libucrt:assert.obj
 0002:00009c80       $unwind$_query_new_handler 0000000180023c80     libucrt:new_handler.obj
 0002:00009ca0       $unwind$fflush$fin$0       0000000180023ca0     libucrt:fflush.obj
 0002:00009ca0       $unwind$?fin$0@?0???$?RV<lambda_fb3a7dec4e47f37f22dae91bb15c9095>@@AEAV<lambda_698284760c8add0bfb0756c19673e34b>@@V<lambda_dfb8eca1e75fef3034a8fb18dd509707>@@@?$__crt_seh_guarded_call@X@@QEAAX$$QEAV<lambda_fb3a7dec4e47f37f22dae91bb15c9095>@@AEAV<lambda_698284760c8add0bfb0756c19673e34b>@@$$QEAV<lambda_dfb8eca1e75fef3034a8fb18dd509707>@@@Z@4HA 0000000180023ca0     libucrt:per_thread_data.obj
 0002:00009ca0       $unwind$?fin$0@?0???$common_lseek@_J@@YA_JH_JH@Z@4HA 0000000180023ca0     libucrt:lseek.obj
 0002:00009ca0       $unwind$?fin$0@?0??dllmain_crt_process_detach@@YAH_N@Z@4HA 0000000180023ca0     LIBCMT:dll_dllmain.obj
 0002:00009ca0       $unwind$_write$fin$0       0000000180023ca0     libucrt:write.obj
 0002:00009ca0       $unwind$?fin$0@?0???$?RV<lambda_bfedae4ebbf01fab1bb6dcc6a9e276e0>@@AEAV<lambda_2fe9b910cf3cbf4a0ab98a02ba45b3ec>@@V<lambda_237c231691f317818eb88cc1d5d642d6>@@@?$__crt_seh_guarded_call@H@@QEAAH$$QEAV<lambda_bfedae4ebbf01fab1bb6dcc6a9e276e0>@@AEAV<lambda_2fe9b910cf3cbf4a0ab98a02ba45b3ec>@@$$QEAV<lambda_237c231691f317818eb88cc1d5d642d6>@@@Z@4HA 0000000180023ca0     libucrt:close.obj
 0002:00009ca0       $unwind$common_flush_all$fin$0 0000000180023ca0     libucrt:fflush.obj
 0002:00009ca0       $unwind$_query_new_handler$fin$0 0000000180023ca0     libucrt:new_handler.obj
 0002:00009ca0       $unwind$__acrt_uninitialize_locale$fin$0 0000000180023ca0     libucrt:wsetlocale.obj
 0002:00009ca0       $unwind$?fin$0@?0???$?RV<lambda_99476a1ad63dd22509b5d3e65b0ffc95>@@AEAV<lambda_ad1ced32f4ac17aa236e5ef05d6b3b7c>@@V<lambda_f7424dd8d45958661754dc4f2697e9c3>@@@?$__crt_seh_guarded_call@X@@QEAAX$$QEAV<lambda_99476a1ad63dd22509b5d3e65b0ffc95>@@AEAV<lambda_ad1ced32f4ac17aa236e5ef05d6b3b7c>@@$$QEAV<lambda_f7424dd8d45958661754dc4f2697e9c3>@@@Z@4HA 0000000180023ca0     libucrt:mbctype.obj
 0002:00009ca0       $unwind$fclose$fin$0       0000000180023ca0     libucrt:fclose.obj
 0002:00009ca0       $unwind$raise$fin$0        0000000180023ca0     libucrt:signal.obj
 0002:00009ca0       $unwind$_fcloseall$fin$0   0000000180023ca0     libucrt:closeall.obj
 0002:00009ca0       $unwind$?fin$0@?0???$?RV<lambda_c36588078e9f5dfd39652860aa6b3aaf>@@AEAV<lambda_ec61778202f4f5fc7e7711acc23c3bca>@@V<lambda_dc9d2797ccde5d239b4a0efae8ebd7db>@@@?$__crt_seh_guarded_call@P6AXH@Z@@QEAAP6AXH@Z$$QEAV<lambda_c36588078e9f5dfd39652860aa6b3aaf>@@AEAV<lambda_ec61778202f4f5fc7e7711acc23c3bca>@@$$QEAV<lambda_dc9d2797ccde5d239b4a0efae8ebd7db>@@@Z@4HA 0000000180023ca0     libucrt:signal.obj
 0002:00009ca0       $unwind$__acrt_update_thread_multibyte_data$fin$0 0000000180023ca0     libucrt:mbctype.obj
 0002:00009ca0       $unwind$_ctrlfp$filt$0     0000000180023ca0     libucrt:fpctrl.obj
 0002:00009ca0       $unwind$_IsNonwritableInCurrentImage$filt$0 0000000180023ca0     LIBCMT:pesect.obj
 0002:00009ca0       $unwind$common_control87$filt$0 0000000180023ca0     libucrt:ieee.obj
 0002:00009ca0       $unwind$?fin$0@?0???$?RV<lambda_b8c45f8f788dd370798f47cfe8ac3a86>@@AEAV<lambda_4e60a939b0d047cfe11ddc22648dfba9>@@V<lambda_332c3edc96d0294ec56c57d38c1cdfd5>@@@?$__crt_seh_guarded_call@H@@QEAAH$$QEAV<lambda_b8c45f8f788dd370798f47cfe8ac3a86>@@AEAV<lambda_4e60a939b0d047cfe11ddc22648dfba9>@@$$QEAV<lambda_332c3edc96d0294ec56c57d38c1cdfd5>@@@Z@4HA 0000000180023ca0     libucrt:onexit.obj
 0002:00009ca0       $unwind$?fin$0@?0???$?RV<lambda_b521505b218e5242e90febf6bfebc422>@@AEAV<lambda_6978c1fb23f02e42e1d9e99668cc68aa>@@V<lambda_314360699dd331753a4119843814e9a7>@@@?$__crt_seh_guarded_call@H@@QEAAH$$QEAV<lambda_b521505b218e5242e90febf6bfebc422>@@AEAV<lambda_6978c1fb23f02e42e1d9e99668cc68aa>@@$$QEAV<lambda_314360699dd331753a4119843814e9a7>@@@Z@4HA 0000000180023ca0     libucrt:commit.obj
 0002:00009ca0       $unwind$__acrt_update_thread_locale_data$fin$0 0000000180023ca0     libucrt:locale_refcounting.obj
 0002:00009ca0       $unwind$?fin$0@?0???$?RV<lambda_5e887d1dcbef67a5eb4283622ba103bf>@@AEAV<lambda_4466841279450cc726390878d4a41900>@@V<lambda_341c25c0346d94847f1f3c463c57e077>@@@?$__crt_seh_guarded_call@X@@QEAAX$$QEAV<lambda_5e887d1dcbef67a5eb4283622ba103bf>@@AEAV<lambda_4466841279450cc726390878d4a41900>@@$$QEAV<lambda_341c25c0346d94847f1f3c463c57e077>@@@Z@4HA 0000000180023ca0     libucrt:per_thread_data.obj
 0002:00009ca0       $unwind$?fin$0@?0???$?RV<lambda_e24bbb7b643b32fcea6fa61b31d4c984>@@AEAV<lambda_275893d493268fdec8709772e3fcec0e>@@V<lambda_9d71df4d7cf3f480f8d633942495c3b0>@@@?$__crt_seh_guarded_call@H@@QEAAH$$QEAV<lambda_e24bbb7b643b32fcea6fa61b31d4c984>@@AEAV<lambda_275893d493268fdec8709772e3fcec0e>@@$$QEAV<lambda_9d71df4d7cf3f480f8d633942495c3b0>@@@Z@4HA 0000000180023ca0     libucrt:onexit.obj
 0002:00009ca0       $unwind$__acrt_initialize_lowio$fin$0 0000000180023ca0     libucrt:ioinit.obj
 0002:00009ca0       $unwind$?fin$0@?0??dllmain_crt_process_attach@@YAHQEAUHINSTANCE__@@QEAX@Z@4HA 0000000180023ca0     LIBCMT:dll_dllmain.obj
 0002:00009ca0       $unwind$__acrt_lowio_ensure_fh_exists$fin$0 0000000180023ca0     libucrt:osfinfo.obj
 0002:00009ca0       $unwind$?fin$0@?0???$?RV<lambda_72d1df2b273a38828b1ce30cbf4cdab5>@@AEAV<lambda_876a65b173b8412d3a47c70a915b0cf4>@@V<lambda_41932305e351933ebe8f8be3ed8bb5dc>@@@?$__crt_seh_guarded_call@X@@QEAAX$$QEAV<lambda_72d1df2b273a38828b1ce30cbf4cdab5>@@AEAV<lambda_876a65b173b8412d3a47c70a915b0cf4>@@$$QEAV<lambda_41932305e351933ebe8f8be3ed8bb5dc>@@@Z@4HA 0000000180023ca0     libucrt:per_thread_data.obj
 0002:00009ca0       $unwind$?filt$0@?0??common_exit@@YAXHW4_crt_exit_cleanup_mode@@W4_crt_exit_return_mode@@@Z@4HA 0000000180023ca0     libucrt:exit.obj
 0002:00009ca0       $unwind$?fin$1@?0??common_exit@@YAXHW4_crt_exit_cleanup_mode@@W4_crt_exit_return_mode@@@Z@4HA 0000000180023ca0     libucrt:exit.obj
 0002:00009ca0       $unwind$?fin$0@?0???$?RV<lambda_7a5ef57ff966f610505f1d28a3d40618>@@AEAV<lambda_b721fa326cdb32351d23dfa67958c160>@@V<lambda_5e0fb27672408a07956fe59e48ccb2aa>@@@?$__crt_seh_guarded_call@H@@QEAAH$$QEAV<lambda_7a5ef57ff966f610505f1d28a3d40618>@@AEAV<lambda_b721fa326cdb32351d23dfa67958c160>@@$$QEAV<lambda_5e0fb27672408a07956fe59e48ccb2aa>@@@Z@4HA 0000000180023ca0     libucrt:setvbuf.obj
 0002:00009ca0       $unwind$?fin$0@?0???$?RV<lambda_7b91131dde12e1c3dfc74ff76b3f2eac>@@AEAV<lambda_dd75445284c072d0bd3768540cc698fa>@@V<lambda_16bc4ecb55b4718497c16bceaea2ceaf>@@@?$__crt_seh_guarded_call@H@@QEAAH$$QEAV<lambda_7b91131dde12e1c3dfc74ff76b3f2eac>@@AEAV<lambda_dd75445284c072d0bd3768540cc698fa>@@$$QEAV<lambda_16bc4ecb55b4718497c16bceaea2ceaf>@@@Z@4HA 0000000180023ca0     libucrt:output.obj
 0002:00009ca0       $unwind$common_flush_all$fin$1 0000000180023ca0     libucrt:fflush.obj
 0002:00009ca0       $unwind$?fin$0@?0???$?RV<lambda_46352004c1216016012b18bd6f87e700>@@AEAV<lambda_3bd07e1a1191394380780325891bf33f>@@V<lambda_334532d3f185bcaa59b5be82d7d22bff>@@@?$__crt_seh_guarded_call@X@@QEAAX$$QEAV<lambda_46352004c1216016012b18bd6f87e700>@@AEAV<lambda_3bd07e1a1191394380780325891bf33f>@@$$QEAV<lambda_334532d3f185bcaa59b5be82d7d22bff>@@@Z@4HA 0000000180023ca0     libucrt:per_thread_data.obj
 0002:00009ca8       $unwind$?common_exit@@YAXHW4_crt_exit_cleanup_mode@@W4_crt_exit_return_mode@@@Z 0000000180023ca8     libucrt:exit.obj
 0002:00009ce8       $unwind$_configure_narrow_argv 0000000180023ce8     libucrt:argv_parsing.obj
 0002:00009cfc       $unwind$??R<lambda_4e60a939b0d047cfe11ddc22648dfba9>@@QEBAHXZ 0000000180023cfc     libucrt:onexit.obj
 0002:00009cfc       $unwind$??$parse_command_line@D@@YAXPEADPEAPEAD0PEA_K2@Z 0000000180023cfc     libucrt:argv_parsing.obj
 0002:00009d18       $unwind$??$free_environment@D@@YAXQEAPEAD@Z 0000000180023d18     libucrt:environment_initialization.obj
 0002:00009d18       $unwind$??$free_environment@_W@@YAXQEAPEA_W@Z 0000000180023d18     libucrt:environment_initialization.obj
 0002:00009d24       $unwind$??$create_environment@D@@YAQEAPEADQEAD@Z 0000000180023d24     libucrt:environment_initialization.obj
 0002:00009d3c       $unwind$_register_onexit_function 0000000180023d3c     libucrt:onexit.obj
 0002:00009d44       $unwind$_execute_onexit_table 0000000180023d44     libucrt:onexit.obj
 0002:00009d4c       $unwind$??$?RV<lambda_b8c45f8f788dd370798f47cfe8ac3a86>@@AEAV<lambda_4e60a939b0d047cfe11ddc22648dfba9>@@V<lambda_332c3edc96d0294ec56c57d38c1cdfd5>@@@?$__crt_seh_guarded_call@H@@QEAAH$$QEAV<lambda_b8c45f8f788dd370798f47cfe8ac3a86>@@AEAV<lambda_4e60a939b0d047cfe11ddc22648dfba9>@@$$QEAV<lambda_332c3edc96d0294ec56c57d38c1cdfd5>@@@Z 0000000180023d4c     libucrt:onexit.obj
 0002:00009d70       $unwind$??$?RV<lambda_e24bbb7b643b32fcea6fa61b31d4c984>@@AEAV<lambda_275893d493268fdec8709772e3fcec0e>@@V<lambda_9d71df4d7cf3f480f8d633942495c3b0>@@@?$__crt_seh_guarded_call@H@@QEAAH$$QEAV<lambda_e24bbb7b643b32fcea6fa61b31d4c984>@@AEAV<lambda_275893d493268fdec8709772e3fcec0e>@@$$QEAV<lambda_9d71df4d7cf3f480f8d633942495c3b0>@@@Z 0000000180023d70     libucrt:onexit.obj
 0002:00009da0       $unwind$terminate          0000000180023da0     libucrt:terminate.obj
 0002:00009dc0       $unwind$__stdio_common_vfwprintf 0000000180023dc0     libucrt:output.obj
 0002:00009dc8       $unwind$__stdio_common_vswprintf 0000000180023dc8     libucrt:output.obj
 0002:00009dec       $unwind$?write_string@?$stream_output_adapter@_W@__crt_stdio_output@@QEBAXQEB_WHQEAH1@Z 0000000180023dec     libucrt:output.obj
 0002:00009e04       $unwind$?process@?$output_processor@_WV?$stream_output_adapter@_W@__crt_stdio_output@@V?$standard_base@_WV?$stream_output_adapter@_W@__crt_stdio_output@@@2@@__crt_stdio_output@@QEAAHXZ 0000000180023e04     libucrt:output.obj
 0002:00009e1c       $unwind$?type_case_a@?$output_processor@_WV?$string_output_adapter@_W@__crt_stdio_output@@V?$standard_base@_WV?$string_output_adapter@_W@__crt_stdio_output@@@2@@__crt_stdio_output@@AEAA_NXZ 0000000180023e1c     libucrt:output.obj
 0002:00009e1c       $unwind$?type_case_a@?$output_processor@_WV?$stream_output_adapter@_W@__crt_stdio_output@@V?$standard_base@_WV?$stream_output_adapter@_W@__crt_stdio_output@@@2@@__crt_stdio_output@@AEAA_NXZ 0000000180023e1c     libucrt:output.obj
 0002:00009e2c       $unwind$?write_stored_string_tchar@?$output_processor@_WV?$stream_output_adapter@_W@__crt_stdio_output@@V?$standard_base@_WV?$stream_output_adapter@_W@__crt_stdio_output@@@2@@__crt_stdio_output@@AEAA_N_W@Z 0000000180023e2c     libucrt:output.obj
 0002:00009e40       $unwind$??R<lambda_dd75445284c072d0bd3768540cc698fa>@@QEBAHXZ 0000000180023e40     libucrt:output.obj
 0002:00009e5c       $unwind$?parse_int_from_format_string@?$output_processor@_WV?$string_output_adapter@_W@__crt_stdio_output@@V?$standard_base@_WV?$string_output_adapter@_W@__crt_stdio_output@@@2@@__crt_stdio_output@@AEAA_NQEAH@Z 0000000180023e5c     libucrt:output.obj
 0002:00009e5c       $unwind$?parse_int_from_format_string@?$output_processor@_WV?$stream_output_adapter@_W@__crt_stdio_output@@V?$standard_base@_WV?$stream_output_adapter@_W@__crt_stdio_output@@@2@@__crt_stdio_output@@AEAA_NQEAH@Z 0000000180023e5c     libucrt:output.obj
 0002:00009e70       $unwind$?state_case_type@?$output_processor@_WV?$stream_output_adapter@_W@__crt_stdio_output@@V?$standard_base@_WV?$stream_output_adapter@_W@__crt_stdio_output@@@2@@__crt_stdio_output@@AEAA_NXZ 0000000180023e70     libucrt:output.obj
 0002:00009e70       $unwind$?state_case_type@?$output_processor@_WV?$string_output_adapter@_W@__crt_stdio_output@@V?$standard_base@_WV?$string_output_adapter@_W@__crt_stdio_output@@@2@@__crt_stdio_output@@AEAA_NXZ 0000000180023e70     libucrt:output.obj
 0002:00009e94       $unwind$?write_stored_string_tchar@?$output_processor@_WV?$string_output_adapter@_W@__crt_stdio_output@@V?$standard_base@_WV?$string_output_adapter@_W@__crt_stdio_output@@@2@@__crt_stdio_output@@AEAA_N_W@Z 0000000180023e94     libucrt:output.obj
 0002:00009ea8       $unwind$??$write_multiple_characters@V?$stream_output_adapter@_W@__crt_stdio_output@@D@__crt_stdio_output@@YAXAEBV?$stream_output_adapter@_W@0@DHQEAH@Z 0000000180023ea8     libucrt:output.obj
 0002:00009ec0       $unwind$??$write_multiple_characters@V?$string_output_adapter@_W@__crt_stdio_output@@D@__crt_stdio_output@@YAXAEBV?$string_output_adapter@_W@0@DHQEAH@Z 0000000180023ec0     libucrt:output.obj
 0002:00009ecc       $unwind$??$?RV<lambda_7b91131dde12e1c3dfc74ff76b3f2eac>@@AEAV<lambda_dd75445284c072d0bd3768540cc698fa>@@V<lambda_16bc4ecb55b4718497c16bceaea2ceaf>@@@?$__crt_seh_guarded_call@H@@QEAAH$$QEAV<lambda_7b91131dde12e1c3dfc74ff76b3f2eac>@@AEAV<lambda_dd75445284c072d0bd3768540cc698fa>@@$$QEAV<lambda_16bc4ecb55b4718497c16bceaea2ceaf>@@@Z 0000000180023ecc     libucrt:output.obj
 0002:00009ef0       $unwind$??$parse_integer@KV?$c_string_character_source@_W@__crt_strtox@@@__crt_strtox@@YAKQEAU__crt_locale_pointers@@V?$c_string_character_source@_W@0@H_N@Z 0000000180023ef0     libucrt:atox.obj
 0002:00009f0c       $unwind$__acrt_call_reportfault 0000000180023f0c     libucrt:invalid_parameter.obj
 0002:00009f2c       $unwind$_invalid_parameter 0000000180023f2c     libucrt:invalid_parameter.obj
 0002:00009f2c       $unwind$__vcrt_EventWriteTransfer 0000000180023f2c     libvcruntime:winapi_downlevel.obj
 0002:00009f44       $unwind$wcstol             0000000180023f44     libucrt:strtox.obj
 0002:00009f44       $unwind$??$common_xtox_s@K_W@@YAHKQEA_W_KI_N@Z 0000000180023f44     libucrt:xtoa.obj
 0002:00009f4c       $unwind$__acrt_MessageBoxW 0000000180023f4c     libucrt:winapi_thunks.obj
 0002:00009f4c       $unwind$__acrt_initialize_stdio 0000000180023f4c     libucrt:_file.obj
 0002:00009f4c       $unwind$__vcrt_EventRegister 0000000180023f4c     libvcruntime:winapi_downlevel.obj
 0002:00009f4c       $unwind$_initterm          0000000180023f4c     libucrt:initterm.obj
 0002:00009f4c       $unwind$?process@?$output_processor@_WV?$string_output_adapter@_W@__crt_stdio_output@@V?$standard_base@_WV?$string_output_adapter@_W@__crt_stdio_output@@@2@@__crt_stdio_output@@QEAAHXZ 0000000180023f4c     libucrt:output.obj
 0002:00009f4c       $unwind$__vcrt_EventSetInformation 0000000180023f4c     libvcruntime:winapi_downlevel.obj
 0002:00009f64       $unwind$fflush             0000000180023f64     libucrt:fflush.obj
 0002:00009f88       $unwind$common_flush_all   0000000180023f88     libucrt:fflush.obj
 0002:00009fc4       $unwind$setvbuf            0000000180023fc4     libucrt:setvbuf.obj
 0002:00009fcc       $unwind$?type_case_c_tchar@?$output_processor@_WV?$stream_output_adapter@_W@__crt_stdio_output@@V?$standard_base@_WV?$stream_output_adapter@_W@__crt_stdio_output@@@2@@__crt_stdio_output@@AEAA_N_W@Z 0000000180023fcc     libucrt:output.obj
 0002:00009fcc       $unwind$??R<lambda_b721fa326cdb32351d23dfa67958c160>@@QEBAHXZ 0000000180023fcc     libucrt:setvbuf.obj
 0002:00009fcc       $unwind$?type_case_c_tchar@?$output_processor@_WV?$string_output_adapter@_W@__crt_stdio_output@@V?$standard_base@_WV?$string_output_adapter@_W@__crt_stdio_output@@@2@@__crt_stdio_output@@AEAA_N_W@Z 0000000180023fcc     libucrt:output.obj
 0002:00009fdc       $unwind$??$?RV<lambda_7a5ef57ff966f610505f1d28a3d40618>@@AEAV<lambda_b721fa326cdb32351d23dfa67958c160>@@V<lambda_5e0fb27672408a07956fe59e48ccb2aa>@@@?$__crt_seh_guarded_call@H@@QEAAH$$QEAV<lambda_7a5ef57ff966f610505f1d28a3d40618>@@AEAV<lambda_b721fa326cdb32351d23dfa67958c160>@@$$QEAV<lambda_5e0fb27672408a07956fe59e48ccb2aa>@@@Z 0000000180023fdc     libucrt:setvbuf.obj
 0002:0000a000       $unwind$__acrt_get_sigabrt_handler 0000000180024000     libucrt:signal.obj
 0002:0000a008       $unwind$raise              0000000180024008     libucrt:signal.obj
 0002:0000a034       $unwind$??$?RV<lambda_c36588078e9f5dfd39652860aa6b3aaf>@@AEAV<lambda_ec61778202f4f5fc7e7711acc23c3bca>@@V<lambda_dc9d2797ccde5d239b4a0efae8ebd7db>@@@?$__crt_seh_guarded_call@P6AXH@Z@@QEAAP6AXH@Z$$QEAV<lambda_c36588078e9f5dfd39652860aa6b3aaf>@@AEAV<lambda_ec61778202f4f5fc7e7711acc23c3bca>@@$$QEAV<lambda_dc9d2797ccde5d239b4a0efae8ebd7db>@@@Z 0000000180024034     libucrt:signal.obj
 0002:0000a058       $unwind$_tolower_l         0000000180024058     libucrt:tolower_toupper.obj
 0002:0000a068       $unwind$_invoke_watson     0000000180024068     libucrt:invalid_parameter.obj
 0002:0000a068       $unwind$_get_osfhandle     0000000180024068     libucrt:osfinfo.obj
 0002:0000a068       $unwind$_set_error_mode    0000000180024068     libucrt:set_error_mode.obj
 0002:0000a068       $unwind$?initialize_multibyte@@YAHXZ 0000000180024068     libucrt:multibyte_initializer.obj
 0002:0000a068       $unwind$__scrt_dllmain_before_initialize_c 0000000180024068     LIBCMT:utility.obj
 0002:0000a068       $unwind$tolower            0000000180024068     libucrt:tolower_toupper.obj
 0002:0000a068       $unwind$__scrt_dllmain_after_initialize_c 0000000180024068     LIBCMT:utility.obj
 0002:0000a068       $unwind$__scrt_dllmain_uninitialize_c 0000000180024068     LIBCMT:utility.obj
 0002:0000a068       $unwind$__vcrt_freefls     0000000180024068     libvcruntime:per_thread_data.obj
 0002:0000a068       $unwind$_isatty            0000000180024068     libucrt:isatty.obj
 0002:0000a068       $unwind$_errno             0000000180024068     libucrt:errno.obj
 0002:0000a068       $unwind$__scrt_dllmain_crt_thread_detach 0000000180024068     LIBCMT:utility.obj
 0002:0000a068       $unwind$uninitialize_environment 0000000180024068     libucrt:initialization.obj
 0002:0000a068       $unwind$__pctype_func      0000000180024068     libucrt:ctype.obj
 0002:0000a068       $unwind$__doserrno         0000000180024068     libucrt:errno.obj
 0002:0000a068       $unwind$initialize_c       0000000180024068     libucrt:initialization.obj
 0002:0000a068       $unwind$__scrt_acquire_startup_lock 0000000180024068     LIBCMT:utility.obj
 0002:0000a068       $unwind$__acrt_thread_detach 0000000180024068     libucrt:initialization.obj
 0002:0000a068       $unwind$__acrt_thread_attach 0000000180024068     libucrt:initialization.obj
 0002:0000a068       $unwind$__vcrt_uninitialize_telemetry_provider 0000000180024068     libvcruntime:telemetry.obj
 0002:0000a068       $unwind$_getfpcontrolword  0000000180024068     libucrt:_fenvutils.obj
 0002:0000a068       $unwind$__scrt_dllmain_uninitialize_critical 0000000180024068     LIBCMT:utility.obj
 0002:0000a068       $unwind$atexit             0000000180024068     LIBCMT:utility.obj
 0002:0000a068       $unwind$__acrt_uninitialize_critical 0000000180024068     libucrt:initialization.obj
 0002:0000a068       $unwind$_set_errno_from_matherr 0000000180024068     libucrt:fpexcept.obj
 0002:0000a068       $unwind$_getfpstatusword   0000000180024068     libucrt:_fenvutils.obj
 0002:0000a068       $unwind$?state_case_size@?$output_processor@_WV?$string_output_adapter@_W@__crt_stdio_output@@V?$standard_base@_WV?$string_output_adapter@_W@__crt_stdio_output@@@2@@__crt_stdio_output@@AEAA_NXZ 0000000180024068     libucrt:output.obj
 0002:0000a068       $unwind$_fileno            0000000180024068     libucrt:fileno.obj
 0002:0000a068       $unwind$_statfp            0000000180024068     libucrt:fpctrl.obj
 0002:0000a068       $unwind$?dllmain_crt_dispatch@@YAHQEAUHINSTANCE__@@KQEAX@Z 0000000180024068     LIBCMT:dll_dllmain.obj
 0002:0000a068       $unwind$__scrt_dllmain_crt_thread_attach 0000000180024068     LIBCMT:utility.obj
 0002:0000a068       $unwind$__acrt_DownlevelLocaleNameToLCID 0000000180024068     libucrt:lcidtoname_downlevel.obj
 0002:0000a068       $unwind$__vcrt_initialize  0000000180024068     libvcruntime:initialization.obj
 0002:0000a068       $unwind$__acrt_release_locale_ref 0000000180024068     libucrt:locale_refcounting.obj
 0002:0000a068       $unwind$__dcrt_terminate_console_output 0000000180024068     libucrt:initcon.obj
 0002:0000a068       $unwind$__vcrt_uninitialize_critical 0000000180024068     libvcruntime:initialization.obj
 0002:0000a068       $unwind$__vcrt_thread_detach 0000000180024068     libvcruntime:initialization.obj
 0002:0000a068       $unwind$__vcrt_initialize_ptd 0000000180024068     libvcruntime:per_thread_data.obj
 0002:0000a068       $unwind$_msize             0000000180024068     libucrt:msize.obj
 0002:0000a068       $unwind$__acrt_uninitialize_ptd 0000000180024068     libucrt:per_thread_data.obj
 0002:0000a068       $unwind$__GSHandlerCheck   0000000180024068     LIBCMT:_gshandler_.obj
 0002:0000a068       $unwind$abort              0000000180024068     libucrt:abort.obj
 0002:0000a068       $unwind$__vcrt_uninitialize_ptd 0000000180024068     libvcruntime:per_thread_data.obj
 0002:0000a068       $unwind$_stricmp           0000000180024068     libucrt:stricmp.obj
 0002:0000a068       $unwind$__acrt_initialize_command_line 0000000180024068     libucrt:argv_data.obj
 0002:0000a068       $unwind$__acrt_initialize_heap 0000000180024068     libucrt:heap_handle.obj
 0002:0000a068       $unwind$__scrt_initialize_default_local_stdio_options 0000000180024068     LIBCMT:default_local_stdio_options.obj
 0002:0000a068       $unwind$__report_rangecheckfailure 0000000180024068     LIBCMT:gs_report.obj
 0002:0000a068       $unwind$??$uninitialize_environment_internal@_W@@YAXAEAPEAPEA_W@Z 0000000180024068     libucrt:environment_initialization.obj
 0002:0000a068       $unwind$?state_case_size@?$output_processor@_WV?$stream_output_adapter@_W@__crt_stdio_output@@V?$standard_base@_WV?$stream_output_adapter@_W@__crt_stdio_output@@@2@@__crt_stdio_output@@AEAA_NXZ 0000000180024068     libucrt:output.obj
 0002:0000a068       $unwind$??$uninitialize_environment_internal@D@@YAXAEAPEAPEAD@Z 0000000180024068     libucrt:environment_initialization.obj
 0002:0000a068       $unwind$__vcrt_thread_attach 0000000180024068     libvcruntime:initialization.obj
 0002:0000a068       $unwind$__acrt_initialize_ptd 0000000180024068     libucrt:per_thread_data.obj
 0002:0000a068       $unwind$__acrt_initialize_multibyte 0000000180024068     libucrt:mbctype.obj
 0002:0000a068       $unwind$__dcrt_uninitialize_environments_nolock 0000000180024068     libucrt:environment_initialization.obj
 0002:0000a070       $unwind$?destroy_fls@@YAXPEAX@Z 0000000180024070     libucrt:per_thread_data.obj
 0002:0000a070       $unwind$__acrt_locale_free_numeric 0000000180024070     libucrt:initnum.obj
 0002:0000a070       $unwind$__acrt_locale_free_lc_time_if_unreferenced 0000000180024070     libucrt:locale_refcounting.obj
 0002:0000a070       $unwind$_free_base         0000000180024070     libucrt:free_base.obj
 0002:0000a078       $unwind$?construct_ptd_array@@YAXQEAU__acrt_ptd@@@Z 0000000180024078     libucrt:per_thread_data.obj
 0002:0000a080       $unwind$?destroy_ptd_array@@YAXQEAU__acrt_ptd@@@Z 0000000180024080     libucrt:per_thread_data.obj
 0002:0000a088       $unwind$??$?RV<lambda_72d1df2b273a38828b1ce30cbf4cdab5>@@AEAV<lambda_876a65b173b8412d3a47c70a915b0cf4>@@V<lambda_41932305e351933ebe8f8be3ed8bb5dc>@@@?$__crt_seh_guarded_call@X@@QEAAX$$QEAV<lambda_72d1df2b273a38828b1ce30cbf4cdab5>@@AEAV<lambda_876a65b173b8412d3a47c70a915b0cf4>@@$$QEAV<lambda_41932305e351933ebe8f8be3ed8bb5dc>@@@Z 0000000180024088     libucrt:per_thread_data.obj
 0002:0000a0ac       $unwind$??$?RV<lambda_5e887d1dcbef67a5eb4283622ba103bf>@@AEAV<lambda_4466841279450cc726390878d4a41900>@@V<lambda_341c25c0346d94847f1f3c463c57e077>@@@?$__crt_seh_guarded_call@X@@QEAAX$$QEAV<lambda_5e887d1dcbef67a5eb4283622ba103bf>@@AEAV<lambda_4466841279450cc726390878d4a41900>@@$$QEAV<lambda_341c25c0346d94847f1f3c463c57e077>@@@Z 00000001800240ac     libucrt:per_thread_data.obj
 0002:0000a0d0       $unwind$??$?RV<lambda_46352004c1216016012b18bd6f87e700>@@AEAV<lambda_3bd07e1a1191394380780325891bf33f>@@V<lambda_334532d3f185bcaa59b5be82d7d22bff>@@@?$__crt_seh_guarded_call@X@@QEAAX$$QEAV<lambda_46352004c1216016012b18bd6f87e700>@@AEAV<lambda_3bd07e1a1191394380780325891bf33f>@@$$QEAV<lambda_334532d3f185bcaa59b5be82d7d22bff>@@@Z 00000001800240d0     libucrt:per_thread_data.obj
 0002:0000a0f4       $unwind$??$?RV<lambda_fb3a7dec4e47f37f22dae91bb15c9095>@@AEAV<lambda_698284760c8add0bfb0756c19673e34b>@@V<lambda_dfb8eca1e75fef3034a8fb18dd509707>@@@?$__crt_seh_guarded_call@X@@QEAAX$$QEAV<lambda_fb3a7dec4e47f37f22dae91bb15c9095>@@AEAV<lambda_698284760c8add0bfb0756c19673e34b>@@$$QEAV<lambda_dfb8eca1e75fef3034a8fb18dd509707>@@@Z 00000001800240f4     libucrt:per_thread_data.obj
 0002:0000a118       $unwind$__acrt_uninitialize_locale 0000000180024118     libucrt:wsetlocale.obj
 0002:0000a138       $unwind$__acrt_LCMapStringEx 0000000180024138     libucrt:winapi_thunks.obj
 0002:0000a138       $unwind$_mbtowc_l          0000000180024138     libucrt:mbtowc.obj
 0002:0000a138       $unwind$__acrt_show_wide_message_box 0000000180024138     libucrt:crtmbox.obj
 0002:0000a150       $unwind$__acrt_is_interactive 0000000180024150     libucrt:winapi_thunks.obj
 0002:0000a164       $unwind$??$common_expand_argv_wildcards@D@@YAHQEAPEADQEAPEAPEAD@Z 0000000180024164     libucrt:argv_wildcards.obj
 0002:0000a17c       $unwind$??$copy_and_add_argument_to_buffer@D@@YAHQEBD0_KAEAV?$argument_list@D@?A0xca0879c4@@@Z 000000018002417c     libucrt:argv_wildcards.obj
 0002:0000a198       $unwind$??$expand_argument_wildcards@D@@YAHQEAD0AEAV?$argument_list@D@?A0xca0879c4@@@Z 0000000180024198     libucrt:argv_wildcards.obj
 0002:0000a1b8       $unwind$__acrt_update_thread_multibyte_data 00000001800241b8     libucrt:mbctype.obj
 0002:0000a1dc       $unwind$_setmbcp_nolock    00000001800241dc     libucrt:mbctype.obj
 0002:0000a1fc       $unwind$?setSBUpLow@@YAXPEAU__crt_multibyte_data@@@Z 00000001800241fc     libucrt:mbctype.obj
 0002:0000a218       $unwind$?setmbcp_internal@@YAHH_N@Z 0000000180024218     libucrt:mbctype.obj
 0002:0000a228       $unwind$??$?RV<lambda_99476a1ad63dd22509b5d3e65b0ffc95>@@AEAV<lambda_ad1ced32f4ac17aa236e5ef05d6b3b7c>@@V<lambda_f7424dd8d45958661754dc4f2697e9c3>@@@?$__crt_seh_guarded_call@X@@QEAAX$$QEAV<lambda_99476a1ad63dd22509b5d3e65b0ffc95>@@AEAV<lambda_ad1ced32f4ac17aa236e5ef05d6b3b7c>@@$$QEAV<lambda_f7424dd8d45958661754dc4f2697e9c3>@@@Z 0000000180024228     libucrt:mbctype.obj
 0002:0000a24c       $unwind$_stricmp_l         000000018002424c     libucrt:stricmp.obj
 0002:0000a24c       $unwind$?x_ismbbtype_l@@YAHPEAU__crt_locale_pointers@@IHH@Z 000000018002424c     libucrt:ismbbyte.obj
 0002:0000a25c       $unwind$__acrt_initialize_lowio 000000018002425c     libucrt:ioinit.obj
 0002:0000a27c       $unwind$?initialize_inherited_file_handles_nolock@@YAXXZ 000000018002427c     libucrt:ioinit.obj
 0002:0000a298       $unwind$_free_osfhnd       0000000180024298     libucrt:osfinfo.obj
 0002:0000a298       $unwind$__std_exception_copy 0000000180024298     libvcruntime:std_exception.obj
 0002:0000a298       $unwind$?initialize_stdio_handles_nolock@@YAXXZ 0000000180024298     libucrt:ioinit.obj
 0002:0000a2ac       $unwind$__acrt_stdio_end_temporary_buffering_nolock 00000001800242ac     libucrt:_sftbuf.obj
 0002:0000a2ac       $unwind$__vcrt_uninitialize_winapi_thunks 00000001800242ac     libvcruntime:winapi_downlevel.obj
 0002:0000a2b4       $unwind$_wctomb_s_l        00000001800242b4     libucrt:wctomb.obj
 0002:0000a2c4       $unwind$wcsnlen            00000001800242c4     libucrt:strnlen.obj
 0002:0000a2cc       $unwind$__acrt_fp_format   00000001800242cc     libucrt:cvt.obj
 0002:0000a2e8       $unwind$?fp_format_nan_or_infinity@@YAHW4__acrt_fp_class@@_NPEAD_K1@Z 00000001800242e8     libucrt:cvt.obj
 0002:0000a2fc       $unwind$?fp_format_e_internal@@YAHQEAD_KH_NIQEAU_strflt@@2QEAU__crt_locale_pointers@@@Z 00000001800242fc     libucrt:cvt.obj
 0002:0000a314       $unwind$?fp_format_e@@YAHQEBNQEAD_K12H_NIQEAU__crt_locale_pointers@@@Z 0000000180024314     libucrt:cvt.obj
 0002:0000a328       $unwind$?fp_format_a@@YAHQEBNPEAD_KQEAD2H_NIQEAU__crt_locale_pointers@@@Z 0000000180024328     libucrt:cvt.obj
 0002:0000a344       $unwind$__dcrt_get_narrow_environment_from_os 0000000180024344     libucrt:get_environment_from_os.obj
 0002:0000a344       $unwind$?fp_format_f_internal@@YAHQEAD_KHQEAU_strflt@@_NQEAU__crt_locale_pointers@@@Z 0000000180024344     libucrt:cvt.obj
 0002:0000a35c       $unwind$?fp_format_g@@YAHQEBNQEAD_K12H_NIQEAU__crt_locale_pointers@@@Z 000000018002435c     libucrt:cvt.obj
 0002:0000a370       $unwind$_fputwc_nolock     0000000180024370     libucrt:fputwc.obj
 0002:0000a38c       $unwind$__acrt_is_packaged_app 000000018002438c     libucrt:winapi_thunks.obj
 0002:0000a38c       $unwind$iswctype           000000018002438c     libucrt:iswctype.obj
 0002:0000a398       $unwind$_isctype_l         0000000180024398     libucrt:isctype.obj
 0002:0000a3b4       $unwind$_fcloseall         00000001800243b4     libucrt:closeall.obj
 0002:0000a3d8       $unwind$_close             00000001800243d8     libucrt:close.obj
 0002:0000a3d8       $unwind$_commit            00000001800243d8     libucrt:commit.obj
 0002:0000a3e0       $unwind$??$?RV<lambda_b521505b218e5242e90febf6bfebc422>@@AEAV<lambda_6978c1fb23f02e42e1d9e99668cc68aa>@@V<lambda_314360699dd331753a4119843814e9a7>@@@?$__crt_seh_guarded_call@H@@QEAAH$$QEAV<lambda_b521505b218e5242e90febf6bfebc422>@@AEAV<lambda_6978c1fb23f02e42e1d9e99668cc68aa>@@$$QEAV<lambda_314360699dd331753a4119843814e9a7>@@@Z 00000001800243e0     libucrt:commit.obj
 0002:0000a404       $unwind$_write             0000000180024404     libucrt:write.obj
 0002:0000a434       $unwind$_write_nolock      0000000180024434     libucrt:write.obj
 0002:0000a44c       $unwind$?write_double_translated_ansi_nolock@@YA?AUwrite_result@?A0x9c548279@@HQEBDI@Z 000000018002444c     libucrt:write.obj
 0002:0000a46c       $unwind$?write_text_utf16le_nolock@@YA?AUwrite_result@?A0x9c548279@@HQEBDI@Z 000000018002446c     libucrt:write.obj
 0002:0000a46c       $unwind$?write_text_ansi_nolock@@YA?AUwrite_result@?A0x9c548279@@HQEBDI@Z 000000018002446c     libucrt:write.obj
 0002:0000a48c       $unwind$?write_text_utf8_nolock@@YA?AUwrite_result@?A0x9c548279@@HQEBDI@Z 000000018002448c     libucrt:write.obj
 0002:0000a4b0       $unwind$__acrt_LCMapStringA 00000001800244b0     libucrt:lcmapstringa.obj
 0002:0000a4c0       $unwind$?__acrt_LCMapStringA_stat@@YAHPEAU__crt_locale_pointers@@PEB_WKPEBDHPEADHHH@Z 00000001800244c0     libucrt:lcmapstringa.obj
 0002:0000a4e8       $unwind$__acrt_update_thread_locale_data 00000001800244e8     libucrt:locale_refcounting.obj
 0002:0000a50c       $unwind$__acrt_locale_free_monetary 000000018002450c     libucrt:initmon.obj
 0002:0000a514       $unwind$__acrt_locale_free_time 0000000180024514     libucrt:inittime.obj
 0002:0000a524       $unwind$__acrt_GetStringTypeA 0000000180024524     libucrt:getstringtypea.obj
 0002:0000a54c       $unwind$?GetTableIndexFromLocaleName@@YAHPEB_W@Z 000000018002454c     libucrt:lcidtoname_downlevel.obj
 0002:0000a564       $unwind$qsort              0000000180024564     libucrt:qsort.obj
 0002:0000a57c       $chain$4$qsort             000000018002457c     libucrt:qsort.obj
 0002:0000a5a0       $chain$5$qsort             00000001800245a0     libucrt:qsort.obj
 0002:0000a5b0       $unwind$?shortsort@@YAXPEAD0_KP6AHPEBX2@Z@Z 00000001800245b0     libucrt:qsort.obj
 0002:0000a5c0       $chain$2$?shortsort@@YAXPEAD0_KP6AHPEBX2@Z@Z 00000001800245c0     libucrt:qsort.obj
 0002:0000a5dc       $chain$3$?shortsort@@YAXPEAD0_KP6AHPEBX2@Z@Z 00000001800245dc     libucrt:qsort.obj
 0002:0000a5ec       $unwind$strpbrk            00000001800245ec     libucrt:strpbrk.obj
 0002:0000a5fc       $unwind$?expand_if_necessary@?$argument_list@D@?A0xca0879c4@@AEAAHXZ 00000001800245fc     libucrt:argv_wildcards.obj
 0002:0000a5fc       $unwind$?setSBCS@@YAXPEAU__crt_multibyte_data@@@Z 00000001800245fc     libucrt:mbctype.obj
 0002:0000a5fc       $unwind$__acrt_lowio_create_handle_array 00000001800245fc     libucrt:osfinfo.obj
 0002:0000a5fc       $unwind$??$ensure_buffer_is_big_enough@D@formatting_buffer@__crt_stdio_output@@QEAA_N_K@Z 00000001800245fc     libucrt:output.obj
 0002:0000a5fc       $unwind$__acrt_InitializeCriticalSectionEx 00000001800245fc     libucrt:winapi_thunks.obj
 0002:0000a5fc       $unwind$__scrt_dllmain_exception_filter 00000001800245fc     LIBCMT:utility.obj
 0002:0000a5fc       $unwind$__vcrt_InitializeCriticalSectionEx 00000001800245fc     libvcruntime:winapi_downlevel.obj
 0002:0000a5fc       $unwind$_wassert           00000001800245fc     libucrt:assert.obj
 0002:0000a5fc       $unwind$__acrt_execute_initializers 00000001800245fc     libucrt:shared_initialization.obj
 0002:0000a5fc       $unwind$__acrt_free_locale 00000001800245fc     libucrt:locale_refcounting.obj
 0002:0000a5fc       $unwind$?dllmain_raw@@YAHQEAUHINSTANCE__@@KQEAX@Z 00000001800245fc     LIBCMT:dll_dllmain.obj
 0002:0000a5fc       $unwind$_seh_filter_exe    00000001800245fc     libucrt:exception_filter.obj
 0002:0000a5fc       $unwind$_recalloc_base     00000001800245fc     libucrt:recalloc.obj
 0002:0000a610       $unwind$__acrt_lowio_destroy_handle_array 0000000180024610     libucrt:osfinfo.obj
 0002:0000a620       $unwind$__acrt_lowio_ensure_fh_exists 0000000180024620     libucrt:osfinfo.obj
 0002:0000a64c       $unwind$__acrt_fltout      000000018002464c     libucrt:cfout.obj
 0002:0000a66c       $unwind$?divide@__crt_strtox@@YA_KAEAUbig_integer@1@AEBU21@@Z 000000018002466c     libucrt:cfout.obj
 0002:0000a68c       $chain$5$?divide@__crt_strtox@@YA_KAEAUbig_integer@1@AEBU21@@Z 000000018002468c     libucrt:cfout.obj
 0002:0000a6a0       $chain$6$?divide@__crt_strtox@@YA_KAEAUbig_integer@1@AEBU21@@Z 00000001800246a0     libucrt:cfout.obj
 0002:0000a6b0       $unwind$??$write_buffer_nolock@D@@YA_NDV__crt_stdio_stream@@@Z 00000001800246b0     libucrt:_flsbuf.obj
 0002:0000a6c0       $unwind$??$write_buffer_nolock@_W@@YA_N_WV__crt_stdio_stream@@@Z 00000001800246c0     libucrt:_flsbuf.obj
 0002:0000a6d0       $unwind$fclose             00000001800246d0     libucrt:fclose.obj
 0002:0000a6f4       $unwind$??$common_lseek@_J@@YA_JH_JH@Z 00000001800246f4     libucrt:lseek.obj
 0002:0000a724       $unwind$__report_gsfailure 0000000180024724     LIBCMT:gs_report.obj
 0002:0000a724       $unwind$_putwch_nolock     0000000180024724     libucrt:putwch.obj
 0002:0000a730       $xdatasym                  0000000180024730     libucrt:log10.obj
 0002:0000a73c       $unwind$??$?RV<lambda_bfedae4ebbf01fab1bb6dcc6a9e276e0>@@AEAV<lambda_2fe9b910cf3cbf4a0ab98a02ba45b3ec>@@V<lambda_237c231691f317818eb88cc1d5d642d6>@@@?$__crt_seh_guarded_call@H@@QEAAH$$QEAV<lambda_bfedae4ebbf01fab1bb6dcc6a9e276e0>@@AEAV<lambda_2fe9b910cf3cbf4a0ab98a02ba45b3ec>@@$$QEAV<lambda_237c231691f317818eb88cc1d5d642d6>@@@Z 000000018002473c     libucrt:close.obj
 0002:0000a760       $unwind$common_control87   0000000180024760     libucrt:ieee.obj
 0002:0000a790       $unwind$_call_matherr      0000000180024790     libucrt:libm_error.obj
 0002:0000a798       $unwind$_handle_error      0000000180024798     libucrt:libm_error.obj
 0002:0000a7b8       $unwind$__acrt_initialize_fma3 00000001800247b8     libucrt:fma3_available.obj
 0002:0000a7c0       $unwind$_log_special_common 00000001800247c0     libucrt:log_special.obj
 0002:0000a7d0       $xdatasym                  00000001800247d0     libucrt:fpsr.obj
 0002:0000a7d8       $unwind$_raise_exc_ex      00000001800247d8     libucrt:fpexcept.obj
 0002:0000a7ec       $unwind$_ctrlfp            00000001800247ec     libucrt:fpctrl.obj
 0002:0000a814       $unwind$?DloadObtainSection@@YAPEAXPEAK0@Z 0000000180024814     DelayImp:delayhlp.obj
 0002:0000a824       $unwind$?DloadMakePermanentImageCommit@@YAXPEAX_K@Z 0000000180024824     DelayImp:delayhlp.obj
 0002:0000a830       $unwind$?DloadProtectSection@@YAXKPEAK@Z 0000000180024830     DelayImp:delayhlp.obj
 0002:0000a840       $unwind$__delayLoadHelper2 0000000180024840     DelayImp:delayhlp.obj
 0002:0000a858       $unwind$__GSHandlerCheckCommon 0000000180024858     LIBCMT:_gshandler_.obj
 0002:0000a860       $unwind$_IsNonwritableInCurrentImage 0000000180024860     LIBCMT:pesect.obj
 0002:0000a888       $xdatasym                  0000000180024888     LIBCMT:_chkstk_.obj
 0002:0000a890       $xdatasym                  0000000180024890     libvcruntime:memcmp.obj
 0002:0000a894       $unwind$strrchr            0000000180024894     libvcruntime:strrchr.obj
 0002:0000b820       .edata                     0000000180025820     ogg.exp
 0002:0000b848       rgpv                       0000000180025848     ogg.exp
 0002:0000b94c       rgszName                   000000018002594c     ogg.exp
 0002:0000ba50       rgwOrd                     0000000180025a50     ogg.exp
 0002:0000bad2       szName                     0000000180025ad2     ogg.exp
 0002:0000badb       $N00001                    0000000180025adb     ogg.exp
 0002:0000baea       $N00002                    0000000180025aea     ogg.exp
 0002:0000bafb       $N00003                    0000000180025afb     ogg.exp
 0002:0000bb08       $N00004                    0000000180025b08     ogg.exp
 0002:0000bb1e       $N00005                    0000000180025b1e     ogg.exp
 0002:0000bb31       $N00006                    0000000180025b31     ogg.exp
 0002:0000bb3e       $N00007                    0000000180025b3e     ogg.exp
 0002:0000bb52       $N00008                    0000000180025b52     ogg.exp
 0002:0000bb63       $N00009                    0000000180025b63     ogg.exp
 0002:0000bb73       $N00010                    0000000180025b73     ogg.exp
 0002:0000bb85       $N00011                    0000000180025b85     ogg.exp
 0002:0000bb96       $N00012                    0000000180025b96     ogg.exp
 0002:0000bba7       $N00013                    0000000180025ba7     ogg.exp
 0002:0000bbba       $N00014                    0000000180025bba     ogg.exp
 0002:0000bbc9       $N00015                    0000000180025bc9     ogg.exp
 0002:0000bbda       $N00016                    0000000180025bda     ogg.exp
 0002:0000bbea       $N00017                    0000000180025bea     ogg.exp
 0002:0000bbfe       $N00018                    0000000180025bfe     ogg.exp
 0002:0000bc13       $N00019                    0000000180025c13     ogg.exp
 0002:0000bc29       $N00020                    0000000180025c29     ogg.exp
 0002:0000bc3b       $N00021                    0000000180025c3b     ogg.exp
 0002:0000bc4e       $N00022                    0000000180025c4e     ogg.exp
 0002:0000bc5f       $N00023                    0000000180025c5f     ogg.exp
 0002:0000bc79       $N00024                    0000000180025c79     ogg.exp
 0002:0000bc89       $N00025                    0000000180025c89     ogg.exp
 0002:0000bc98       $N00026                    0000000180025c98     ogg.exp
 0002:0000bca9       $N00027                    0000000180025ca9     ogg.exp
 0002:0000bcb7       $N00028                    0000000180025cb7     ogg.exp
 0002:0000bcc8       $N00029                    0000000180025cc8     ogg.exp
 0002:0000bcda       $N00030                    0000000180025cda     ogg.exp
 0002:0000bce9       $N00031                    0000000180025ce9     ogg.exp
 0002:0000bcf8       $N00032                    0000000180025cf8     ogg.exp
 0002:0000bd05       $N00033                    0000000180025d05     ogg.exp
 0002:0000bd13       $N00034                    0000000180025d13     ogg.exp
 0002:0000bd21       $N00035                    0000000180025d21     ogg.exp
 0002:0000bd30       $N00036                    0000000180025d30     ogg.exp
 0002:0000bd44       $N00037                    0000000180025d44     ogg.exp
 0002:0000bd52       $N00038                    0000000180025d52     ogg.exp
 0002:0000bd61       $N00039                    0000000180025d61     ogg.exp
 0002:0000bd6f       $N00040                    0000000180025d6f     ogg.exp
 0002:0000bd7e       $N00041                    0000000180025d7e     ogg.exp
 0002:0000bd90       $N00042                    0000000180025d90     ogg.exp
 0002:0000bd9f       $N00043                    0000000180025d9f     ogg.exp
 0002:0000bdae       $N00044                    0000000180025dae     ogg.exp
 0002:0000bdc2       $N00045                    0000000180025dc2     ogg.exp
 0002:0000bdd6       $N00046                    0000000180025dd6     ogg.exp
 0002:0000bde9       $N00047                    0000000180025de9     ogg.exp
 0002:0000bdfc       $N00048                    0000000180025dfc     ogg.exp
 0002:0000be10       $N00049                    0000000180025e10     ogg.exp
 0002:0000be1c       $N00050                    0000000180025e1c     ogg.exp
 0002:0000be29       $N00051                    0000000180025e29     ogg.exp
 0002:0000be36       $N00052                    0000000180025e36     ogg.exp
 0002:0000be44       $N00053                    0000000180025e44     ogg.exp
 0002:0000be57       $N00054                    0000000180025e57     ogg.exp
 0002:0000be64       $N00055                    0000000180025e64     ogg.exp
 0002:0000be72       $N00056                    0000000180025e72     ogg.exp
 0002:0000be7f       $N00057                    0000000180025e7f     ogg.exp
 0002:0000be8d       $N00058                    0000000180025e8d     ogg.exp
 0002:0000be9e       $N00059                    0000000180025e9e     ogg.exp
 0002:0000beac       $N00060                    0000000180025eac     ogg.exp
 0002:0000beba       $N00061                    0000000180025eba     ogg.exp
 0002:0000becd       $N00062                    0000000180025ecd     ogg.exp
 0002:0000bee0       $N00063                    0000000180025ee0     ogg.exp
 0002:0000bef2       $N00064                    0000000180025ef2     ogg.exp
 0002:0000bf04       $N00065                    0000000180025f04     ogg.exp
 0002:0000c1e4       .idata$6                   00000001800261e4     kernel32:KERNEL32.dll
 0002:0000c742       .idata$6                   0000000180026742     advapi32:ADVAPI32.dll
 0003:00000030       ?_Tlg_Microsoft_CRTProviderProv@@3U_TlgProvider_t@__vcrt_trace_logging_provider@@A 0000000180027030     libvcruntime:telemetry.obj
 0003:00000080       ?__vcrt_flsindex@@3KA      0000000180027080     libvcruntime:per_thread_data.obj
 0003:00000088       errno_no_memory            0000000180027088     libucrt:errno.obj
 0003:0000008c       doserrno_no_memory         000000018002708c     libucrt:errno.obj
 0003:00000198       __acrt_flsindex            0000000180027198     libucrt:per_thread_data.obj
 0003:00000540       __rgctypeflag              0000000180027540     libucrt:mbctype.obj
 0003:00000550       __rgcode_page_info         0000000180027550     libucrt:mbctype.obj
 0003:00000948       ?dazSupported@?1??common_control87@@9@9 0000000180027948     libucrt:ieee.obj
 0003:00000950       ?dazSupported@?1??_ctrlfp@@9@9 0000000180027950     libucrt:fpctrl.obj
 0003:00000970       _module                    0000000180027970     binding.obj
 0003:00000bc8       ?__proc_attached@@3HA      0000000180027bc8     LIBCMT:dll_dllmain.obj
 0003:00000bd0       GS_ExceptionRecord         0000000180027bd0     LIBCMT:gs_report.obj
 0003:00000c70       GS_ContextRecord           0000000180027c70     LIBCMT:gs_report.obj
 0003:00001150       ?module_local_atexit_table@@3U_onexit_table_t@@A 0000000180028150     LIBCMT:utility.obj
 0003:00001168       ?module_local_at_quick_exit_table@@3U_onexit_table_t@@A 0000000180028168     LIBCMT:utility.obj
 0003:00001180       ?is_initialized_as_dll@@3_NA 0000000180028180     LIBCMT:utility.obj
 0003:000011c0       ?module_handles@@3PAPEAUHINSTANCE__@@A 00000001800281c0     libvcruntime:winapi_downlevel.obj
 0003:000011e0       ?encoded_function_pointers@@3PAPEAXA 00000001800281e0     libvcruntime:winapi_downlevel.obj
 0003:00001230       ?__vcrt_startup_thread_ptd@@3U__vcrt_ptd@@A 0000000180028230     libvcruntime:per_thread_data.obj
 0003:000012a8       __vcrt_lock_table          00000001800282a8     libvcruntime:locks.obj
 0003:000012d0       __vcrt_locks_initialized   00000001800282d0     libvcruntime:locks.obj
 0003:00001320       ?heap@@3V_HeapManager@@A   0000000180028320     libvcruntime:undname.obj
 0003:00001348       __acrt_new_handler         0000000180028348     libucrt:new_handler.obj
 0003:00001350       c_termination_complete     0000000180028350     libucrt:exit.obj
 0003:00001358       thread_local_exit_callback_func 0000000180028358     libucrt:exit.obj
 0003:00001360       ?c_exit_complete@?5??common_exit@@YAXHW4_crt_exit_cleanup_mode@@W4_crt_exit_return_mode@@@Z@4_NA 0000000180028360     libucrt:exit.obj
 0003:00001370       ?program_name@?5???$common_configure_argv@D@@YAHW4_crt_argv_mode@@@Z@4PADA 0000000180028370     libucrt:argv_parsing.obj
 0003:000014c8       __acrt_invalid_parameter_handler 00000001800284c8     libucrt:invalid_parameter.obj
 0003:000014d0       __acrt_app_type            00000001800284d0     libucrt:report_runtime_error.obj
 0003:000014d4       __acrt_error_mode          00000001800284d4     libucrt:set_error_mode.obj
 0003:000014f0       ctrlc_action               00000001800284f0     libucrt:signal.obj
 0003:000014f8       ctrlbreak_action           00000001800284f8     libucrt:signal.obj
 0003:00001500       abort_action               0000000180028500     libucrt:signal.obj
 0003:00001508       term_action                0000000180028508     libucrt:signal.obj
 0003:00001520       __acrt_lock_table          0000000180028520     libucrt:locks.obj
 0003:00001728       __acrt_locks_initialized   0000000180028728     libucrt:locks.obj
 0003:00001730       module_handles             0000000180028730     libucrt:winapi_thunks.obj
 0003:000017d0       encoded_function_pointers  00000001800287d0     libucrt:winapi_thunks.obj
 0003:000018d0       ?state_cache@?1??__acrt_is_packaged_app@@9@4JA 00000001800288d0     libucrt:winapi_thunks.obj
 0003:000018ec       fSystemSet                 00000001800288ec     libucrt:mbctype.obj
 0003:000018f8       ?initialized@?1??__acrt_initialize_multibyte@@9@4_NA 00000001800288f8     libucrt:mbctype.obj
 0003:00001d38       user_matherr               0000000180028d38     libucrt:matherr.obj
 0003:00001d50       __acrt_global_new_mode     0000000180028d50     libucrt:new_mode.obj
 0003:00001d58       enable_percent_n           0000000180028d58     libucrt:printf_count_output.obj
 0004:00000000       $pdata$?TraceLoggingRegister@__vcrt_trace_logging_provider@@YAJPEBU_TlgProvider_t@1@PEBU_GUID@@P6AX1KE_K2PEAU_EVENT_FILTER_DESCRIPTOR@@PEAX@Z4@Z 0000000180029000     libvcruntime:telemetry.obj
 0004:0000000c       $pdata$?_TlgEnableCallback@__vcrt_trace_logging_provider@@YAXPEBU_GUID@@KE_K1PEAU_EVENT_FILTER_DESCRIPTOR@@PEAX@Z 000000018002900c     libvcruntime:telemetry.obj
 0004:00000018       $pdata$?_TlgWrite@__vcrt_trace_logging_provider@@YAJPEBU_TlgProvider_t@1@PEFBXPEBU_GUID@@2IPEAU_EVENT_DATA_DESCRIPTOR@@@Z 0000000180029018     libvcruntime:telemetry.obj
 0004:00000024       $pdata$?FunctionCallbackWrapper@imp@Nan@@YAXAEBV?$FunctionCallbackInfo@VValue@v8@@@v8@@@Z 0000000180029024     binding.obj
 0004:00000030       $pdata$?New@?$Factory@VFunctionTemplate@v8@@@imp@Nan@@SA?AV?$Local@VFunctionTemplate@v8@@@v8@@P6AXAEBV?$FunctionCallbackInfo@VValue@v8@@@3@@ZV?$Local@VValue@v8@@@5@V?$Local@VSignature@v8@@@5@@Z 0000000180029030     binding.obj
 0004:0000003c       $pdata$0$?New@?$Factory@VFunctionTemplate@v8@@@imp@Nan@@SA?AV?$Local@VFunctionTemplate@v8@@@v8@@P6AXAEBV?$FunctionCallbackInfo@VValue@v8@@@3@@ZV?$Local@VValue@v8@@@5@V?$Local@VSignature@v8@@@5@@Z 000000018002903c     binding.obj
 0004:00000048       $pdata$1$?New@?$Factory@VFunctionTemplate@v8@@@imp@Nan@@SA?AV?$Local@VFunctionTemplate@v8@@@v8@@P6AXAEBV?$FunctionCallbackInfo@VValue@v8@@@3@@ZV?$Local@VValue@v8@@@5@V?$Local@VSignature@v8@@@5@@Z 0000000180029048     binding.obj
 0004:00000054       $pdata$??0Callback@Nan@@QEAA@AEBV?$Local@VFunction@v8@@@v8@@@Z 0000000180029054     binding.obj
 0004:00000060       $pdata$??0AsyncWorker@Nan@@QEAA@PEAVCallback@1@@Z 0000000180029060     binding.obj
 0004:0000006c       $pdata$??1AsyncWorker@Nan@@UEAA@XZ 000000018002906c     binding.obj
 0004:00000078       $pdata$?WorkComplete@AsyncWorker@Nan@@UEAAXXZ 0000000180029078     binding.obj
 0004:00000084       $pdata$?HandleOKCallback@AsyncWorker@Nan@@MEAAXXZ 0000000180029084     binding.obj
 0004:00000090       $pdata$?HandleErrorCallback@AsyncWorker@Nan@@MEAAXXZ 0000000180029090     binding.obj
 0004:0000009c       $pdata$??_GAsyncWorker@Nan@@UEAAPEAXI@Z 000000018002909c     binding.obj
 0004:000000a8       $pdata$?AsyncExecuteComplete@Nan@@YAXPEAUuv_work_s@@@Z 00000001800290a8     binding.obj
 0004:000000b4       $pdata$?node_ogg_sync_init@nodeogg@@YAXAEBV?$FunctionCallbackInfo@VValue@v8@@@Nan@@@Z 00000001800290b4     binding.obj
 0004:000000c0       $pdata$?Execute@OggSyncWriteWorker@nodeogg@@UEAAXXZ 00000001800290c0     binding.obj
 0004:000000cc       $pdata$?HandleOKCallback@OggSyncWriteWorker@nodeogg@@UEAAXXZ 00000001800290cc     binding.obj
 0004:000000d8       $pdata$??_GOggSyncWriteWorker@nodeogg@@UEAAPEAXI@Z 00000001800290d8     binding.obj
 0004:000000e4       $pdata$?node_ogg_sync_write@nodeogg@@YAXAEBV?$FunctionCallbackInfo@VValue@v8@@@Nan@@@Z 00000001800290e4     binding.obj
 0004:000000f0       $pdata$?Execute@OggSyncPageoutWorker@nodeogg@@UEAAXXZ 00000001800290f0     binding.obj
 0004:000000fc       $pdata$?HandleOKCallback@OggSyncPageoutWorker@nodeogg@@UEAAXXZ 00000001800290fc     binding.obj
 0004:00000108       $pdata$??_GOggSyncPageoutWorker@nodeogg@@UEAAPEAXI@Z 0000000180029108     binding.obj
 0004:00000114       $pdata$?node_ogg_sync_pageout@nodeogg@@YAXAEBV?$FunctionCallbackInfo@VValue@v8@@@Nan@@@Z 0000000180029114     binding.obj
 0004:00000120       $pdata$?node_ogg_stream_init@nodeogg@@YAXAEBV?$FunctionCallbackInfo@VValue@v8@@@Nan@@@Z 0000000180029120     binding.obj
 0004:0000012c       $pdata$?Execute@OggStreamPageinWorker@nodeogg@@UEAAXXZ 000000018002912c     binding.obj
 0004:00000138       $pdata$?HandleOKCallback@OggStreamPageinWorker@nodeogg@@UEAAXXZ 0000000180029138     binding.obj
 0004:00000138       $pdata$?HandleOKCallback@OggStreamPacketinWorker@nodeogg@@UEAAXXZ 0000000180029138     binding.obj
 0004:00000144       $pdata$??_GOggStreamPageinWorker@nodeogg@@UEAAPEAXI@Z 0000000180029144     binding.obj
 0004:00000150       $pdata$?node_ogg_stream_pagein@nodeogg@@YAXAEBV?$FunctionCallbackInfo@VValue@v8@@@Nan@@@Z 0000000180029150     binding.obj
 0004:0000015c       $pdata$?Execute@OggStreamPacketoutWorker@nodeogg@@UEAAXXZ 000000018002915c     binding.obj
 0004:00000168       $pdata$?HandleOKCallback@OggStreamPacketoutWorker@nodeogg@@UEAAXXZ 0000000180029168     binding.obj
 0004:00000174       $pdata$0$?HandleOKCallback@OggStreamPacketoutWorker@nodeogg@@UEAAXXZ 0000000180029174     binding.obj
 0004:00000180       $pdata$1$?HandleOKCallback@OggStreamPacketoutWorker@nodeogg@@UEAAXXZ 0000000180029180     binding.obj
 0004:0000018c       $pdata$2$?HandleOKCallback@OggStreamPacketoutWorker@nodeogg@@UEAAXXZ 000000018002918c     binding.obj
 0004:00000198       $pdata$3$?HandleOKCallback@OggStreamPacketoutWorker@nodeogg@@UEAAXXZ 0000000180029198     binding.obj
 0004:000001a4       $pdata$??_GOggStreamPacketoutWorker@nodeogg@@UEAAPEAXI@Z 00000001800291a4     binding.obj
 0004:000001b0       $pdata$?node_ogg_stream_packetout@nodeogg@@YAXAEBV?$FunctionCallbackInfo@VValue@v8@@@Nan@@@Z 00000001800291b0     binding.obj
 0004:000001bc       $pdata$?Execute@OggStreamPacketinWorker@nodeogg@@UEAAXXZ 00000001800291bc     binding.obj
 0004:000001c8       $pdata$??_GOggStreamPacketinWorker@nodeogg@@UEAAPEAXI@Z 00000001800291c8     binding.obj
 0004:000001d4       $pdata$?node_ogg_stream_packetin@nodeogg@@YAXAEBV?$FunctionCallbackInfo@VValue@v8@@@Nan@@@Z 00000001800291d4     binding.obj
 0004:000001e0       $pdata$?HandleOKCallback@StreamWorker@nodeogg@@UEAAXXZ 00000001800291e0     binding.obj
 0004:000001ec       $pdata$0$?HandleOKCallback@StreamWorker@nodeogg@@UEAAXXZ 00000001800291ec     binding.obj
 0004:000001f8       $pdata$1$?HandleOKCallback@StreamWorker@nodeogg@@UEAAXXZ 00000001800291f8     binding.obj
 0004:00000204       $pdata$2$?HandleOKCallback@StreamWorker@nodeogg@@UEAAXXZ 0000000180029204     binding.obj
 0004:00000210       $pdata$3$?HandleOKCallback@StreamWorker@nodeogg@@UEAAXXZ 0000000180029210     binding.obj
 0004:0000021c       $pdata$?Execute@StreamPageoutWorker@nodeogg@@UEAAXXZ 000000018002921c     binding.obj
 0004:00000228       $pdata$??_GStreamPageoutWorker@nodeogg@@UEAAPEAXI@Z 0000000180029228     binding.obj
 0004:00000234       $pdata$?node_ogg_stream_pageout@nodeogg@@YAXAEBV?$FunctionCallbackInfo@VValue@v8@@@Nan@@@Z 0000000180029234     binding.obj
 0004:00000240       $pdata$?Execute@StreamFlushWorker@nodeogg@@UEAAXXZ 0000000180029240     binding.obj
 0004:0000024c       $pdata$??_GStreamFlushWorker@nodeogg@@UEAAPEAXI@Z 000000018002924c     binding.obj
 0004:00000258       $pdata$?node_ogg_stream_flush@nodeogg@@YAXAEBV?$FunctionCallbackInfo@VValue@v8@@@Nan@@@Z 0000000180029258     binding.obj
 0004:00000264       $pdata$?node_ogg_page_to_buffer@nodeogg@@YAXAEBV?$FunctionCallbackInfo@VValue@v8@@@Nan@@@Z 0000000180029264     binding.obj
 0004:00000270       $pdata$?node_ogg_packet_set_packet@nodeogg@@YAXAEBV?$FunctionCallbackInfo@VValue@v8@@@Nan@@@Z 0000000180029270     binding.obj
 0004:0000027c       $pdata$?node_ogg_packet_get_packet@nodeogg@@YAXAEBV?$FunctionCallbackInfo@VValue@v8@@@Nan@@@Z 000000018002927c     binding.obj
 0004:00000288       $pdata$?node_ogg_packet_bytes@nodeogg@@YAXAEBV?$FunctionCallbackInfo@VValue@v8@@@Nan@@@Z 0000000180029288     binding.obj
 0004:00000294       $pdata$?node_ogg_packet_b_o_s@nodeogg@@YAXAEBV?$FunctionCallbackInfo@VValue@v8@@@Nan@@@Z 0000000180029294     binding.obj
 0004:000002a0       $pdata$?node_ogg_packet_e_o_s@nodeogg@@YAXAEBV?$FunctionCallbackInfo@VValue@v8@@@Nan@@@Z 00000001800292a0     binding.obj
 0004:000002ac       $pdata$?node_ogg_packet_granulepos@nodeogg@@YAXAEBV?$FunctionCallbackInfo@VValue@v8@@@Nan@@@Z 00000001800292ac     binding.obj
 0004:000002b8       $pdata$?node_ogg_packet_packetno@nodeogg@@YAXAEBV?$FunctionCallbackInfo@VValue@v8@@@Nan@@@Z 00000001800292b8     binding.obj
 0004:000002c4       $pdata$?node_ogg_packet_replace_buffer@nodeogg@@YAXAEBV?$FunctionCallbackInfo@VValue@v8@@@Nan@@@Z 00000001800292c4     binding.obj
 0004:000002d0       $pdata$?Initialize@nodeogg@@YAXV?$Local@VObject@v8@@@v8@@@Z 00000001800292d0     binding.obj
 0004:000002dc       $pdata$load_exe_hook       00000001800292dc     win_delay_load_hook.obj
 0004:000002e8       $pdata$ogg_stream_init     00000001800292e8     libogg:framing.obj
 0004:000002f4       $pdata$ogg_stream_clear    00000001800292f4     libogg:framing.obj
 0004:00000300       $pdata$ogg_stream_destroy  0000000180029300     libogg:framing.obj
 0004:0000030c       $pdata$_os_body_expand     000000018002930c     libogg:framing.obj
 0004:00000318       $pdata$_os_lacing_expand   0000000180029318     libogg:framing.obj
 0004:00000324       $pdata$ogg_page_checksum_set 0000000180029324     libogg:framing.obj
 0004:00000330       $pdata$0$ogg_page_checksum_set 0000000180029330     libogg:framing.obj
 0004:0000033c       $pdata$1$ogg_page_checksum_set 000000018002933c     libogg:framing.obj
 0004:00000348       $pdata$2$ogg_page_checksum_set 0000000180029348     libogg:framing.obj
 0004:00000354       $pdata$3$ogg_page_checksum_set 0000000180029354     libogg:framing.obj
 0004:00000360       $pdata$ogg_stream_iovecin  0000000180029360     libogg:framing.obj
 0004:0000036c       $pdata$3$ogg_stream_iovecin 000000018002936c     libogg:framing.obj
 0004:00000378       $pdata$4$ogg_stream_iovecin 0000000180029378     libogg:framing.obj
 0004:00000384       $pdata$5$ogg_stream_iovecin 0000000180029384     libogg:framing.obj
 0004:00000390       $pdata$7$ogg_stream_iovecin 0000000180029390     libogg:framing.obj
 0004:0000039c       $pdata$8$ogg_stream_iovecin 000000018002939c     libogg:framing.obj
 0004:000003a8       $pdata$ogg_stream_packetin 00000001800293a8     libogg:framing.obj
 0004:000003b4       $pdata$ogg_stream_flush_i  00000001800293b4     libogg:framing.obj
 0004:000003c0       $pdata$2$ogg_stream_flush_i 00000001800293c0     libogg:framing.obj
 0004:000003cc       $pdata$3$ogg_stream_flush_i 00000001800293cc     libogg:framing.obj
 0004:000003d8       $pdata$ogg_sync_clear      00000001800293d8     libogg:framing.obj
 0004:000003e4       $pdata$ogg_sync_destroy    00000001800293e4     libogg:framing.obj
 0004:000003f0       $pdata$ogg_sync_buffer     00000001800293f0     libogg:framing.obj
 0004:000003fc       $pdata$ogg_sync_pageseek   00000001800293fc     libogg:framing.obj
 0004:00000408       $pdata$ogg_sync_pageout    0000000180029408     libogg:framing.obj
 0004:00000414       $pdata$ogg_stream_pagein   0000000180029414     libogg:framing.obj
 0004:00000420       $pdata$0$ogg_stream_pagein 0000000180029420     libogg:framing.obj
 0004:0000042c       $pdata$2$ogg_stream_pagein 000000018002942c     libogg:framing.obj
 0004:00000438       $pdata$3$ogg_stream_pagein 0000000180029438     libogg:framing.obj
 0004:00000444       $pdata$_packetout          0000000180029444     libogg:framing.obj
 0004:00000450       $pdata$0$_packetout        0000000180029450     libogg:framing.obj
 0004:0000045c       $pdata$2$_packetout        000000018002945c     libogg:framing.obj
 0004:00000468       $pdata$3$_packetout        0000000180029468     libogg:framing.obj
 0004:00000474       $pdata$4$_packetout        0000000180029474     libogg:framing.obj
 0004:00000480       $pdata$5$_packetout        0000000180029480     libogg:framing.obj
 0004:0000048c       $pdata$6$_packetout        000000018002948c     libogg:framing.obj
 0004:00000498       $pdata$ogg_stream_packetpeek 0000000180029498     libogg:framing.obj
 0004:000004a4       $pdata$0$ogg_stream_packetpeek 00000001800294a4     libogg:framing.obj
 0004:000004b0       $pdata$2$ogg_stream_packetpeek 00000001800294b0     libogg:framing.obj
 0004:000004bc       $pdata$4$ogg_stream_packetpeek 00000001800294bc     libogg:framing.obj
 0004:000004c8       $pdata$5$ogg_stream_packetpeek 00000001800294c8     libogg:framing.obj
 0004:000004d4       $pdata$6$ogg_stream_packetpeek 00000001800294d4     libogg:framing.obj
 0004:000004e0       $pdata$ogg_packet_clear    00000001800294e0     libogg:framing.obj
 0004:000004ec       $pdata$oggpack_writeinit   00000001800294ec     libogg:bitwise.obj
 0004:000004ec       $pdata$oggpackB_writeinit  00000001800294ec     libogg:bitwise.obj
 0004:000004f8       $pdata$oggpack_write       00000001800294f8     libogg:bitwise.obj
 0004:00000504       $pdata$oggpackB_write      0000000180029504     libogg:bitwise.obj
 0004:00000510       $pdata$oggpack_writecopy_helper 0000000180029510     libogg:bitwise.obj
 0004:0000051c       $pdata$oggpack_writecopy   000000018002951c     libogg:bitwise.obj
 0004:00000528       $pdata$oggpackB_writecopy  0000000180029528     libogg:bitwise.obj
 0004:00000534       $pdata$oggpack_writeclear  0000000180029534     libogg:bitwise.obj
 0004:00000534       $pdata$oggpackB_writeclear 0000000180029534     libogg:bitwise.obj
 0004:00000540       $pdata$oggpack_look        0000000180029540     libogg:bitwise.obj
 0004:0000054c       $pdata$0$oggpack_look      000000018002954c     libogg:bitwise.obj
 0004:00000558       $pdata$2$oggpack_look      0000000180029558     libogg:bitwise.obj
 0004:00000564       $pdata$4$oggpack_look      0000000180029564     libogg:bitwise.obj
 0004:00000570       $pdata$5$oggpack_look      0000000180029570     libogg:bitwise.obj
 0004:0000057c       $pdata$oggpackB_look       000000018002957c     libogg:bitwise.obj
 0004:00000588       $pdata$oggpack_read        0000000180029588     libogg:bitwise.obj
 0004:00000594       $pdata$0$oggpack_read      0000000180029594     libogg:bitwise.obj
 0004:000005a0       $pdata$1$oggpack_read      00000001800295a0     libogg:bitwise.obj
 0004:000005ac       $pdata$oggpackB_read       00000001800295ac     libogg:bitwise.obj
 0004:000005d0       $pdata$??2@YAPEAX_K@Z      00000001800295d0     LIBCMT:new_scalar.obj
 0004:000005dc       $pdata$?dllmain_crt_dispatch@@YAHQEAUHINSTANCE__@@KQEAX@Z 00000001800295dc     LIBCMT:dll_dllmain.obj
 0004:000005e8       $pdata$?dllmain_crt_process_attach@@YAHQEAUHINSTANCE__@@QEAX@Z 00000001800295e8     LIBCMT:dll_dllmain.obj
 0004:000005f4       $pdata$?dllmain_crt_process_detach@@YAH_N@Z 00000001800295f4     LIBCMT:dll_dllmain.obj
 0004:00000600       $pdata$?dllmain_dispatch@@YAHQEAUHINSTANCE__@@KQEAX@Z 0000000180029600     LIBCMT:dll_dllmain.obj
 0004:0000060c       $pdata$?dllmain_raw@@YAHQEAUHINSTANCE__@@KQEAX@Z 000000018002960c     LIBCMT:dll_dllmain.obj
 0004:00000618       $pdata$_DllMainCRTStartup  0000000180029618     LIBCMT:dll_dllmain.obj
 0004:00000624       $pdata$__raise_securityfailure 0000000180029624     LIBCMT:gs_report.obj
 0004:00000630       $pdata$__report_gsfailure  0000000180029630     LIBCMT:gs_report.obj
 0004:0000063c       $pdata$__report_rangecheckfailure 000000018002963c     LIBCMT:gs_report.obj
 0004:00000648       $pdata$__report_securityfailure 0000000180029648     LIBCMT:gs_report.obj
 0004:00000654       $pdata$capture_current_context 0000000180029654     LIBCMT:gs_report.obj
 0004:00000660       $pdata$capture_previous_context 0000000180029660     LIBCMT:gs_report.obj
 0004:0000066c       $pdata$??0bad_alloc@std@@QEAA@AEBV01@@Z 000000018002966c     LIBCMT:throw_bad_alloc.obj
 0004:00000678       $pdata$??0bad_array_new_length@std@@QEAA@AEBV01@@Z 0000000180029678     LIBCMT:throw_bad_alloc.obj
 0004:00000684       $pdata$??0exception@std@@QEAA@AEBV01@@Z 0000000180029684     LIBCMT:throw_bad_alloc.obj
 0004:00000690       $pdata$??_Gexception@std@@UEAAPEAXI@Z 0000000180029690     LIBCMT:throw_bad_alloc.obj
 0004:00000690       $pdata$??_Gbad_alloc@std@@UEAAPEAXI@Z 0000000180029690     LIBCMT:throw_bad_alloc.obj
 0004:00000690       $pdata$??_Gbad_array_new_length@std@@UEAAPEAXI@Z 0000000180029690     LIBCMT:throw_bad_alloc.obj
 0004:0000069c       $pdata$?__scrt_throw_std_bad_alloc@@YAXXZ 000000018002969c     LIBCMT:throw_bad_alloc.obj
 0004:000006a8       $pdata$?__scrt_throw_std_bad_array_new_length@@YAXXZ 00000001800296a8     LIBCMT:throw_bad_alloc.obj
 0004:000006b4       $pdata$__scrt_acquire_startup_lock 00000001800296b4     LIBCMT:utility.obj
 0004:000006c0       $pdata$__scrt_dllmain_after_initialize_c 00000001800296c0     LIBCMT:utility.obj
 0004:000006cc       $pdata$__scrt_dllmain_before_initialize_c 00000001800296cc     LIBCMT:utility.obj
 0004:000006d8       $pdata$__scrt_dllmain_crt_thread_attach 00000001800296d8     LIBCMT:utility.obj
 0004:000006e4       $pdata$__scrt_dllmain_crt_thread_detach 00000001800296e4     LIBCMT:utility.obj
 0004:000006f0       $pdata$__scrt_dllmain_exception_filter 00000001800296f0     LIBCMT:utility.obj
 0004:000006fc       $pdata$__scrt_dllmain_uninitialize_c 00000001800296fc     LIBCMT:utility.obj
 0004:00000708       $pdata$__scrt_dllmain_uninitialize_critical 0000000180029708     LIBCMT:utility.obj
 0004:00000714       $pdata$__scrt_initialize_crt 0000000180029714     LIBCMT:utility.obj
 0004:00000720       $pdata$__scrt_initialize_onexit_tables 0000000180029720     LIBCMT:utility.obj
 0004:0000072c       $pdata$__scrt_is_nonwritable_in_current_image 000000018002972c     LIBCMT:utility.obj
 0004:00000738       $pdata$__scrt_release_startup_lock 0000000180029738     LIBCMT:utility.obj
 0004:00000744       $pdata$__scrt_uninitialize_crt 0000000180029744     LIBCMT:utility.obj
 0004:00000750       $pdata$_onexit             0000000180029750     LIBCMT:utility.obj
 0004:0000075c       $pdata$atexit              000000018002975c     LIBCMT:utility.obj
 0004:00000768       $pdata$__security_init_cookie 0000000180029768     LIBCMT:gs_support.obj
 0004:00000774       $pdata$__scrt_initialize_default_local_stdio_options 0000000180029774     LIBCMT:default_local_stdio_options.obj
 0004:00000780       $pdata$__scrt_fastfail     0000000180029780     LIBCMT:utility_desktop.obj
 0004:0000078c       $pdata$_RTC_Initialize     000000018002978c     LIBCMT:_initsect_.obj
 0004:00000798       $pdata$_RTC_Terminate      0000000180029798     LIBCMT:_initsect_.obj
 0004:000007a4       $pdata$??_Gtype_info@@UEAAPEAXI@Z 00000001800297a4     LIBCMT:std_type_info_static.obj
 0004:000007b0       $pdata$__isa_available_init 00000001800297b0     LIBCMT:_cpu_disp_.obj
 0004:000007bc       $pdata$_purecall           00000001800297bc     libvcruntime:purevirt.obj
 0004:000007d4       $pdata$__telemetry_main_invoke_trigger 00000001800297d4     libvcruntime:telemetry.obj
 0004:000007e0       $pdata$__telemetry_main_return_trigger 00000001800297e0     libvcruntime:telemetry.obj
 0004:000007ec       $pdata$__vcrt_uninitialize_telemetry_provider 00000001800297ec     libvcruntime:telemetry.obj
 0004:000007f8       $pdata$__C_specific_handler 00000001800297f8     libvcruntime:_chandler_.obj
 0004:00000804       $pdata$__std_exception_copy 0000000180029804     libvcruntime:std_exception.obj
 0004:00000810       $pdata$__std_exception_destroy 0000000180029810     libvcruntime:std_exception.obj
 0004:0000081c       $pdata$_CxxThrowException  000000018002981c     libvcruntime:throw.obj
 0004:00000828       $pdata$__vcrt_initialize   0000000180029828     libvcruntime:initialization.obj
 0004:00000834       $pdata$__vcrt_thread_attach 0000000180029834     libvcruntime:initialization.obj
 0004:00000840       $pdata$__vcrt_thread_detach 0000000180029840     libvcruntime:initialization.obj
 0004:0000084c       $pdata$__vcrt_uninitialize 000000018002984c     libvcruntime:initialization.obj
 0004:00000858       $pdata$__vcrt_uninitialize_critical 0000000180029858     libvcruntime:initialization.obj
 0004:00000864       $pdata$__std_type_info_destroy_list 0000000180029864     libvcruntime:std_type_info.obj
 0004:0000087c       $pdata$?try_get_function@@YAPEAXW4function_id@?A0x49c8dc86@@QEBDQEBW4module_id@2@2@Z 000000018002987c     libvcruntime:winapi_downlevel.obj
 0004:00000888       $pdata$__vcrt_EventRegister 0000000180029888     libvcruntime:winapi_downlevel.obj
 0004:00000894       $pdata$__vcrt_EventSetInformation 0000000180029894     libvcruntime:winapi_downlevel.obj
 0004:000008a0       $pdata$__vcrt_EventUnregister 00000001800298a0     libvcruntime:winapi_downlevel.obj
 0004:000008ac       $pdata$__vcrt_EventWriteTransfer 00000001800298ac     libvcruntime:winapi_downlevel.obj
 0004:000008b8       $pdata$__vcrt_FlsAlloc     00000001800298b8     libvcruntime:winapi_downlevel.obj
 0004:000008c4       $pdata$__vcrt_FlsFree      00000001800298c4     libvcruntime:winapi_downlevel.obj
 0004:000008d0       $pdata$__vcrt_FlsGetValue  00000001800298d0     libvcruntime:winapi_downlevel.obj
 0004:000008dc       $pdata$__vcrt_FlsSetValue  00000001800298dc     libvcruntime:winapi_downlevel.obj
 0004:000008e8       $pdata$__vcrt_InitializeCriticalSectionEx 00000001800298e8     libvcruntime:winapi_downlevel.obj
 0004:000008f4       $pdata$__vcrt_initialize_winapi_thunks 00000001800298f4     libvcruntime:winapi_downlevel.obj
 0004:00000900       $pdata$__vcrt_uninitialize_winapi_thunks 0000000180029900     libvcruntime:winapi_downlevel.obj
 0004:0000093c       $pdata$__vcrt_freefls      000000018002993c     libvcruntime:per_thread_data.obj
 0004:00000948       $pdata$__vcrt_freeptd      0000000180029948     libvcruntime:per_thread_data.obj
 0004:00000954       $pdata$__vcrt_getptd_noexit 0000000180029954     libvcruntime:per_thread_data.obj
 0004:00000960       $pdata$__vcrt_initialize_ptd 0000000180029960     libvcruntime:per_thread_data.obj
 0004:0000096c       $pdata$__vcrt_uninitialize_ptd 000000018002996c     libvcruntime:per_thread_data.obj
 0004:00000978       $pdata$__vcrt_initialize_locks 0000000180029978     libvcruntime:locks.obj
 0004:00000984       $pdata$__vcrt_uninitialize_locks 0000000180029984     libvcruntime:locks.obj
 0004:00000990       $pdata$??$common_assert_to_message_box@_W@@YAXQEB_W0IQEAX@Z 0000000180029990     libucrt:assert.obj
 0004:0000099c       $pdata$??$common_assert_to_message_box_build_string@_W@@YAXQEA_W_KQEB_W2IQEAX@Z 000000018002999c     libucrt:assert.obj
 0004:000009a8       $pdata$??$common_assert_to_stderr@_W@@YAXQEB_W0I@Z 00000001800299a8     libucrt:assert.obj
 0004:000009b4       $pdata$_wassert            00000001800299b4     libucrt:assert.obj
 0004:000009c0       $pdata$fwprintf            00000001800299c0     libucrt:assert.obj
 0004:000009cc       $pdata$swprintf            00000001800299cc     libucrt:assert.obj
 0004:000009d8       $pdata$??0_LocaleUpdate@@QEAA@QEAU__crt_locale_pointers@@@Z 00000001800299d8     libucrt:stricmp.obj
 0004:000009e4       $pdata$_stricmp            00000001800299e4     libucrt:stricmp.obj
 0004:000009f0       $pdata$_stricmp_l          00000001800299f0     libucrt:stricmp.obj
 0004:000009fc       $pdata$_callnewh           00000001800299fc     libucrt:new_handler.obj
 0004:00000a08       $pdata$_query_new_handler  0000000180029a08     libucrt:new_handler.obj
 0004:00000a14       $pdata$_initterm           0000000180029a14     libucrt:initterm.obj
 0004:00000a20       $pdata$_initterm_e         0000000180029a20     libucrt:initterm.obj
 0004:00000a2c       $pdata$_seh_filter_exe     0000000180029a2c     libucrt:exception_filter.obj
 0004:00000a38       $pdata$?common_exit@@YAXHW4_crt_exit_cleanup_mode@@W4_crt_exit_return_mode@@@Z 0000000180029a38     libucrt:exit.obj
 0004:00000a44       $pdata$?exit_or_terminate_process@@YAXI@Z 0000000180029a44     libucrt:exit.obj
 0004:00000a50       $pdata$?try_cor_exit_process@@YAXI@Z 0000000180029a50     libucrt:exit.obj
 0004:00000a5c       $pdata$??$parse_command_line@D@@YAXPEADPEAPEAD0PEA_K2@Z 0000000180029a5c     libucrt:argv_parsing.obj
 0004:00000a68       $pdata$__acrt_allocate_buffer_for_argv 0000000180029a68     libucrt:argv_parsing.obj
 0004:00000a74       $pdata$_configure_narrow_argv 0000000180029a74     libucrt:argv_parsing.obj
 0004:00000a80       $pdata$??$common_initialize_environment_nolock@D@@YAHXZ 0000000180029a80     libucrt:environment_initialization.obj
 0004:00000a8c       $pdata$??$create_environment@D@@YAQEAPEADQEAD@Z 0000000180029a8c     libucrt:environment_initialization.obj
 0004:00000a98       $pdata$??$free_environment@D@@YAXQEAPEAD@Z 0000000180029a98     libucrt:environment_initialization.obj
 0004:00000a98       $pdata$??$free_environment@_W@@YAXQEAPEA_W@Z 0000000180029a98     libucrt:environment_initialization.obj
 0004:00000aa4       $pdata$??$uninitialize_environment_internal@D@@YAXAEAPEAPEAD@Z 0000000180029aa4     libucrt:environment_initialization.obj
 0004:00000ab0       $pdata$??$uninitialize_environment_internal@_W@@YAXAEAPEAPEA_W@Z 0000000180029ab0     libucrt:environment_initialization.obj
 0004:00000abc       $pdata$__dcrt_uninitialize_environments_nolock 0000000180029abc     libucrt:environment_initialization.obj
 0004:00000ac8       $pdata$??$?RV<lambda_b8c45f8f788dd370798f47cfe8ac3a86>@@AEAV<lambda_4e60a939b0d047cfe11ddc22648dfba9>@@V<lambda_332c3edc96d0294ec56c57d38c1cdfd5>@@@?$__crt_seh_guarded_call@H@@QEAAH$$QEAV<lambda_b8c45f8f788dd370798f47cfe8ac3a86>@@AEAV<lambda_4e60a939b0d047cfe11ddc22648dfba9>@@$$QEAV<lambda_332c3edc96d0294ec56c57d38c1cdfd5>@@@Z 0000000180029ac8     libucrt:onexit.obj
 0004:00000ad4       $pdata$??$?RV<lambda_e24bbb7b643b32fcea6fa61b31d4c984>@@AEAV<lambda_275893d493268fdec8709772e3fcec0e>@@V<lambda_9d71df4d7cf3f480f8d633942495c3b0>@@@?$__crt_seh_guarded_call@H@@QEAAH$$QEAV<lambda_e24bbb7b643b32fcea6fa61b31d4c984>@@AEAV<lambda_275893d493268fdec8709772e3fcec0e>@@$$QEAV<lambda_9d71df4d7cf3f480f8d633942495c3b0>@@@Z 0000000180029ad4     libucrt:onexit.obj
 0004:00000ae0       $pdata$??R<lambda_4e60a939b0d047cfe11ddc22648dfba9>@@QEBAHXZ 0000000180029ae0     libucrt:onexit.obj
 0004:00000aec       $pdata$_execute_onexit_table 0000000180029aec     libucrt:onexit.obj
 0004:00000af8       $pdata$_register_onexit_function 0000000180029af8     libucrt:onexit.obj
 0004:00000b04       $pdata$initialize_c        0000000180029b04     libucrt:initialization.obj
 0004:00000b10       $pdata$uninitialize_environment 0000000180029b10     libucrt:initialization.obj
 0004:00000b1c       $pdata$initialize_pointers 0000000180029b1c     libucrt:initialization.obj
 0004:00000b28       $pdata$uninitialize_allocated_memory 0000000180029b28     libucrt:initialization.obj
 0004:00000b34       $pdata$__acrt_thread_attach 0000000180029b34     libucrt:initialization.obj
 0004:00000b40       $pdata$__acrt_thread_detach 0000000180029b40     libucrt:initialization.obj
 0004:00000b4c       $pdata$__acrt_uninitialize_critical 0000000180029b4c     libucrt:initialization.obj
 0004:00000b58       $pdata$terminate           0000000180029b58     libucrt:terminate.obj
 0004:00000b64       $pdata$abort               0000000180029b64     libucrt:abort.obj
 0004:00000b70       $pdata$strcpy_s            0000000180029b70     libucrt:strcpy_s.obj
 0004:00000b7c       $pdata$_free_base          0000000180029b7c     libucrt:free_base.obj
 0004:00000b88       $pdata$_malloc_base        0000000180029b88     libucrt:malloc_base.obj
 0004:00000b94       $pdata$_calloc_base        0000000180029b94     libucrt:calloc_base.obj
 0004:00000ba0       $pdata$??$?RV<lambda_7b91131dde12e1c3dfc74ff76b3f2eac>@@AEAV<lambda_dd75445284c072d0bd3768540cc698fa>@@V<lambda_16bc4ecb55b4718497c16bceaea2ceaf>@@@?$__crt_seh_guarded_call@H@@QEAAH$$QEAV<lambda_7b91131dde12e1c3dfc74ff76b3f2eac>@@AEAV<lambda_dd75445284c072d0bd3768540cc698fa>@@$$QEAV<lambda_16bc4ecb55b4718497c16bceaea2ceaf>@@@Z 0000000180029ba0     libucrt:output.obj
 0004:00000bac       $pdata$??$ensure_buffer_is_big_enough@D@formatting_buffer@__crt_stdio_output@@QEAA_N_K@Z 0000000180029bac     libucrt:output.obj
 0004:00000bb8       $pdata$??$type_case_integer_parse_into_buffer@I@?$output_processor@_WV?$string_output_adapter@_W@__crt_stdio_output@@V?$standard_base@_WV?$string_output_adapter@_W@__crt_stdio_output@@@2@@__crt_stdio_output@@AEAAXII_N@Z 0000000180029bb8     libucrt:output.obj
 0004:00000bb8       $pdata$??$type_case_integer_parse_into_buffer@I@?$output_processor@_WV?$stream_output_adapter@_W@__crt_stdio_output@@V?$standard_base@_WV?$stream_output_adapter@_W@__crt_stdio_output@@@2@@__crt_stdio_output@@AEAAXII_N@Z 0000000180029bb8     libucrt:output.obj
 0004:00000bc4       $pdata$??$type_case_integer_parse_into_buffer@_K@?$output_processor@_WV?$stream_output_adapter@_W@__crt_stdio_output@@V?$standard_base@_WV?$stream_output_adapter@_W@__crt_stdio_output@@@2@@__crt_stdio_output@@AEAAX_KI_N@Z 0000000180029bc4     libucrt:output.obj
 0004:00000bc4       $pdata$??$type_case_integer_parse_into_buffer@_K@?$output_processor@_WV?$string_output_adapter@_W@__crt_stdio_output@@V?$standard_base@_WV?$string_output_adapter@_W@__crt_stdio_output@@@2@@__crt_stdio_output@@AEAAX_KI_N@Z 0000000180029bc4     libucrt:output.obj
 0004:00000bd0       $pdata$??$write_multiple_characters@V?$stream_output_adapter@_W@__crt_stdio_output@@D@__crt_stdio_output@@YAXAEBV?$stream_output_adapter@_W@0@DHQEAH@Z 0000000180029bd0     libucrt:output.obj
 0004:00000bdc       $pdata$??$write_multiple_characters@V?$string_output_adapter@_W@__crt_stdio_output@@D@__crt_stdio_output@@YAXAEBV?$string_output_adapter@_W@0@DHQEAH@Z 0000000180029bdc     libucrt:output.obj
 0004:00000be8       $pdata$??0?$output_processor@_WV?$stream_output_adapter@_W@__crt_stdio_output@@V?$standard_base@_WV?$stream_output_adapter@_W@__crt_stdio_output@@@2@@__crt_stdio_output@@QEAA@AEBV?$stream_output_adapter@_W@1@_KQEB_WQEAU__crt_locale_pointers@@QEAD@Z 0000000180029be8     libucrt:output.obj
 0004:00000be8       $pdata$??0?$output_processor@_WV?$string_output_adapter@_W@__crt_stdio_output@@V?$standard_base@_WV?$string_output_adapter@_W@__crt_stdio_output@@@2@@__crt_stdio_output@@QEAA@AEBV?$string_output_adapter@_W@1@_KQEB_WQEAU__crt_locale_pointers@@QEAD@Z 0000000180029be8     libucrt:output.obj
 0004:00000bf4       $pdata$??R<lambda_dd75445284c072d0bd3768540cc698fa>@@QEBAHXZ 0000000180029bf4     libucrt:output.obj
 0004:00000c00       $pdata$?force_decimal_point@__crt_stdio_output@@YAXPEADQEAU__crt_locale_pointers@@@Z 0000000180029c00     libucrt:output.obj
 0004:00000c0c       $pdata$?parse_int_from_format_string@?$output_processor@_WV?$stream_output_adapter@_W@__crt_stdio_output@@V?$standard_base@_WV?$stream_output_adapter@_W@__crt_stdio_output@@@2@@__crt_stdio_output@@AEAA_NQEAH@Z 0000000180029c0c     libucrt:output.obj
 0004:00000c0c       $pdata$?parse_int_from_format_string@?$output_processor@_WV?$string_output_adapter@_W@__crt_stdio_output@@V?$standard_base@_WV?$string_output_adapter@_W@__crt_stdio_output@@@2@@__crt_stdio_output@@AEAA_NQEAH@Z 0000000180029c0c     libucrt:output.obj
 0004:00000c18       $pdata$?process@?$output_processor@_WV?$stream_output_adapter@_W@__crt_stdio_output@@V?$standard_base@_WV?$stream_output_adapter@_W@__crt_stdio_output@@@2@@__crt_stdio_output@@QEAAHXZ 0000000180029c18     libucrt:output.obj
 0004:00000c24       $pdata$?process@?$output_processor@_WV?$string_output_adapter@_W@__crt_stdio_output@@V?$standard_base@_WV?$string_output_adapter@_W@__crt_stdio_output@@@2@@__crt_stdio_output@@QEAAHXZ 0000000180029c24     libucrt:output.obj
 0004:00000c30       $pdata$?state_case_size@?$output_processor@_WV?$stream_output_adapter@_W@__crt_stdio_output@@V?$standard_base@_WV?$stream_output_adapter@_W@__crt_stdio_output@@@2@@__crt_stdio_output@@AEAA_NXZ 0000000180029c30     libucrt:output.obj
 0004:00000c3c       $pdata$?state_case_size@?$output_processor@_WV?$string_output_adapter@_W@__crt_stdio_output@@V?$standard_base@_WV?$string_output_adapter@_W@__crt_stdio_output@@@2@@__crt_stdio_output@@AEAA_NXZ 0000000180029c3c     libucrt:output.obj
 0004:00000c48       $pdata$?state_case_type@?$output_processor@_WV?$stream_output_adapter@_W@__crt_stdio_output@@V?$standard_base@_WV?$stream_output_adapter@_W@__crt_stdio_output@@@2@@__crt_stdio_output@@AEAA_NXZ 0000000180029c48     libucrt:output.obj
 0004:00000c54       $pdata$?state_case_type@?$output_processor@_WV?$string_output_adapter@_W@__crt_stdio_output@@V?$standard_base@_WV?$string_output_adapter@_W@__crt_stdio_output@@@2@@__crt_stdio_output@@AEAA_NXZ 0000000180029c54     libucrt:output.obj
 0004:00000c60       $pdata$?type_case_Z@?$output_processor@_WV?$string_output_adapter@_W@__crt_stdio_output@@V?$standard_base@_WV?$string_output_adapter@_W@__crt_stdio_output@@@2@@__crt_stdio_output@@AEAA_NXZ 0000000180029c60     libucrt:output.obj
 0004:00000c60       $pdata$?type_case_Z@?$output_processor@_WV?$stream_output_adapter@_W@__crt_stdio_output@@V?$standard_base@_WV?$stream_output_adapter@_W@__crt_stdio_output@@@2@@__crt_stdio_output@@AEAA_NXZ 0000000180029c60     libucrt:output.obj
 0004:00000c6c       $pdata$?type_case_a@?$output_processor@_WV?$stream_output_adapter@_W@__crt_stdio_output@@V?$standard_base@_WV?$stream_output_adapter@_W@__crt_stdio_output@@@2@@__crt_stdio_output@@AEAA_NXZ 0000000180029c6c     libucrt:output.obj
 0004:00000c6c       $pdata$?type_case_a@?$output_processor@_WV?$string_output_adapter@_W@__crt_stdio_output@@V?$standard_base@_WV?$string_output_adapter@_W@__crt_stdio_output@@@2@@__crt_stdio_output@@AEAA_NXZ 0000000180029c6c     libucrt:output.obj
 0004:00000c78       $pdata$?type_case_c_tchar@?$output_processor@_WV?$string_output_adapter@_W@__crt_stdio_output@@V?$standard_base@_WV?$string_output_adapter@_W@__crt_stdio_output@@@2@@__crt_stdio_output@@AEAA_N_W@Z 0000000180029c78     libucrt:output.obj
 0004:00000c78       $pdata$?type_case_c_tchar@?$output_processor@_WV?$stream_output_adapter@_W@__crt_stdio_output@@V?$standard_base@_WV?$stream_output_adapter@_W@__crt_stdio_output@@@2@@__crt_stdio_output@@AEAA_N_W@Z 0000000180029c78     libucrt:output.obj
 0004:00000c84       $pdata$?type_case_integer@?$output_processor@_WV?$stream_output_adapter@_W@__crt_stdio_output@@V?$standard_base@_WV?$stream_output_adapter@_W@__crt_stdio_output@@@2@@__crt_stdio_output@@AEAA_NI_N@Z 0000000180029c84     libucrt:output.obj
 0004:00000c84       $pdata$?type_case_integer@?$output_processor@_WV?$string_output_adapter@_W@__crt_stdio_output@@V?$standard_base@_WV?$string_output_adapter@_W@__crt_stdio_output@@@2@@__crt_stdio_output@@AEAA_NI_N@Z 0000000180029c84     libucrt:output.obj
 0004:00000c90       $pdata$?type_case_n@?$output_processor@_WV?$stream_output_adapter@_W@__crt_stdio_output@@V?$standard_base@_WV?$stream_output_adapter@_W@__crt_stdio_output@@@2@@__crt_stdio_output@@AEAA_NXZ 0000000180029c90     libucrt:output.obj
 0004:00000c90       $pdata$?type_case_n@?$output_processor@_WV?$string_output_adapter@_W@__crt_stdio_output@@V?$standard_base@_WV?$string_output_adapter@_W@__crt_stdio_output@@@2@@__crt_stdio_output@@AEAA_NXZ 0000000180029c90     libucrt:output.obj
 0004:00000c9c       $pdata$?type_case_s@?$output_processor@_WV?$stream_output_adapter@_W@__crt_stdio_output@@V?$standard_base@_WV?$stream_output_adapter@_W@__crt_stdio_output@@@2@@__crt_stdio_output@@AEAA_NXZ 0000000180029c9c     libucrt:output.obj
 0004:00000c9c       $pdata$?type_case_s@?$output_processor@_WV?$string_output_adapter@_W@__crt_stdio_output@@V?$standard_base@_WV?$string_output_adapter@_W@__crt_stdio_output@@@2@@__crt_stdio_output@@AEAA_NXZ 0000000180029c9c     libucrt:output.obj
 0004:00000ca8       $pdata$?write_stored_string_tchar@?$output_processor@_WV?$stream_output_adapter@_W@__crt_stdio_output@@V?$standard_base@_WV?$stream_output_adapter@_W@__crt_stdio_output@@@2@@__crt_stdio_output@@AEAA_N_W@Z 0000000180029ca8     libucrt:output.obj
 0004:00000cb4       $pdata$?write_stored_string_tchar@?$output_processor@_WV?$string_output_adapter@_W@__crt_stdio_output@@V?$standard_base@_WV?$string_output_adapter@_W@__crt_stdio_output@@@2@@__crt_stdio_output@@AEAA_N_W@Z 0000000180029cb4     libucrt:output.obj
 0004:00000cc0       $pdata$?write_string@?$stream_output_adapter@_W@__crt_stdio_output@@QEBAXQEB_WHQEAH1@Z 0000000180029cc0     libucrt:output.obj
 0004:00000ccc       $pdata$?write_string@?$string_output_adapter@_W@__crt_stdio_output@@QEBAXQEB_WHQEAH1@Z 0000000180029ccc     libucrt:output.obj
 0004:00000cd8       $pdata$__stdio_common_vfwprintf 0000000180029cd8     libucrt:output.obj
 0004:00000ce4       $pdata$__stdio_common_vswprintf 0000000180029ce4     libucrt:output.obj
 0004:00000cf0       $pdata$??$parse_integer@KV?$c_string_character_source@_W@__crt_strtox@@@__crt_strtox@@YAKQEAU__crt_locale_pointers@@V?$c_string_character_source@_W@0@H_N@Z 0000000180029cf0     libucrt:atox.obj
 0004:00000cfc       $pdata$__acrt_call_reportfault 0000000180029cfc     libucrt:invalid_parameter.obj
 0004:00000d08       $pdata$_invalid_parameter  0000000180029d08     libucrt:invalid_parameter.obj
 0004:00000d14       $pdata$_invalid_parameter_noinfo 0000000180029d14     libucrt:invalid_parameter.obj
 0004:00000d20       $pdata$_invoke_watson      0000000180029d20     libucrt:invalid_parameter.obj
 0004:00000d2c       $pdata$__acrt_errno_map_os_error 0000000180029d2c     libucrt:errno.obj
 0004:00000d38       $pdata$__doserrno          0000000180029d38     libucrt:errno.obj
 0004:00000d44       $pdata$_errno              0000000180029d44     libucrt:errno.obj
 0004:00000d50       $pdata$??$common_xtox@K_W@@YAHKQEA_W_KI_N@Z 0000000180029d50     libucrt:xtoa.obj
 0004:00000d5c       $pdata$??$common_xtox_s@K_W@@YAHKQEA_W_KI_N@Z 0000000180029d5c     libucrt:xtoa.obj
 0004:00000d68       $pdata$_itow_s             0000000180029d68     libucrt:xtoa.obj
 0004:00000d74       $pdata$_set_error_mode     0000000180029d74     libucrt:set_error_mode.obj
 0004:00000d80       $pdata$wcscat_s            0000000180029d80     libucrt:wcscat_s.obj
 0004:00000d8c       $pdata$wcscpy_s            0000000180029d8c     libucrt:wcscpy_s.obj
 0004:00000d98       $pdata$wcsncat_s           0000000180029d98     libucrt:wcsncat_s.obj
 0004:00000da4       $pdata$??$message_box_wait_thread@_W@@YAKQEAX@Z 0000000180029da4     libucrt:crtmbox.obj
 0004:00000db0       $pdata$__acrt_show_wide_message_box 0000000180029db0     libucrt:crtmbox.obj
 0004:00000dbc       $pdata$__acrt_initialize_stdio 0000000180029dbc     libucrt:_file.obj
 0004:00000dc8       $pdata$__acrt_uninitialize_stdio 0000000180029dc8     libucrt:_file.obj
 0004:00000dd4       $pdata$__acrt_stdio_flush_nolock 0000000180029dd4     libucrt:fflush.obj
 0004:00000de0       $pdata$_fflush_nolock      0000000180029de0     libucrt:fflush.obj
 0004:00000dec       $pdata$common_flush_all    0000000180029dec     libucrt:fflush.obj
 0004:00000df8       $pdata$fflush              0000000180029df8     libucrt:fflush.obj
 0004:00000e04       $pdata$??$?RV<lambda_7a5ef57ff966f610505f1d28a3d40618>@@AEAV<lambda_b721fa326cdb32351d23dfa67958c160>@@V<lambda_5e0fb27672408a07956fe59e48ccb2aa>@@@?$__crt_seh_guarded_call@H@@QEAAH$$QEAV<lambda_7a5ef57ff966f610505f1d28a3d40618>@@AEAV<lambda_b721fa326cdb32351d23dfa67958c160>@@$$QEAV<lambda_5e0fb27672408a07956fe59e48ccb2aa>@@@Z 0000000180029e04     libucrt:setvbuf.obj
 0004:00000e10       $pdata$??R<lambda_b721fa326cdb32351d23dfa67958c160>@@QEBAHXZ 0000000180029e10     libucrt:setvbuf.obj
 0004:00000e1c       $pdata$setvbuf             0000000180029e1c     libucrt:setvbuf.obj
 0004:00000e28       $pdata$??$?RV<lambda_c36588078e9f5dfd39652860aa6b3aaf>@@AEAV<lambda_ec61778202f4f5fc7e7711acc23c3bca>@@V<lambda_dc9d2797ccde5d239b4a0efae8ebd7db>@@@?$__crt_seh_guarded_call@P6AXH@Z@@QEAAP6AXH@Z$$QEAV<lambda_c36588078e9f5dfd39652860aa6b3aaf>@@AEAV<lambda_ec61778202f4f5fc7e7711acc23c3bca>@@$$QEAV<lambda_dc9d2797ccde5d239b4a0efae8ebd7db>@@@Z 0000000180029e28     libucrt:signal.obj
 0004:00000e34       $pdata$__acrt_get_sigabrt_handler 0000000180029e34     libucrt:signal.obj
 0004:00000e40       $pdata$raise               0000000180029e40     libucrt:signal.obj
 0004:00000e4c       $pdata$?internal_isupper_l@@YA_NHQEAU__crt_locale_pointers@@@Z 0000000180029e4c     libucrt:tolower_toupper.obj
 0004:00000e58       $pdata$_tolower_l          0000000180029e58     libucrt:tolower_toupper.obj
 0004:00000e64       $pdata$tolower             0000000180029e64     libucrt:tolower_toupper.obj
 0004:00000e70       $pdata$??$?RV<lambda_46352004c1216016012b18bd6f87e700>@@AEAV<lambda_3bd07e1a1191394380780325891bf33f>@@V<lambda_334532d3f185bcaa59b5be82d7d22bff>@@@?$__crt_seh_guarded_call@X@@QEAAX$$QEAV<lambda_46352004c1216016012b18bd6f87e700>@@AEAV<lambda_3bd07e1a1191394380780325891bf33f>@@$$QEAV<lambda_334532d3f185bcaa59b5be82d7d22bff>@@@Z 0000000180029e70     libucrt:per_thread_data.obj
 0004:00000e7c       $pdata$??$?RV<lambda_5e887d1dcbef67a5eb4283622ba103bf>@@AEAV<lambda_4466841279450cc726390878d4a41900>@@V<lambda_341c25c0346d94847f1f3c463c57e077>@@@?$__crt_seh_guarded_call@X@@QEAAX$$QEAV<lambda_5e887d1dcbef67a5eb4283622ba103bf>@@AEAV<lambda_4466841279450cc726390878d4a41900>@@$$QEAV<lambda_341c25c0346d94847f1f3c463c57e077>@@@Z 0000000180029e7c     libucrt:per_thread_data.obj
 0004:00000e88       $pdata$??$?RV<lambda_72d1df2b273a38828b1ce30cbf4cdab5>@@AEAV<lambda_876a65b173b8412d3a47c70a915b0cf4>@@V<lambda_41932305e351933ebe8f8be3ed8bb5dc>@@@?$__crt_seh_guarded_call@X@@QEAAX$$QEAV<lambda_72d1df2b273a38828b1ce30cbf4cdab5>@@AEAV<lambda_876a65b173b8412d3a47c70a915b0cf4>@@$$QEAV<lambda_41932305e351933ebe8f8be3ed8bb5dc>@@@Z 0000000180029e88     libucrt:per_thread_data.obj
 0004:00000e94       $pdata$??$?RV<lambda_fb3a7dec4e47f37f22dae91bb15c9095>@@AEAV<lambda_698284760c8add0bfb0756c19673e34b>@@V<lambda_dfb8eca1e75fef3034a8fb18dd509707>@@@?$__crt_seh_guarded_call@X@@QEAAX$$QEAV<lambda_fb3a7dec4e47f37f22dae91bb15c9095>@@AEAV<lambda_698284760c8add0bfb0756c19673e34b>@@$$QEAV<lambda_dfb8eca1e75fef3034a8fb18dd509707>@@@Z 0000000180029e94     libucrt:per_thread_data.obj
 0004:00000ea0       $pdata$?construct_ptd_array@@YAXQEAU__acrt_ptd@@@Z 0000000180029ea0     libucrt:per_thread_data.obj
 0004:00000eac       $pdata$?destroy_fls@@YAXPEAX@Z 0000000180029eac     libucrt:per_thread_data.obj
 0004:00000eb8       $pdata$?destroy_ptd_array@@YAXQEAU__acrt_ptd@@@Z 0000000180029eb8     libucrt:per_thread_data.obj
 0004:00000ec4       $pdata$?replace_current_thread_locale_nolock@@YAXQEAU__acrt_ptd@@QEAU__crt_locale_data@@@Z 0000000180029ec4     libucrt:per_thread_data.obj
 0004:00000ed0       $pdata$__acrt_freeptd      0000000180029ed0     libucrt:per_thread_data.obj
 0004:00000edc       $pdata$__acrt_getptd       0000000180029edc     libucrt:per_thread_data.obj
 0004:00000ee8       $pdata$__acrt_getptd_noexit 0000000180029ee8     libucrt:per_thread_data.obj
 0004:00000ef4       $pdata$__acrt_initialize_ptd 0000000180029ef4     libucrt:per_thread_data.obj
 0004:00000f00       $pdata$__acrt_uninitialize_ptd 0000000180029f00     libucrt:per_thread_data.obj
 0004:00000f0c       $pdata$__acrt_update_locale_info 0000000180029f0c     libucrt:locale_update.obj
 0004:00000f18       $pdata$__acrt_update_multibyte_info 0000000180029f18     libucrt:locale_update.obj
 0004:00000f24       $pdata$__acrt_uninitialize_locale 0000000180029f24     libucrt:wsetlocale.obj
 0004:00000f30       $pdata$_realloc_base       0000000180029f30     libucrt:realloc_base.obj
 0004:00000f3c       $pdata$__acrt_initialize_locks 0000000180029f3c     libucrt:locks.obj
 0004:00000f48       $pdata$__acrt_uninitialize_locks 0000000180029f48     libucrt:locks.obj
 0004:00000f54       $pdata$?try_get_function@@YAPEAXW4function_id@?A0x63058377@@QEBDQEBW4module_id@2@2@Z 0000000180029f54     libucrt:winapi_thunks.obj
 0004:00000f60       $pdata$__acrt_FlsAlloc     0000000180029f60     libucrt:winapi_thunks.obj
 0004:00000f6c       $pdata$__acrt_FlsFree      0000000180029f6c     libucrt:winapi_thunks.obj
 0004:00000f78       $pdata$__acrt_FlsGetValue  0000000180029f78     libucrt:winapi_thunks.obj
 0004:00000f84       $pdata$__acrt_FlsSetValue  0000000180029f84     libucrt:winapi_thunks.obj
 0004:00000f90       $pdata$__acrt_InitializeCriticalSectionEx 0000000180029f90     libucrt:winapi_thunks.obj
 0004:00000f9c       $pdata$__acrt_LCMapStringEx 0000000180029f9c     libucrt:winapi_thunks.obj
 0004:00000fa8       $pdata$__acrt_LocaleNameToLCID 0000000180029fa8     libucrt:winapi_thunks.obj
 0004:00000fb4       $pdata$__acrt_MessageBoxW  0000000180029fb4     libucrt:winapi_thunks.obj
 0004:00000fc0       $pdata$__acrt_can_show_message_box 0000000180029fc0     libucrt:winapi_thunks.obj
 0004:00000fcc       $pdata$__acrt_get_parent_window 0000000180029fcc     libucrt:winapi_thunks.obj
 0004:00000fd8       $pdata$__acrt_initialize_winapi_thunks 0000000180029fd8     libucrt:winapi_thunks.obj
 0004:00000fe4       $pdata$__acrt_is_interactive 0000000180029fe4     libucrt:winapi_thunks.obj
 0004:00000ff0       $pdata$__acrt_is_packaged_app 0000000180029ff0     libucrt:winapi_thunks.obj
 0004:00000ffc       $pdata$__acrt_uninitialize_winapi_thunks 0000000180029ffc     libucrt:winapi_thunks.obj
 0004:00001008       $pdata$??$common_expand_argv_wildcards@D@@YAHQEAPEADQEAPEAPEAD@Z 000000018002a008     libucrt:argv_wildcards.obj
 0004:00001014       $pdata$??$copy_and_add_argument_to_buffer@D@@YAHQEBD0_KAEAV?$argument_list@D@?A0xca0879c4@@@Z 000000018002a014     libucrt:argv_wildcards.obj
 0004:00001020       $pdata$??$expand_argument_wildcards@D@@YAHQEAD0AEAV?$argument_list@D@?A0xca0879c4@@@Z 000000018002a020     libucrt:argv_wildcards.obj
 0004:0000102c       $pdata$?expand_if_necessary@?$argument_list@D@?A0xca0879c4@@AEAAHXZ 000000018002a02c     libucrt:argv_wildcards.obj
 0004:00001038       $pdata$??$?RV<lambda_99476a1ad63dd22509b5d3e65b0ffc95>@@AEAV<lambda_ad1ced32f4ac17aa236e5ef05d6b3b7c>@@V<lambda_f7424dd8d45958661754dc4f2697e9c3>@@@?$__crt_seh_guarded_call@X@@QEAAX$$QEAV<lambda_99476a1ad63dd22509b5d3e65b0ffc95>@@AEAV<lambda_ad1ced32f4ac17aa236e5ef05d6b3b7c>@@$$QEAV<lambda_f7424dd8d45958661754dc4f2697e9c3>@@@Z 000000018002a038     libucrt:mbctype.obj
 0004:00001044       $pdata$??R<lambda_ad1ced32f4ac17aa236e5ef05d6b3b7c>@@QEBAXXZ 000000018002a044     libucrt:mbctype.obj
 0004:00001050       $pdata$?getSystemCP@@YAHH@Z 000000018002a050     libucrt:mbctype.obj
 0004:0000105c       $pdata$?setSBCS@@YAXPEAU__crt_multibyte_data@@@Z 000000018002a05c     libucrt:mbctype.obj
 0004:00001068       $pdata$?setSBUpLow@@YAXPEAU__crt_multibyte_data@@@Z 000000018002a068     libucrt:mbctype.obj
 0004:00001074       $pdata$?setmbcp_internal@@YAHH_N@Z 000000018002a074     libucrt:mbctype.obj
 0004:00001080       $pdata$__acrt_initialize_multibyte 000000018002a080     libucrt:mbctype.obj
 0004:0000108c       $pdata$__acrt_update_thread_multibyte_data 000000018002a08c     libucrt:mbctype.obj
 0004:00001098       $pdata$_setmbcp_nolock     000000018002a098     libucrt:mbctype.obj
 0004:000010a4       $pdata$?x_ismbbtype_l@@YAHPEAU__crt_locale_pointers@@IHH@Z 000000018002a0a4     libucrt:ismbbyte.obj
 0004:000010b0       $pdata$__acrt_initialize_command_line 000000018002a0b0     libucrt:argv_data.obj
 0004:000010bc       $pdata$__dcrt_get_narrow_environment_from_os 000000018002a0bc     libucrt:get_environment_from_os.obj
 0004:000010c8       $pdata$_recalloc_base      000000018002a0c8     libucrt:recalloc.obj
 0004:000010d4       $pdata$__acrt_initialize_heap 000000018002a0d4     libucrt:heap_handle.obj
 0004:000010e0       $pdata$?initialize_inherited_file_handles_nolock@@YAXXZ 000000018002a0e0     libucrt:ioinit.obj
 0004:000010ec       $pdata$?initialize_stdio_handles_nolock@@YAXXZ 000000018002a0ec     libucrt:ioinit.obj
 0004:000010f8       $pdata$__acrt_initialize_lowio 000000018002a0f8     libucrt:ioinit.obj
 0004:00001104       $pdata$__acrt_uninitialize_lowio 000000018002a104     libucrt:ioinit.obj
 0004:00001110       $pdata$__acrt_execute_initializers 000000018002a110     libucrt:shared_initialization.obj
 0004:0000111c       $pdata$__acrt_execute_uninitializers 000000018002a11c     libucrt:shared_initialization.obj
 0004:00001128       $pdata$__acrt_invoke_user_matherr 000000018002a128     libucrt:matherr.obj
 0004:00001134       $pdata$__acrt_stdio_begin_temporary_buffering_nolock 000000018002a134     libucrt:_sftbuf.obj
 0004:00001140       $pdata$__acrt_stdio_end_temporary_buffering_nolock 000000018002a140     libucrt:_sftbuf.obj
 0004:0000114c       $pdata$isdigit             000000018002a14c     libucrt:_ctype.obj
 0004:00001158       $pdata$wcstol              000000018002a158     libucrt:strtox.obj
 0004:00001164       $pdata$_mbtowc_l           000000018002a164     libucrt:mbtowc.obj
 0004:00001170       $pdata$_wctomb_s_l         000000018002a170     libucrt:wctomb.obj
 0004:0000117c       $pdata$wctomb_s            000000018002a17c     libucrt:wctomb.obj
 0004:00001188       $pdata$wcsnlen             000000018002a188     libucrt:strnlen.obj
 0004:00001194       $pdata$?fp_format_a@@YAHQEBNPEAD_KQEAD2H_NIQEAU__crt_locale_pointers@@@Z 000000018002a194     libucrt:cvt.obj
 0004:000011a0       $pdata$?fp_format_e@@YAHQEBNQEAD_K12H_NIQEAU__crt_locale_pointers@@@Z 000000018002a1a0     libucrt:cvt.obj
 0004:000011ac       $pdata$?fp_format_e_internal@@YAHQEAD_KH_NIQEAU_strflt@@2QEAU__crt_locale_pointers@@@Z 000000018002a1ac     libucrt:cvt.obj
 0004:000011b8       $pdata$?fp_format_f_internal@@YAHQEAD_KHQEAU_strflt@@_NQEAU__crt_locale_pointers@@@Z 000000018002a1b8     libucrt:cvt.obj
 0004:000011c4       $pdata$?fp_format_g@@YAHQEBNQEAD_K12H_NIQEAU__crt_locale_pointers@@@Z 000000018002a1c4     libucrt:cvt.obj
 0004:000011d0       $pdata$?fp_format_nan_or_infinity@@YAHW4__acrt_fp_class@@_NPEAD_K1@Z 000000018002a1d0     libucrt:cvt.obj
 0004:000011dc       $pdata$__acrt_fp_format    000000018002a1dc     libucrt:cvt.obj
 0004:000011e8       $pdata$_fputwc_nolock      000000018002a1e8     libucrt:fputwc.obj
 0004:000011f4       $pdata$_fileno             000000018002a1f4     libucrt:fileno.obj
 0004:00001200       $pdata$__pctype_func       000000018002a200     libucrt:ctype.obj
 0004:0000120c       $pdata$iswctype            000000018002a20c     libucrt:iswctype.obj
 0004:00001218       $pdata$_isctype_l          000000018002a218     libucrt:isctype.obj
 0004:00001224       $pdata$_fcloseall          000000018002a224     libucrt:closeall.obj
 0004:00001230       $pdata$__acrt_stdio_free_buffer_nolock 000000018002a230     libucrt:_freebuf.obj
 0004:0000123c       $pdata$??$?RV<lambda_b521505b218e5242e90febf6bfebc422>@@AEAV<lambda_6978c1fb23f02e42e1d9e99668cc68aa>@@V<lambda_314360699dd331753a4119843814e9a7>@@@?$__crt_seh_guarded_call@H@@QEAAH$$QEAV<lambda_b521505b218e5242e90febf6bfebc422>@@AEAV<lambda_6978c1fb23f02e42e1d9e99668cc68aa>@@$$QEAV<lambda_314360699dd331753a4119843814e9a7>@@@Z 000000018002a23c     libucrt:commit.obj
 0004:00001248       $pdata$_commit             000000018002a248     libucrt:commit.obj
 0004:00001254       $pdata$?write_double_translated_ansi_nolock@@YA?AUwrite_result@?A0x9c548279@@HQEBDI@Z 000000018002a254     libucrt:write.obj
 0004:00001260       $pdata$?write_text_ansi_nolock@@YA?AUwrite_result@?A0x9c548279@@HQEBDI@Z 000000018002a260     libucrt:write.obj
 0004:0000126c       $pdata$?write_text_utf16le_nolock@@YA?AUwrite_result@?A0x9c548279@@HQEBDI@Z 000000018002a26c     libucrt:write.obj
 0004:00001278       $pdata$?write_text_utf8_nolock@@YA?AUwrite_result@?A0x9c548279@@HQEBDI@Z 000000018002a278     libucrt:write.obj
 0004:00001284       $pdata$_write              000000018002a284     libucrt:write.obj
 0004:00001290       $pdata$_write_nolock       000000018002a290     libucrt:write.obj
 0004:0000129c       $pdata$_isleadbyte_l       000000018002a29c     libucrt:_wctype.obj
 0004:000012a8       $pdata$?__acrt_LCMapStringA_stat@@YAHPEAU__crt_locale_pointers@@PEB_WKPEBDHPEADHHH@Z 000000018002a2a8     libucrt:lcmapstringa.obj
 0004:000012b4       $pdata$__acrt_LCMapStringA 000000018002a2b4     libucrt:lcmapstringa.obj
 0004:000012c0       $pdata$__acrt_free_locale  000000018002a2c0     libucrt:locale_refcounting.obj
 0004:000012cc       $pdata$__acrt_locale_free_lc_time_if_unreferenced 000000018002a2cc     libucrt:locale_refcounting.obj
 0004:000012d8       $pdata$__acrt_release_locale_ref 000000018002a2d8     libucrt:locale_refcounting.obj
 0004:000012e4       $pdata$__acrt_update_thread_locale_data 000000018002a2e4     libucrt:locale_refcounting.obj
 0004:000012f0       $pdata$_updatetlocinfoEx_nolock 000000018002a2f0     libucrt:locale_refcounting.obj
 0004:000012fc       $pdata$__acrt_locale_free_monetary 000000018002a2fc     libucrt:initmon.obj
 0004:00001308       $pdata$__acrt_locale_free_numeric 000000018002a308     libucrt:initnum.obj
 0004:00001314       $pdata$?free_crt_array_internal@@YAXQEAPEBX_K@Z 000000018002a314     libucrt:inittime.obj
 0004:00001320       $pdata$__acrt_locale_free_time 000000018002a320     libucrt:inittime.obj
 0004:0000132c       $pdata$__acrt_GetStringTypeA 000000018002a32c     libucrt:getstringtypea.obj
 0004:00001338       $pdata$?GetTableIndexFromLocaleName@@YAHPEB_W@Z 000000018002a338     libucrt:lcidtoname_downlevel.obj
 0004:00001344       $pdata$__acrt_DownlevelLocaleNameToLCID 000000018002a344     libucrt:lcidtoname_downlevel.obj
 0004:00001350       $pdata$?shortsort@@YAXPEAD0_KP6AHPEBX2@Z@Z 000000018002a350     libucrt:qsort.obj
 0004:0000135c       $pdata$2$?shortsort@@YAXPEAD0_KP6AHPEBX2@Z@Z 000000018002a35c     libucrt:qsort.obj
 0004:00001368       $pdata$3$?shortsort@@YAXPEAD0_KP6AHPEBX2@Z@Z 000000018002a368     libucrt:qsort.obj
 0004:00001374       $pdata$qsort               000000018002a374     libucrt:qsort.obj
 0004:00001380       $pdata$4$qsort             000000018002a380     libucrt:qsort.obj
 0004:0000138c       $pdata$5$qsort             000000018002a38c     libucrt:qsort.obj
 0004:00001398       $pdata$strncpy_s           000000018002a398     libucrt:strncpy_s.obj
 0004:000013a4       $pdata$strpbrk             000000018002a3a4     libucrt:strpbrk.obj
 0004:000013b0       $pdata$_mbsdec_l           000000018002a3b0     libucrt:mbsdec.obj
 0004:000013bc       $pdata$?initialize_multibyte@@YAHXZ 000000018002a3bc     libucrt:multibyte_initializer.obj
 0004:000013c8       $pdata$_msize              000000018002a3c8     libucrt:msize.obj
 0004:000013d4       $pdata$__acrt_lowio_create_handle_array 000000018002a3d4     libucrt:osfinfo.obj
 0004:000013e0       $pdata$__acrt_lowio_destroy_handle_array 000000018002a3e0     libucrt:osfinfo.obj
 0004:000013ec       $pdata$__acrt_lowio_ensure_fh_exists 000000018002a3ec     libucrt:osfinfo.obj
 0004:000013f8       $pdata$_free_osfhnd        000000018002a3f8     libucrt:osfinfo.obj
 0004:00001404       $pdata$_get_osfhandle      000000018002a404     libucrt:osfinfo.obj
 0004:00001410       $pdata$_isatty             000000018002a410     libucrt:isatty.obj
 0004:0000141c       $pdata$__acrt_fp_strflt_to_string 000000018002a41c     libucrt:_fptostr.obj
 0004:00001428       $pdata$?divide@__crt_strtox@@YA_KAEAUbig_integer@1@AEBU21@@Z 000000018002a428     libucrt:cfout.obj
 0004:00001434       $pdata$5$?divide@__crt_strtox@@YA_KAEAUbig_integer@1@AEBU21@@Z 000000018002a434     libucrt:cfout.obj
 0004:00001440       $pdata$6$?divide@__crt_strtox@@YA_KAEAUbig_integer@1@AEBU21@@Z 000000018002a440     libucrt:cfout.obj
 0004:0000144c       $pdata$__acrt_fltout       000000018002a44c     libucrt:cfout.obj
 0004:00001458       $pdata$memcpy_s            000000018002a458     libucrt:cfout.obj
 0004:00001464       $pdata$??$write_buffer_nolock@D@@YA_NDV__crt_stdio_stream@@@Z 000000018002a464     libucrt:_flsbuf.obj
 0004:00001470       $pdata$??$write_buffer_nolock@_W@@YA_N_WV__crt_stdio_stream@@@Z 000000018002a470     libucrt:_flsbuf.obj
 0004:0000147c       $pdata$__acrt_stdio_flush_and_write_narrow_nolock 000000018002a47c     libucrt:_flsbuf.obj
 0004:00001488       $pdata$__acrt_stdio_flush_and_write_wide_nolock 000000018002a488     libucrt:_flsbuf.obj
 0004:00001494       $pdata$_fclose_nolock      000000018002a494     libucrt:fclose.obj
 0004:000014a0       $pdata$fclose              000000018002a4a0     libucrt:fclose.obj
 0004:000014ac       $pdata$??$common_lseek@_J@@YA_JH_JH@Z 000000018002a4ac     libucrt:lseek.obj
 0004:000014b8       $pdata$??$common_lseek_nolock@_J@@YA_JH_JH@Z 000000018002a4b8     libucrt:lseek.obj
 0004:000014c4       $pdata$_putwch_nolock      000000018002a4c4     libucrt:putwch.obj
 0004:000014d0       $pdata$fegetenv            000000018002a4d0     libucrt:fegetenv.obj
 0004:000014dc       $pdata$fesetenv            000000018002a4dc     libucrt:fesetenv.obj
 0004:000014e8       $pdata$feholdexcept        000000018002a4e8     libucrt:feholdexcept.obj
 0004:00001500       $pdata$__acrt_stdio_allocate_buffer_nolock 000000018002a500     libucrt:_getbuf.obj
 0004:0000150c       $pdata$??$?RV<lambda_bfedae4ebbf01fab1bb6dcc6a9e276e0>@@AEAV<lambda_2fe9b910cf3cbf4a0ab98a02ba45b3ec>@@V<lambda_237c231691f317818eb88cc1d5d642d6>@@@?$__crt_seh_guarded_call@H@@QEAAH$$QEAV<lambda_bfedae4ebbf01fab1bb6dcc6a9e276e0>@@AEAV<lambda_2fe9b910cf3cbf4a0ab98a02ba45b3ec>@@$$QEAV<lambda_237c231691f317818eb88cc1d5d642d6>@@@Z 000000018002a50c     libucrt:close.obj
 0004:00001518       $pdata$_close              000000018002a518     libucrt:close.obj
 0004:00001524       $pdata$_close_nolock       000000018002a524     libucrt:close.obj
 0004:00001530       $pdata$__dcrt_lowio_initialize_console_output 000000018002a530     libucrt:initcon.obj
 0004:0000153c       $pdata$__dcrt_terminate_console_output 000000018002a53c     libucrt:initcon.obj
 0004:00001548       $pdata$_getfpcontrolword   000000018002a548     libucrt:_fenvutils.obj
 0004:00001554       $pdata$_getfpstatusword    000000018002a554     libucrt:_fenvutils.obj
 0004:00001560       $pdata$_setfpstatusword    000000018002a560     libucrt:_fenvutils.obj
 0004:0000156c       $pdata$_clearfp            000000018002a56c     libucrt:ieee.obj
 0004:00001578       $pdata$common_control87    000000018002a578     libucrt:ieee.obj
 0004:00001584       $pdata$_call_matherr       000000018002a584     libucrt:libm_error.obj
 0004:00001590       $pdata$_exception_enabled  000000018002a590     libucrt:libm_error.obj
 0004:0000159c       $pdata$_handle_error       000000018002a59c     libucrt:libm_error.obj
 0004:000015a8       $pdata$__acrt_initialize_fma3 000000018002a5a8     libucrt:fma3_available.obj
 0004:000015b4       $pdata$_log10_special      000000018002a5b4     libucrt:log_special.obj
 0004:000015c0       $pdata$_log_special_common 000000018002a5c0     libucrt:log_special.obj
 0004:000015d8       $pdata$_raise_exc          000000018002a5d8     libucrt:fpexcept.obj
 0004:000015e4       $pdata$_raise_exc_ex       000000018002a5e4     libucrt:fpexcept.obj
 0004:000015f0       $pdata$_set_errno_from_matherr 000000018002a5f0     libucrt:fpexcept.obj
 0004:000015fc       $pdata$_clrfp              000000018002a5fc     libucrt:fpctrl.obj
 0004:00001608       $pdata$_ctrlfp             000000018002a608     libucrt:fpctrl.obj
 0004:00001614       $pdata$_set_statfp         000000018002a614     libucrt:fpctrl.obj
 0004:00001620       $pdata$_statfp             000000018002a620     libucrt:fpctrl.obj
 0004:0000162c       $pdata$?DloadAcquireSectionWriteAccess@@YAXXZ 000000018002a62c     DelayImp:delayhlp.obj
 0004:00001638       $pdata$?DloadGetSRWLockFunctionPointers@@YAEXZ 000000018002a638     DelayImp:delayhlp.obj
 0004:00001644       $pdata$?DloadMakePermanentImageCommit@@YAXPEAX_K@Z 000000018002a644     DelayImp:delayhlp.obj
 0004:00001650       $pdata$?DloadObtainSection@@YAPEAXPEAK0@Z 000000018002a650     DelayImp:delayhlp.obj
 0004:0000165c       $pdata$?DloadProtectSection@@YAXKPEAK@Z 000000018002a65c     DelayImp:delayhlp.obj
 0004:00001668       $pdata$?DloadReleaseSectionWriteAccess@@YAXXZ 000000018002a668     DelayImp:delayhlp.obj
 0004:00001674       $pdata$__delayLoadHelper2  000000018002a674     DelayImp:delayhlp.obj
 0004:00001680       $pdata$__GSHandlerCheck    000000018002a680     LIBCMT:_gshandler_.obj
 0004:0000168c       $pdata$__GSHandlerCheckCommon 000000018002a68c     LIBCMT:_gshandler_.obj
 0004:00001698       $pdata$_IsNonwritableInCurrentImage 000000018002a698     LIBCMT:pesect.obj
 0004:000016bc       $pdata$strrchr             000000018002a6bc     libvcruntime:strrchr.obj
 0004:000016d4       $pdata$?fin$0@?0??dllmain_crt_process_attach@@YAHQEAUHINSTANCE__@@QEAX@Z@4HA 000000018002a6d4     LIBCMT:dll_dllmain.obj
 0004:000016e0       $pdata$?fin$0@?0??dllmain_crt_process_detach@@YAH_N@Z@4HA 000000018002a6e0     LIBCMT:dll_dllmain.obj
 0004:000016ec       $pdata$?filt$0@?0??dllmain_dispatch@@YAHQEAUHINSTANCE__@@KQEAX@Z@4HA 000000018002a6ec     LIBCMT:dll_dllmain.obj
 0004:000016f8       $pdata$__scrt_is_nonwritable_in_current_image$filt$0 000000018002a6f8     LIBCMT:utility.obj
 0004:00001704       $pdata$_query_new_handler$fin$0 000000018002a704     libucrt:new_handler.obj
 0004:00001710       $pdata$?filt$0@?0??common_exit@@YAXHW4_crt_exit_cleanup_mode@@W4_crt_exit_return_mode@@@Z@4HA 000000018002a710     libucrt:exit.obj
 0004:0000171c       $pdata$?fin$1@?0??common_exit@@YAXHW4_crt_exit_cleanup_mode@@W4_crt_exit_return_mode@@@Z@4HA 000000018002a71c     libucrt:exit.obj
 0004:00001728       $pdata$?fin$0@?0???$?RV<lambda_e24bbb7b643b32fcea6fa61b31d4c984>@@AEAV<lambda_275893d493268fdec8709772e3fcec0e>@@V<lambda_9d71df4d7cf3f480f8d633942495c3b0>@@@?$__crt_seh_guarded_call@H@@QEAAH$$QEAV<lambda_e24bbb7b643b32fcea6fa61b31d4c984>@@AEAV<lambda_275893d493268fdec8709772e3fcec0e>@@$$QEAV<lambda_9d71df4d7cf3f480f8d633942495c3b0>@@@Z@4HA 000000018002a728     libucrt:onexit.obj
 0004:00001734       $pdata$?fin$0@?0???$?RV<lambda_7b91131dde12e1c3dfc74ff76b3f2eac>@@AEAV<lambda_dd75445284c072d0bd3768540cc698fa>@@V<lambda_16bc4ecb55b4718497c16bceaea2ceaf>@@@?$__crt_seh_guarded_call@H@@QEAAH$$QEAV<lambda_7b91131dde12e1c3dfc74ff76b3f2eac>@@AEAV<lambda_dd75445284c072d0bd3768540cc698fa>@@$$QEAV<lambda_16bc4ecb55b4718497c16bceaea2ceaf>@@@Z@4HA 000000018002a734     libucrt:output.obj
 0004:00001734       $pdata$?fin$0@?0???$?RV<lambda_7a5ef57ff966f610505f1d28a3d40618>@@AEAV<lambda_b721fa326cdb32351d23dfa67958c160>@@V<lambda_5e0fb27672408a07956fe59e48ccb2aa>@@@?$__crt_seh_guarded_call@H@@QEAAH$$QEAV<lambda_7a5ef57ff966f610505f1d28a3d40618>@@AEAV<lambda_b721fa326cdb32351d23dfa67958c160>@@$$QEAV<lambda_5e0fb27672408a07956fe59e48ccb2aa>@@@Z@4HA 000000018002a734     libucrt:setvbuf.obj
 0004:00001740       $pdata$common_flush_all$fin$0 000000018002a740     libucrt:fflush.obj
 0004:0000174c       $pdata$common_flush_all$fin$1 000000018002a74c     libucrt:fflush.obj
 0004:00001758       $pdata$fflush$fin$0        000000018002a758     libucrt:fflush.obj
 0004:00001758       $pdata$fclose$fin$0        000000018002a758     libucrt:fclose.obj
 0004:00001764       $pdata$raise$fin$0         000000018002a764     libucrt:signal.obj
 0004:00001770       $pdata$?fin$0@?0???$?RV<lambda_46352004c1216016012b18bd6f87e700>@@AEAV<lambda_3bd07e1a1191394380780325891bf33f>@@V<lambda_334532d3f185bcaa59b5be82d7d22bff>@@@?$__crt_seh_guarded_call@X@@QEAAX$$QEAV<lambda_46352004c1216016012b18bd6f87e700>@@AEAV<lambda_3bd07e1a1191394380780325891bf33f>@@$$QEAV<lambda_334532d3f185bcaa59b5be82d7d22bff>@@@Z@4HA 000000018002a770     libucrt:per_thread_data.obj
 0004:00001770       $pdata$?fin$0@?0???$?RV<lambda_b8c45f8f788dd370798f47cfe8ac3a86>@@AEAV<lambda_4e60a939b0d047cfe11ddc22648dfba9>@@V<lambda_332c3edc96d0294ec56c57d38c1cdfd5>@@@?$__crt_seh_guarded_call@H@@QEAAH$$QEAV<lambda_b8c45f8f788dd370798f47cfe8ac3a86>@@AEAV<lambda_4e60a939b0d047cfe11ddc22648dfba9>@@$$QEAV<lambda_332c3edc96d0294ec56c57d38c1cdfd5>@@@Z@4HA 000000018002a770     libucrt:onexit.obj
 0004:00001770       $pdata$?fin$0@?0???$?RV<lambda_fb3a7dec4e47f37f22dae91bb15c9095>@@AEAV<lambda_698284760c8add0bfb0756c19673e34b>@@V<lambda_dfb8eca1e75fef3034a8fb18dd509707>@@@?$__crt_seh_guarded_call@X@@QEAAX$$QEAV<lambda_fb3a7dec4e47f37f22dae91bb15c9095>@@AEAV<lambda_698284760c8add0bfb0756c19673e34b>@@$$QEAV<lambda_dfb8eca1e75fef3034a8fb18dd509707>@@@Z@4HA 000000018002a770     libucrt:per_thread_data.obj
 0004:00001770       $pdata$?fin$0@?0???$?RV<lambda_5e887d1dcbef67a5eb4283622ba103bf>@@AEAV<lambda_4466841279450cc726390878d4a41900>@@V<lambda_341c25c0346d94847f1f3c463c57e077>@@@?$__crt_seh_guarded_call@X@@QEAAX$$QEAV<lambda_5e887d1dcbef67a5eb4283622ba103bf>@@AEAV<lambda_4466841279450cc726390878d4a41900>@@$$QEAV<lambda_341c25c0346d94847f1f3c463c57e077>@@@Z@4HA 000000018002a770     libucrt:per_thread_data.obj
 0004:00001770       $pdata$?fin$0@?0???$?RV<lambda_c36588078e9f5dfd39652860aa6b3aaf>@@AEAV<lambda_ec61778202f4f5fc7e7711acc23c3bca>@@V<lambda_dc9d2797ccde5d239b4a0efae8ebd7db>@@@?$__crt_seh_guarded_call@P6AXH@Z@@QEAAP6AXH@Z$$QEAV<lambda_c36588078e9f5dfd39652860aa6b3aaf>@@AEAV<lambda_ec61778202f4f5fc7e7711acc23c3bca>@@$$QEAV<lambda_dc9d2797ccde5d239b4a0efae8ebd7db>@@@Z@4HA 000000018002a770     libucrt:signal.obj
 0004:00001770       $pdata$?fin$0@?0???$?RV<lambda_99476a1ad63dd22509b5d3e65b0ffc95>@@AEAV<lambda_ad1ced32f4ac17aa236e5ef05d6b3b7c>@@V<lambda_f7424dd8d45958661754dc4f2697e9c3>@@@?$__crt_seh_guarded_call@X@@QEAAX$$QEAV<lambda_99476a1ad63dd22509b5d3e65b0ffc95>@@AEAV<lambda_ad1ced32f4ac17aa236e5ef05d6b3b7c>@@$$QEAV<lambda_f7424dd8d45958661754dc4f2697e9c3>@@@Z@4HA 000000018002a770     libucrt:mbctype.obj
 0004:00001770       $pdata$?fin$0@?0???$?RV<lambda_72d1df2b273a38828b1ce30cbf4cdab5>@@AEAV<lambda_876a65b173b8412d3a47c70a915b0cf4>@@V<lambda_41932305e351933ebe8f8be3ed8bb5dc>@@@?$__crt_seh_guarded_call@X@@QEAAX$$QEAV<lambda_72d1df2b273a38828b1ce30cbf4cdab5>@@AEAV<lambda_876a65b173b8412d3a47c70a915b0cf4>@@$$QEAV<lambda_41932305e351933ebe8f8be3ed8bb5dc>@@@Z@4HA 000000018002a770     libucrt:per_thread_data.obj
 0004:0000177c       $pdata$__acrt_update_thread_multibyte_data$fin$0 000000018002a77c     libucrt:mbctype.obj
 0004:00001788       $pdata$__acrt_initialize_lowio$fin$0 000000018002a788     libucrt:ioinit.obj
 0004:00001788       $pdata$__acrt_lowio_ensure_fh_exists$fin$0 000000018002a788     libucrt:osfinfo.obj
 0004:00001794       $pdata$_fcloseall$fin$0    000000018002a794     libucrt:closeall.obj
 0004:000017a0       $pdata$__acrt_update_thread_locale_data$fin$0 000000018002a7a0     libucrt:locale_refcounting.obj
 0004:000017a0       $pdata$__acrt_uninitialize_locale$fin$0 000000018002a7a0     libucrt:wsetlocale.obj
 0004:000017ac       $pdata$?fin$0@?0???$common_lseek@_J@@YA_JH_JH@Z@4HA 000000018002a7ac     libucrt:lseek.obj
 0004:000017ac       $pdata$_write$fin$0        000000018002a7ac     libucrt:write.obj
 0004:000017b8       $pdata$?fin$0@?0???$?RV<lambda_bfedae4ebbf01fab1bb6dcc6a9e276e0>@@AEAV<lambda_2fe9b910cf3cbf4a0ab98a02ba45b3ec>@@V<lambda_237c231691f317818eb88cc1d5d642d6>@@@?$__crt_seh_guarded_call@H@@QEAAH$$QEAV<lambda_bfedae4ebbf01fab1bb6dcc6a9e276e0>@@AEAV<lambda_2fe9b910cf3cbf4a0ab98a02ba45b3ec>@@$$QEAV<lambda_237c231691f317818eb88cc1d5d642d6>@@@Z@4HA 000000018002a7b8     libucrt:close.obj
 0004:000017b8       $pdata$?fin$0@?0???$?RV<lambda_b521505b218e5242e90febf6bfebc422>@@AEAV<lambda_6978c1fb23f02e42e1d9e99668cc68aa>@@V<lambda_314360699dd331753a4119843814e9a7>@@@?$__crt_seh_guarded_call@H@@QEAAH$$QEAV<lambda_b521505b218e5242e90febf6bfebc422>@@AEAV<lambda_6978c1fb23f02e42e1d9e99668cc68aa>@@$$QEAV<lambda_314360699dd331753a4119843814e9a7>@@@Z@4HA 000000018002a7b8     libucrt:commit.obj
 0004:000017c4       $pdata$_ctrlfp$filt$0      000000018002a7c4     libucrt:fpctrl.obj
 0004:000017c4       $pdata$common_control87$filt$0 000000018002a7c4     libucrt:ieee.obj
 0004:000017d0       $pdata$_IsNonwritableInCurrentImage$filt$0 000000018002a7d0     LIBCMT:pesect.obj
 0005:00000000       __guard_fids__             000000018002b000     libucrt:initialization.obj
 0005:00000060       __guard_fids___acrt_show_wide_message_box 000000018002b060     libucrt:crtmbox.obj
 0005:00000064       __guard_fids___acrt_initialize_ptd 000000018002b064     libucrt:per_thread_data.obj
 0005:00000068       __guard_fids_??$expand_argument_wildcards@D@@YAHQEAD0AEAV?$argument_list@D@?A0xca0879c4@@@Z 000000018002b068     libucrt:argv_wildcards.obj
 0005:0000006c       __guard_fids__             000000018002b06c     libucrt:stdio_initializer.obj
 0005:00000070       __guard_fids__             000000018002b070     libucrt:stdio_initializer.obj
 0005:00000074       __guard_fids__             000000018002b074     libucrt:locale_initializer.obj
 0005:00000078       __guard_fids__             000000018002b078     libucrt:multibyte_initializer.obj
 0005:0000007c       __guard_fids__             000000018002b07c     libucrt:console_output_initializer.obj
 0005:00000080       __guard_fids__             000000018002b080     libucrt:fma3_initializer.obj
 0005:00000084       __guard_fids_?dllmain_crt_process_attach@@YAHQEAUHINSTANCE__@@QEAX@Z 000000018002b084     LIBCMT:dll_dllmain.obj
 0005:0000008c       __guard_fids_?dllmain_dispatch@@YAHQEAUHINSTANCE__@@KQEAX@Z 000000018002b08c     LIBCMT:dll_dllmain.obj
 0005:00000090       __guard_fids__             000000018002b090     LIBCMT:throw_bad_alloc.obj
 0005:00000098       __guard_fids__             000000018002b098     LIBCMT:throw_bad_alloc.obj
 0005:000000a0       __guard_fids__             000000018002b0a0     LIBCMT:throw_bad_alloc.obj
 0005:000000a8       __guard_fids__             000000018002b0a8     LIBCMT:std_type_info_static.obj
 0005:000000ac       __guard_fids__             000000018002b0ac     LIBCMT:guard_support.obj
 0005:000000b0       __guard_fids__             000000018002b0b0     libvcruntime:telemetry.obj
 0005:000000b4       __guard_fids_?TraceLoggingRegister@__vcrt_trace_logging_provider@@YAJPEBU_TlgProvider_t@1@PEBU_GUID@@P6AX1KE_K2PEAU_EVENT_FILTER_DESCRIPTOR@@PEAX@Z4@Z 000000018002b0b4     libvcruntime:telemetry.obj
 0005:000000b8       __guard_fids___vcrt_initialize_ptd 000000018002b0b8     libvcruntime:per_thread_data.obj
 0006:00000060       $R000000                   000000018002c060     * linker generated manifest res *

 Exports

  ordinal    name

        1    _register_ogg_
        2    ogg_packet_clear
        3    ogg_page_bos
        4    ogg_page_checksum_set
        5    ogg_page_continued
        6    ogg_page_eos
        7    ogg_page_granulepos
        8    ogg_page_packets
        9    ogg_page_pageno
       10    ogg_page_serialno
       11    ogg_page_version
       12    ogg_stream_clear
       13    ogg_stream_destroy
       14    ogg_stream_eos
       15    ogg_stream_flush
       16    ogg_stream_init
       17    ogg_stream_packetin
       18    ogg_stream_packetout
       19    ogg_stream_packetpeek
       20    ogg_stream_pagein
       21    ogg_stream_pageout
       22    ogg_stream_reset
       23    ogg_stream_reset_serialno
       24    ogg_sync_buffer
       25    ogg_sync_clear
       26    ogg_sync_destroy
       27    ogg_sync_init
       28    ogg_sync_pageout
       29    ogg_sync_pageseek
       30    ogg_sync_reset
       31    ogg_sync_wrote
       32    oggpackB_adv
       33    oggpackB_adv1
       34    oggpackB_bits
       35    oggpackB_bytes
       36    oggpackB_get_buffer
       37    oggpackB_look
       38    oggpackB_look1
       39    oggpackB_read
       40    oggpackB_read1
       41    oggpackB_readinit
       42    oggpackB_reset
       43    oggpackB_write
       44    oggpackB_writealign
       45    oggpackB_writeclear
       46    oggpackB_writecopy
       47    oggpackB_writeinit
       48    oggpackB_writetrunc
       49    oggpack_adv
       50    oggpack_adv1
       51    oggpack_bits
       52    oggpack_bytes
       53    oggpack_get_buffer
       54    oggpack_look
       55    oggpack_look1
       56    oggpack_read
       57    oggpack_read1
       58    oggpack_readinit
       59    oggpack_reset
       60    oggpack_write
       61    oggpack_writealign
       62    oggpack_writeclear
       63    oggpack_writecopy
       64    oggpack_writeinit
       65    oggpack_writetrunc
